(dp1
S'city'
p2
(lp3
S'hamilton'
p4
aS'manville'
p5
aS'bridgewater'
p6
aS'seattle'
p7
aS'bellevue'
p8
aS'birmingham'
p9
aS'san francisco'
p10
aS'portland'
p11
aS'royal oak'
p12
aS'Royal Oak'
p13
aS'madison heights'
p14
aS'detroit'
p15
aS'des moines'
p16
aS'johnstown'
p17
aS'boston'
p18
aS'carbondale'
p19
aS'los angeles'
p20
aS'stony brook'
p21
aS'94952'
p22
aS'tampa'
p23
aS'hoover'
p24
aS'dramas'
p25
aS'Sacramento'
p26
aS'nashville'
p27
aS'Seattle'
p28
aS'st louis'
p29
aS'whittier village stadium cinemas'
p30
aS'southeast portland'
p31
aS'miami'
p32
aS'chicago'
p33
aS'nyc'
p34
aS'sacramento'
p35
aS'pittsburgh'
p36
aS'atlanta'
p37
aS'south barrington'
p38
aS'over seattle'
p39
aS'dallas'
p40
aS'st'
p41
aS'louis park'
p42
aS'Portland'
p43
aS'Monroe'
p44
aS'cary'
p45
aS'whittier'
p46
aS'sparta'
p47
aS'Shiloh'
p48
aS'Belleville'
p49
aS"o'fallon"
p50
aS'fairview heights'
p51
aS'springfield'
p52
aS'albany'
p53
aS'houma'
p54
aS'la'
p55
aS'evanston'
p56
aS'Southfield'
p57
aS'monroe'
p58
aS'Long Island'
p59
aS'northern san francisco'
p60
aS'94109'
p61
aS'louis'
p62
aS'sappington'
p63
aS'norfolk'
p64
aS'Los Angeles CA 90015'
p65
aS'campcreek area'
p66
aS'regency'
p67
aS'arlington'
p68
aS'philadelphia'
p69
aS'princeton'
p70
aS'buford'
p71
aS'las vegas'
p72
aS'waynesboro'
p73
aS'Clear Lake'
p74
aS'du quoin'
p75
aS'Du Quoin'
p76
aS'altoona'
p77
aS'orlando'
p78
aS'regency academy 6 theater'
p79
aS'baltimore'
p80
aS'knoxville'
p81
aS'chico'
p82
aS'wilmington'
p83
aS'lansing'
p84
aS'bayou vista'
p85
aS'manchester stadium 16'
p86
aS'Houma'
p87
aS'tulare'
p88
aS'shiloh'
p89
aS'belleville'
p90
aS'Springfield'
p91
aS'du Quoin'
p92
asS'numberofpeople'
p93
(lp94
S'2'
aS'5'
aS'two'
p95
aS'9'
aS'three'
p96
aS'4'
aS'3'
aS'6'
aS'1'
aS'four'
p97
aS'2 adult'
p98
aS'one'
p99
aS'7'
aS' 2'
p100
aS'single'
p101
aS'8'
asS'theater'
p102
(lp103
S'manville 12 plex'
p104
aS'amc dine-in theatres bridgewater 7'
p105
aS'bridgewater'
p106
aS'every single theatre'
p107
aS'bellevue lincoln square cinemas'
p108
aS'regal meridian 16'
p109
aS'regal meridian'
p110
aS'carmike summit 16'
p111
aS'carmike summit'
p112
aS'century centre 9'
p113
aS'Redwood City 20'
p114
aS'many'
p115
aS'amc pacific place 11 theater'
p116
aS'regal lloyd center 10'
p117
aS'carmike 16'
p118
aS'river east 21'
p119
aS'emagine theater'
p120
aS'emagine'
p121
aS'different'
p122
aS'amc star john r 15'
p123
aS'any'
p124
aS'FLIX BREWHOUSE DES MOINES'
p125
aS'CARMIKE COBBLESTONE 9'
p126
aS'cinemas'
p127
aS'regal visalia stadium 10'
p128
aS'amc pacific place 11'
p129
aS'amc loews boston common 19'
p130
aS'amc showplace carbondale 8'
p131
aS'amc lowes oak tree'
p132
aS'amc lowes oak tree 6'
p133
aS'royal oak emagine theater'
p134
aS'Regal LA LIVE Stadium 14'
p135
aS'regal la live stadium'
p136
aS'Big Picture'
p137
aS'Cinerama'
p138
aS'Central Cinema'
p139
aS'century rowland plaza'
p140
aS'the century rowland plaza'
p141
aS'regency commerce 14'
p142
aS'bellevue lincoln square'
p143
aS'amc west shore 14 210 Westshore Plaza'
p144
aS'pacific science center imax theaters'
p145
aS'carmike patton creek'
p146
aS'regal meridian sundance cinemas'
p147
aS'regal thornton place'
p148
aS'REGAL NATOMAS MARKETPLACE STADIUM 16 & RPX'
p149
aS'Regal Natomas Marketplace'
p150
aS'amc hamilton 24'
p151
aS'regal meridan 16'
p152
aS'elmwood palace 20'
p153
aS'regal hollywood stadium 27'
p154
aS'chase park plaza cinemas'
p155
aS'regal lloyd center century eastport 16'
p156
aS'regal movies on tv stadium 16'
p157
aS'regal lloyd'
p158
aS'Regal South Beach'
p159
aS'Cinepolis USA'
p160
aS'Cobb Dolphin Cinemas'
p161
aS'cobb dolphin cinemas'
p162
aS'amc southcenter 16'
p163
aS'ua kaufman astoria stadium 14'
p164
aS'regal theater'
p165
aS'the Holiday 6'
p166
aS' the Stadium 5'
p167
aS'the Natomas Marketplace Stadium'
p168
aS'Natomas Marketplace Stadium'
p169
aS'regal natomas marketplace stadium'
p170
aS'richland cinemas'
p171
aS'this theater'
p172
aS'amc loews waterfront 22'
p173
aS'amc phipps plaza 14'
p174
aS'south barrington'
p175
aS'regal la live stadium 14'
p176
aS'pacific theatres at the grove'
p177
aS'regal la stadium 14'
p178
aS'regal la'
p179
aS'varsity theater'
p180
aS'theaters all over'
p181
aS'alamo draft house'
p182
aS'alamo drafthouse dallas'
p183
aS'century Eastport 16'
p184
aS'regal pioneer place'
p185
aS'regal lloyd center 10 & IMAX'
p186
aS'CENTURY 16 EASTPORT PLAZA'
p187
aS'century 16 EASTPORT PLAZA'
p188
aS'century 16'
p189
aS'regal barkley village stadium 16'
p190
aS'amc loews cascade mall'
p191
aS'regal marysville 14'
p192
aS'park west 14'
p193
aS'fangandgo'
p194
aS'Frank Theatres Parkside Town Commons Stadium 11'
p195
aS'Frank Theatres'
p196
aS'whittier village stadium cinemas'
p197
aS'cinemar downey'
p198
aS'amc theaters puente hills'
p199
aS"wehrenberg o'fallon 15 cine"
p200
aS'wehrenberg st clair 10 cine'
p201
aS'WEHRENBERG CAMPBELL 16'
p202
aS'pacific place 11'
p203
aS'regal clifton park stadium'
p204
aS'century eastport 16'
p205
aS'amc houma palace 10'
p206
aS'olympic blvd'
p207
aS'Regal Meridan 16 Bellevue Lincoln Square Cinemas'
p208
aS'Pacific Science Center IMAX Theaters'
p209
aS'box office window'
p210
aS'amc showplace carbondale'
p211
aS'Main Street Carbondale'
p212
aS'AMC UNIVERSITY PLACE 8'
p213
aS'amc pacific place 11 600 pine s'
p214
aS'loews stony brook 17'
p215
aS'amc loews stony brook'
p216
aS'regal fox tower stadium'
p217
aS'flix brewhouse des moines'
p218
aS'carmike cobblestone 9'
p219
aS'amc van ness 14'
p220
aS'AMC Van Ness'
p221
aS'amc van ness'
p222
aS'SIFF Cinema Uptown'
p223
aS'Ark Lodge Cinemas'
p224
aS'Regal Crossroads'
p225
aS'cinema uptown'
p226
aS'regal crossroad'
p227
aS'regal crossroads'
p228
aS'pacific place 11 theater'
p229
aS'wehrenberg ronnies 20'
p230
aS'imax 5320'
p231
aS'blvd'
p232
aS'big picture seattle'
p233
aS'regal macarthur center stadium 18 & RPX CINEMARK 18'
p234
aS'regal'
p235
aS'regal macarthur center stadium 18'
p236
aS'chase park plaza'
p237
aS'regal live stadium 14'
p238
aS'IMAX Century Eastport 16'
p239
aS'Century Clackmas Town Center'
p240
aS'XD'
p241
aS'theaters all across seattle'
p242
aS'Regal Meridian 16'
p243
aS'Pacific Science Center'
p244
aS'Admiral Theater'
p245
aS'pacific science center'
p246
aS'pacific science theater'
p247
aS'Regal meridian 16'
p248
aS'regal thornton place stadium'
p249
aS'amc star fairlane 21'
p250
aS'regency academy 6'
p251
aS'Regal LA Live Stadium 14'
p252
aS'cinemark tinseltown 9'
p253
aS'AMC LOEWS OAK TREE 6 10006 aurora'
p254
aS'theatre avenue north'
p255
aS'amc marketfair 10'
p256
aS'amc university place'
p257
aS'amc pacific place'
p258
aS'mall of georgia movie'
p259
aS'current'
p260
aS'Visalia'
p261
aS'regal colonnade 14'
p262
aS'zeus'
p263
aS'confirmed'
p264
aS'creed'
p265
aS'pacific sherman oaks 5'
p266
aS'amc la mirada 7'
p267
aS'AMC La Mirada'
p268
aS'amc'
p269
aS'15'
p270
aS'buford georgia'
p271
aS'whisky foxtrot tango'
p272
aS'mall of georgia'
p273
aS''
aS'finding dory'
p274
aS'carmike the summit 16'
p275
aS'lake theater'
p276
aS'Mason city IA cinema west'
p277
aS'cinema west'
p278
aS'carmike 12'
p279
aS'Living Room Theaters Century Eastport 16'
p280
aS'Century Clackamas Town Center'
p281
aS'XD among others in your area'
p282
aS'Living Room Theaters'
p283
aS'amc west oaks 14'
p284
aS'regency academy'
p285
aS'cinemakr egyptian 24'
p286
aS'pacific theatres'
p287
aS'pacific theater'
p288
aS'Richland Cinemas'
p289
aS'living room theaters'
p290
aS'...'
p291
aS'shelby township'
p292
aS'the pearl theatre'
p293
aS'century 20 daly city'
p294
aS'carmike 10'
p295
aS'please'
p296
aS'mesa grand 24'
p297
aS'mesa grand'
p298
aS'boyou vista la'
p299
aS'bayou vista'
p300
aS'fairview cinema work'
p301
aS'fairview'
p302
aS'regal south beach'
p303
aS'amc sunset place 24'
p304
aS'regency norwalk 8'
p305
aS'amc la 7'
p306
aS'amc la mirada'
p307
aS'amc la'
p308
aS'wehrenberg ronnies 20 cine and imax'
p309
aS'all'
p310
aS'paradise cinema 7'
p311
aS'tinseltown'
p312
aS'cinemark 14'
p313
aS' paradisa cinema 7'
p314
aS'beaver creek stadium 12'
p315
aS'varsity theatre'
p316
aS'regal mayfaire stadium 16 imax'
p317
aS'regal lloyd center century 16'
p318
aS'ncg eastwood cinemas'
p319
aS'regal cinemas'
p320
aS'cinema lansing'
p321
aS'big picture'
p322
aS'cinerama'
p323
aS'central cinema'
p324
aS'amc elmwood palace 20'
p325
aS'fairview cinema'
p326
aS'shields ave'
p327
aS'maya fresno 16'
p328
aS'campus pointe dr'
p329
aS'Regal Pioneer Place Stadium'
p330
aS'Regal Lloyd Center 10'
p331
aS'Bagdad Theatre'
p332
aS'regal pioneer place stadium'
p333
aS'wehrenberg campbell 16 cine moviename'
p334
aS'Big Picture Sundance Cinemas'
p335
aS'southpoint casino'
p336
aS'cinemark lincoln square cinemas'
p337
aS'regal meridian 16 theater'
p338
aS'amc river east 21'
p339
aS'cinpolis coconut grove'
p340
aS'COBB DOLPHIN 19'
p341
aS'cinepolis coconut grove'
p342
aS'cinepolis'
p343
aS'cCENTURY 16 SOUTH POINT AND XD'
p344
aS'Las Vegas NV 89183'
p345
aS'Century 16 South Point'
p346
asS'description'
p347
(lp348
S'is still playing in theaters'
p349
aS'violence'
p350
aS'violent'
p351
aS'good intelligent'
p352
aS'The critics consensus is that it is Fast funny and gleefully profane the fourth-wall-busting Deadpool subverts superhero film formula with wildly entertaining -- and decidedly non-family-friendly -- results'
p353
aS'disney'
p354
aS'A woman (Mary Elizabeth Winstead) discovers the horrifying truth about the outside world while living in an underground shelter with two men (John Goodman John Gallagher Jr)'
p355
aS'highest rated pizza'
p356
aS"Mortal hero Bek teams with the god Horus in an alliance against Set the merciless god of darkness who has usurped Egypt's throne plunging the once peaceful and prosperous empire into chaos and conflict"
p357
aS'scary'
p358
asS'zip'
p359
(lp360
S'08835'
p361
aS'08807'
p362
aS'98004'
p363
aS'98101'
p364
aS'98109'
p365
aS'35243'
p366
aS'35244'
p367
aS'70070'
p368
aS'90601'
p369
aS'10035'
p370
aS'30326'
p371
aS'90015'
p372
aS'90036'
p373
aS'97232'
p374
aS'97266'
p375
aS'98272'
p376
aS'90602'
p377
aS'62269'
p378
aS'62208'
p379
aS'32289'
p380
aS'48071'
p381
aS'63126'
p382
aS'98121'
p383
aS'19101'
p384
aS'19121'
p385
aS'62901'
p386
aS'98126'
p387
aS'98119'
p388
aS'35246'
p389
aS'35242'
p390
aS'85249'
p391
aS'60201'
p392
aS'94952'
p393
aS'65807'
p394
aS'33133'
p395
aS'33172'
p396
asS'numberofkids'
p397
(lp398
S'two'
p399
aS'2'
aS'1'
aS'no'
p400
asS'distanceconstraints'
p401
(lp402
S'closest'
p403
aS'visalia'
p404
aS'near the space needle'
p405
aS'area'
p406
aS'nearest'
p407
aS'near 98119'
p408
aS'closest time'
p409
aS'space needle'
p410
aS'east side'
p411
aS'downtown'
p412
aS'close to 95833'
p413
aS'near space needle'
p414
aS'south beach'
p415
aS'near'
p416
aS'south barrington'
p417
aS'near me'
p418
aS'south side'
p419
aS'local theater'
p420
aS'closest theater to you'
p421
aS'12 miles'
p422
aS' seattle area'
p423
aS'northern part of the city'
p424
aS'near here'
p425
aS'near my location'
p426
aS'safeco field'
p427
aS'near you:'
p428
aS'north side'
p429
aS'vicinity'
p430
aS'around the city'
p431
aS'far away from disney'
p432
aS'near you'
p433
aS'near safeco field'
p434
aS'in your area'
p435
aS'your area'
p436
aS'ave'
p437
aS'general'
p438
asS'critic_rating'
p439
(lp440
S'good'
p441
aS'84 percent'
p442
aS'93 of audience'
p443
aS'best'
p444
aS'good place'
p445
aS'top rated'
p446
aS'most scene'
p447
aS'number 1'
p448
aS'4.5/5'
p449
aS'top 4'
p450
aS'lowly 26% on rotten tomatoes but 64% of the audience seemed to like it'
p451
aS'great reviews all around with a 84 percent on rotten tomatoes and 93 of audience members recommending it'
p452
aS'6'
aS'5'
aS'nice'
p453
aS'4 5/5 star rating'
p454
aS'26%'
p455
aS'popular'
p456
aS'most seen'
p457
aS'4 5/5 stars'
p458
aS'8%'
p459
aS'top'
p460
asS'price'
p461
(lp462
S'$20'
p463
aS'$10'
p464
aS'cheapest'
p465
aS'adult price is 8'
p466
aS'32'
p467
asS'greeting'
p468
(lp469
S'hey'
p470
aS'hello'
p471
aS'good morning'
p472
aS'hi'
p473
aS'there'
p474
aS'hello there'
p475
aS'happy to'
p476
aS'good evening'
p477
aS'hi welcome'
p478
aS'hey there'
p479
aS'hi there'
p480
asS'actor'
p481
(lp482
S'ryan reynolds'
p483
aS'tina fey'
p484
asS'date'
p485
(lp486
S'tomorrow'
p487
aS'this weekend'
p488
aS'saturday'
p489
aS'tonight'
p490
aS'today'
p491
aS'friday'
p492
aS'3/11'
p493
aS'now'
p494
aS'tomorrow afternoon'
p495
aS'march 12'
p496
aS'friday march 11'
p497
aS'Friday'
p498
aS'tuesday'
p499
aS'next friday'
p500
aS'3/12'
p501
aS'weekend'
p502
aS'3/10'
p503
aS'march 24th'
p504
aS'openingnight'
p505
aS' a different day'
p506
aS'tomorrow evening'
p507
aS'thursday'
p508
aS'next saturday'
p509
aS'March 12th'
p510
aS'Tuesday the 8th'
p511
aS'3/8'
p512
aS'last weekend'
p513
aS'this week'
p514
aS'wednesday'
p515
aS'tomorrow night'
p516
aS'3/9/2016'
p517
aS'03\\/15\\/2016'
p518
aS'3/15'
p519
aS'march 12th'
p520
aS'3/9'
p521
aS'this evening'
p522
aS'this friday'
p523
aS'next sunday'
p524
aS'3/13'
p525
aS'9th'
p526
aS'this time'
p527
aS'11th'
p528
aS'that night'
p529
aS'march 11th'
p530
aS'21-mar'
p531
aS'march 25 2016'
p532
aS'Saturday'
p533
aS'coming saturday'
p534
aS'current'
p535
aS'this saturday'
p536
aS'march 15th'
p537
aS'march 9'
p538
aS'march 10 2016'
p539
aS'june 17 2016'
p540
aS'Friday the 11th'
p541
aS'another night'
p542
aS'3/10/2016'
p543
aS'friday evening'
p544
aS'7th'
p545
aS'that date'
p546
aS'sunday'
p547
aS'earlier day'
p548
aS'mar 12'
p549
aS'Saturday night'
p550
aS'this date'
p551
aS'Tuesday'
p552
aS'friday11th'
p553
aS'Friday the 10th'
p554
aS'any day this week'
p555
aS'tomrrow'
p556
asS'state'
p557
(lp558
S'nj'
p559
aS'washington'
p560
aS'wa'
p561
aS'al'
p562
aS'oregon'
p563
aS'mi'
p564
aS'iowa'
p565
aS'pennsylvania'
p566
aS'california'
p567
aS'ma'
p568
aS'illinois'
p569
aS'ny'
p570
aS'fl'
p571
aS'ca'
p572
aS'tn'
p573
aS'florida'
p574
aS'il'
p575
aS'pa'
p576
aS'ga'
p577
aS'mn'
p578
aS'OR'
p579
aS'north carolina'
p580
aS'mo'
p581
aS'alabama'
p582
aS'louisiana'
p583
aS'WA'
p584
aS'NY'
p585
aS'virginia'
p586
aS'texas'
p587
aS'ne'
p588
aS'georgia'
p589
aS'va'
p590
aS'IA'
p591
aS'maryland'
p592
aS'nc'
p593
aS'or'
p594
aS'michigan'
p595
aS'la'
p596
aS'LA'
p597
aS'nv'
p598
asS'other'
p599
(lp600
S'not available'
p601
aS'movie assistant number'
p602
aS'movie booking service'
p603
aS'search theater'
p604
aS'cannot book'
p605
aS'servicing tickets'
p606
aS'rotten tomatoes'
p607
aS'pub serves good burgers'
p608
aS'serves seafood'
p609
aS'date'
p610
aS'scary'
p611
aS'restaurant'
p612
aS'beer'
p613
aS'mexican restaurant'
p614
aS'best restaurant'
p615
aS'japanese restaurant'
p616
aS"that's odd"
p617
aS'crossed'
p618
aS'little late'
p619
aS'pub'
p620
aS'number 1'
p621
aS'switch cities'
p622
aS'name'
p623
aS'unable to book movies'
p624
aS'I cannot understand your reply'
p625
aS'purchase tickets'
p626
aS'look up date'
p627
aS'increased functionality'
p628
aS'functionality'
p629
aS'Master User'
p630
aS'master user'
p631
aS'two'
p632
aS'another preference'
p633
aS'no'
p634
aS'check again'
p635
aS'new release'
p636
aS'new releases'
p637
aS'place that serves seafood'
p638
aS'favorite part'
p639
aS'worth watching'
p640
aS'subtitiles'
p641
aS'subtitles'
p642
aS'many many theaters'
p643
aS'different selection of movies'
p644
aS'search for a theater'
p645
aS'latest showing'
p646
aS'Italian restaurant'
p647
aS'restaurant booking service'
p648
aS'online ticketing'
p649
aS"I can't remember"
p650
aS"can't think of"
p651
aS'search theaters'
p652
aS'cheapest'
p653
aS'do not know'
p654
aS'date night'
p655
aS'disney'
p656
aS'search by movie or movie theater'
p657
aS'indian restaurant'
p658
aS' movie purchasing service'
p659
aS'movie ticket buying service'
p660
aS'early in the day'
p661
aS'safeco field'
p662
aS'many'
p663
aS'pizza place'
p664
aS'restaurant reservations'
p665
aS'pizza restaurant'
p666
aS'restaurant service'
p667
aS'laughable'
p668
aS'english and chinese subtitles'
p669
aS'matinee'
p670
aS' matinee'
p671
aS'good restaurant'
p672
aS'currently'
p673
aS'george on the riverwak'
p674
aS'purchase'
p675
aS'odd'
p676
aS'got crossed'
p677
aS'29 movies'
p678
aS'I can bring my cat to'
p679
aS'I can order beer in'
p680
aS"don't know"
p681
aS'closed'
p682
aS'serve alcohol'
p683
aS"I don't know"
p684
aS"I'm not from around here"
p685
aS'restaurants'
p686
aS'book movie tickets'
p687
aS'before dinner'
p688
asS'mpaa_rating'
p689
(lp690
S'pg'
p691
aS'rated pg'
p692
aS'pg13'
p693
aS'best'
p694
aS'appropriate for the whole family'
p695
aS'r'
asS'starttime'
p696
(lp697
S'10:30am'
p698
aS'11:10am'
p699
aS'1:10pm'
p700
aS'1:50pm'
p701
aS'3:45pm'
p702
aS'4:30pm'
p703
aS'5:20pm'
p704
aS'6:30pm'
p705
aS'7:15pm'
p706
aS'9:10pm'
p707
aS'10:30pm'
p708
aS'12:30pm'
p709
aS'9:30pm'
p710
aS'9:30'
p711
aS'8:40pm'
p712
aS'7:00pm'
p713
aS'9:50pm'
p714
aS'none'
p715
aS'before 4pm'
p716
aS'12:00'
p717
aS'1:10'
p718
aS'2:40'
p719
aS'3:50'
p720
aS'around 2pm'
p721
aS'1:30'
p722
aS'4:00'
p723
aS'night'
p724
aS'11:05am'
p725
aS'1:45pm'
p726
aS'7:20 pm'
p727
aS'4:35pm'
p728
aS'10pm'
p729
aS'10 pm'
p730
aS'latest showing'
p731
aS'9:00 pm'
p732
aS'around 6pm'
p733
aS'7:20'
p734
aS'9:10 pm'
p735
aS'8:45 pm'
p736
aS'8:45'
p737
aS'9:50 pm'
p738
aS'around 3 pm'
p739
aS'12pm'
p740
aS'9:30 pm'
p741
aS'6pm'
p742
aS'9:01pm'
p743
aS'5:30pm'
p744
aS'8:00pm'
p745
aS'10:40pm'
p746
aS'2:30pm'
p747
aS'5:10pm'
p748
aS'10:00pm'
p749
aS'7:15 pm'
p750
aS'7pm'
p751
aS'around 7pm'
p752
aS'earliest showing'
p753
aS'12:45pm'
p754
aS'1:15pm'
p755
aS'12:45'
p756
aS'12:35pm'
p757
aS' 4:05pm'
p758
aS' 7:05pm'
p759
aS' 9:55pm'
p760
aS'7:05 pm'
p761
aS'after dinner'
p762
aS'after 7:30pm'
p763
aS'10:50pm'
p764
aS'7:50pm'
p765
aS'10:20pm'
p766
aS'8pm'
p767
aS'8:20'
p768
aS'8:15pm'
p769
aS'between 9 and 10'
p770
aS'10:20'
p771
aS'after 7pm'
p772
aS'4:40 pm'
p773
aS'before dinner'
p774
aS'7:10 pm'
p775
aS'betwenn 8-10 pm'
p776
aS'4 pm'
p777
aS'4:20'
p778
aS'4:20pm'
p779
aS'from noon to 4pm'
p780
aS'8:30pm'
p781
aS'11:00pm'
p782
aS'11pm'
p783
aS' Matinee'
p784
aS'4pm to 7pm'
p785
aS'6:55pm'
p786
aS'11:50am'
p787
aS'5:10'
p788
aS'7:50'
p789
aS'10:25'
p790
aS'2:30'
p791
aS'9:25 pm'
p792
aS'2:35 pm'
p793
aS'2:35'
p794
aS'afternoon'
p795
aS'10:00am'
p796
aS'3:30pm'
p797
aS'6:15pm'
p798
aS'9:00pm'
p799
aS'3:30'
p800
aS'11:30am'
p801
aS'1:05pm'
p802
aS'2:35pm'
p803
aS'4:10pm'
p804
aS'5:40pm'
p805
aS'7:05pm'
p806
aS'8:35pm'
p807
aS'9:55pm'
p808
aS'10:05am'
p809
aS'11:00am'
p810
aS'2:00pm'
p811
aS'4:05pm'
p812
aS'4:50pm'
p813
aS'6:45pm'
p814
aS'7:45pm'
p815
aS'10:45am'
p816
aS'11:15am'
p817
aS'1:00pm'
p818
aS'2:15pm'
p819
aS'4:00pm'
p820
aS'4:45pm'
p821
aS'5:15pm'
p822
aS'7:30pm'
p823
aS'morning'
p824
aS'7:00 pm'
p825
aS'12:15pm'
p826
aS'3:00pm'
p827
aS'5:45pm'
p828
aS'10:00 pm'
p829
aS'4:50 pm'
p830
aS'7:05'
p831
aS'around 4pm'
p832
aS'4 PM'
p833
aS'8:00 pm'
p834
aS'8:40'
p835
aS'8:00'
p836
aS'8'
aS'5pm'
p837
aS'5:00 pm'
p838
aS'around 8 pm'
p839
aS'1:30pm'
p840
aS'4pm'
p841
aS'130pm'
p842
aS'closest to noon'
p843
aS'late showing'
p844
aS'anytime after 7pm'
p845
aS'4:10&&7:00&&9:50pm'
p846
aS'4:40&&7:30&&10:20'
p847
aS'2pm'
p848
aS'2:20 pm'
p849
aS'11:45am'
p850
aS'around 9pm'
p851
aS'9pm'
p852
aS'8:25pm'
p853
aS'9:05pm'
p854
aS'9:05'
p855
aS'9:45pm'
p856
aS'around 7 pm'
p857
aS'8:45pm'
p858
aS'5:25pm'
p859
aS'5:25'
p860
aS'317'
p861
aS'10:25pm'
p862
aS'9:55'
p863
aS'6:25'
p864
aS' 9:00 pm'
p865
aS'7:55pm'
p866
aS'10:45pm'
p867
aS'11:55pm'
p868
aS'10:10am'
p869
aS'1:25pm'
p870
aS'2:20pm'
p871
aS'3:50pm'
p872
aS'7:10pm'
p873
aS'9:35pm'
p874
aS'11:10pm'
p875
aS'12:05am'
p876
aS'7:30'
p877
aS'7:00'
p878
aS'around 6 pm'
p879
aS'5:20'
p880
aS'6:30'
p881
aS'4:10'
p882
aS'4:40'
p883
aS'10:15pm'
p884
aS'10:15'
p885
aS'12:05pm'
p886
aS'6:25pm'
p887
aS'after 5 pm'
p888
aS'930pm'
p889
aS'640pm'
p890
aS'night around 8pm'
p891
aS"8 o'clock"
p892
aS'9:20 pm'
p893
aS'9:20'
p894
aS'12:20pm'
p895
aS'3:40pm'
p896
aS'6:50pm'
p897
aS'8:40pm tonight'
p898
aS'around 8pm'
p899
aS'9:10'
p900
aS'605pm'
p901
aS'6 pm'
p902
aS'2:20PM'
p903
aS'2:20'
p904
aS'between noon and 4pm'
p905
aS'early'
p906
aS'10:35'
p907
aS'11:40 am'
p908
aS'between 2 and 4pm'
p909
aS'6:55'
p910
aS'6:10pm'
p911
aS'7:20pm'
p912
aS'7:25pm'
p913
aS'9:20pm'
p914
aS'2 pm'
p915
aS'soonest'
p916
aS'12:40pm'
p917
aS'3:40'
p918
aS'6:50'
p919
aS'10:00'
p920
aS'10 o clock'
p921
aS'5:00pm'
p922
aS'7:40pm'
p923
aS'740'
p924
aS'10 cloverfield lane'
p925
aS' 6:30pm'
p926
aS' 9:10pm'
p927
aS' 11:55pm'
p928
aS'roughly every hour'
p929
aS'9:45 pm'
p930
aS'7'
aS'4:40pm'
p931
aS'matinee'
p932
aS'evening'
p933
aS'8:20 pm'
p934
aS'tonight'
p935
aS'7:30 pm'
p936
aS'8:15 pm'
p937
aS'8:15am'
p938
aS'after 6 pm'
p939
aS'6:45'
p940
aS' around 7pm'
p941
aS'4:25 pm'
p942
aS'7:15'
p943
aS'7:10'
p944
aS'10:05'
p945
aS'7:25 pm'
p946
aS'pm'
p947
aS'any time'
p948
aS'12:20'
p949
aS'later in the evening'
p950
aS'12:00pm'
p951
aS'between 5pm and 6pm'
p952
aS'between 5 and 6pm'
p953
aS'around noon'
p954
aS'soonest upcoming showing'
p955
aS'6:05'
p956
aS'7:25'
p957
aS'1:35 pm'
p958
aS'4:30'
p959
aS'around 5pm'
p960
aS'2:00 pm'
p961
aS'1:35pm'
p962
aS'9:25pm'
p963
aS'8:10PM'
p964
aS'evening around 6pm'
p965
aS'6:30 pm'
p966
aS'5:50'
p967
aS'6:40 pm'
p968
aS'a lot'
p969
aS'sonnest'
p970
aS'705pm'
p971
aS'635pm'
p972
aS'6:35'
p973
aS'1:15'
p974
aS'7 pm'
p975
aS'6:40pm'
p976
aS'anytime after 6pm'
p977
aS'between 8 and 10 pm'
p978
aS'8 pm'
p979
aS'6:00pm'
p980
aS'11:40pm'
p981
aS'1:30 pm'
p982
aS'3:20pm'
p983
aS'8:05'
p984
aS'11:40'
p985
aS'between 8 and 9pm'
p986
aS'9:25'
p987
aS'after 7 pm'
p988
aS'5:50pm'
p989
aS'2:25pm'
p990
aS'2:25'
p991
aS'between say 4pm and 7pm'
p992
aS'evening around 7'
p993
aS' 10:30'
p994
aS'the next'
p995
aS'the next showing'
p996
aS'2:05 pm'
p997
aS'7:40'
p998
aS'6:00'
p999
aS'8:30'
p1000
aS'between 4pm and 7pm'
p1001
aS'730pm'
p1002
aS'early afternoon'
p1003
aS' 7:40pm'
p1004
aS' 10:10pm'
p1005
aS'1:50'
p1006
aS' 4:30'
p1007
aS' 7:10'
p1008
aS' 9:50'
p1009
aS'2:40pm'
p1010
aS'kinky there'
p1011
aS'7:35 pm'
p1012
aS'7:35'
p1013
aS'midnight'
p1014
aS'late'
p1015
aS'from 4pm to 7pm'
p1016
aS'1:55'
p1017
aS'4:25'
p1018
aS'anytime'
p1019
aS'once or twice every hour'
p1020
aS'340pm'
p1021
aS' 425pm'
p1022
aS'4:25pm'
p1023
aS'425pm'
p1024
aS'9'
aS'10'
p1025
aS'some time close to that'
p1026
aS'11:20am'
p1027
aS'between 8-10 pm'
p1028
aS'8:05pm'
p1029
aS'10:35pm'
p1030
aS'after 6pm'
p1031
aS'11:20'
p1032
aS'12:35'
p1033
aS'right now'
p1034
aS'1:55pm'
p1035
aS'10:05pm'
p1036
aS'10:05 pm'
p1037
asS'theater_chain'
p1038
(lp1039
S'regal meridian'
p1040
aS'amc'
p1041
aS'amc loews stony brook 17'
p1042
aS'amc hamilton 24'
p1043
aS'amc pacific place 11'
p1044
aS'regency'
p1045
aS'amc loews waterfront 22'
p1046
aS'century'
p1047
aS'amc star john r 15'
p1048
aS'amc star southfield'
p1049
aS'amc lowes oak tree 6'
p1050
aS'amc loews oak tree 6'
p1051
aS'amc showplace carbondale 8'
p1052
aS'century eastport 16'
p1053
aS'amc theater'
p1054
aS'amc ahwatukee 24'
p1055
aS' amc mesa grand 24'
p1056
aS'amc showplace carbondale'
p1057
asS'genre'
p1058
(lp1059
S'comedy'
p1060
aS'comedies'
p1061
aS'kid'
p1062
aS'action'
p1063
aS'violence'
p1064
aS'superhero'
p1065
aS'romance'
p1066
aS'thriller'
p1067
aS'drama'
p1068
aS'family friendly'
p1069
aS'funny'
p1070
aS'kids'
p1071
aS'scary'
p1072
aS'horror'
p1073
aS'showing'
p1074
aS'romantic comedies'
p1075
aS'romantic comedy'
p1076
aS'adult comedy'
p1077
aS'romantic'
p1078
aS'drama/romance'
p1079
aS'foreign'
p1080
aS'superhero movie'
p1081
aS'dramas'
p1082
aS'animated'
p1083
aS'thriller science fiction'
p1084
aS'super great day'
p1085
aS'comedies)'
p1086
aS'not live action'
p1087
aS'date night:'
p1088
aS'sci-fi'
p1089
aS'Action/Adventure Sci-Fi/Fantasy'
p1090
asS'video_format'
p1091
(lp1092
S'3d'
p1093
aS'standard'
p1094
aS'2d'
p1095
aS'standard/2D version'
p1096
aS'IMAX'
p1097
aS'imax'
p1098
aS'regular'
p1099
aS'imax 3d'
p1100
aS' standard'
p1101
asS'moviename'
p1102
(lp1103
S'zootopia'
p1104
aS'whiskey tango foxtrot'
p1105
aS'how to be single'
p1106
aS'kung fu panda 3'
p1107
aS'How to be single'
p1108
aS'london has fallen'
p1109
aS'eddie the eagle'
p1110
aS'gods of egypt'
p1111
aS'triple 9'
p1112
aS'the witch'
p1113
aS'where to invade next'
p1114
aS'zoolander 2'
p1115
aS'hail caesar'
p1116
aS'star wars'
p1117
aS'the big short'
p1118
aS'the danish girl'
p1119
aS'deadpool'
p1120
aS' kung fu panda 3'
p1121
aS'room'
p1122
aS'independce day'
p1123
aS'kung fu panda'
p1124
aS'Deadpool'
p1125
aS'London has fallen'
p1126
aS'the revenant'
p1127
aS'10 cloverfield lane'
p1128
aS'the brothers grimsby'
p1129
aS'the perfect match'
p1130
aS"the brother's grimsby"
p1131
aS'lolo'
p1132
aS'brooklyn'
p1133
aS'the other side of the door'
p1134
aS'the boy'
p1135
aS'other side of the door'
p1136
aS'witch'
p1137
aS'The Witch'
p1138
aS' Young Messiah'
p1139
aS'The Young Messiah'
p1140
aS'risen'
p1141
aS'big short'
p1142
aS'Avengers'
p1143
aS'Finding Dory'
p1144
aS'zoology'
p1145
aS'called zoology'
p1146
aS'batman'
p1147
aS'batman vs superman'
p1148
aS'race'
p1149
aS'revenant'
p1150
aS'star wars the force awakens'
p1151
aS'TheWitch'
p1152
aS'The Other Side of The Door'
p1153
aS'How to be Single'
p1154
aS'whiskey'
p1155
aS'tango'
p1156
aS'Foxtrot'
p1157
aS'whisky tango foxtrot'
p1158
aS'Zootopia'
p1159
aS'starwars'
p1160
aS'The revenant'
p1161
aS'dirty grandpa'
p1162
aS'first'
p1163
aS'kung fu kanda 3'
p1164
aS'Fandango'
p1165
aS''
aS' 10 cloverfield lane'
p1166
aS' deadpool'
p1167
aS'brothers grimsby'
p1168
aS'The Perfect Match'
p1169
aS'mei ren yu (the mermaid)'
p1170
aS'mei ren yu'
p1171
aS'big'
p1172
aS'London Has Fallen'
p1173
aS'Whiskey Tango Foxtrot'
p1174
aS'Eddie The Eagle'
p1175
aS'Godys of Egypt'
p1176
aS'Triple 9'
p1177
aS'Where to Invade Next'
p1178
aS'Zoolander 2'
p1179
aS'Hail Caesar'
p1180
aS'Kung Fu Panda 3'
p1181
aS'Star Wars'
p1182
aS'The Big Short'
p1183
aS'The Danish Girl'
p1184
aS'more'
p1185
aS'spotlight'
p1186
aS'batman moviename'
p1187
aS'batman v superman'
p1188
aS'creed'
p1189
aS'large number of movies'
p1190
aS'risen race spotlight'
p1191
aS'london had fallen'
p1192
aS'hail casaer'
p1193
aS'race and risen'
p1194
aS'The big short'
p1195
aS'whisky foxtrot tango'
p1196
aS'zootopis'
p1197
aS'avengers'
p1198
aS'finding dory'
p1199
aS'same movie'
p1200
aS'the young messiah'
p1201
aS'morning as'
p1202
aS' whiskey tango foxtrot'
p1203
aS' perfect match'
p1204
aS'Hail Casaer'
p1205
aS'the vvitch'
p1206
aS'moviename'
p1207
aS'big short is confirmed'
p1208
aS'the forest'
p1209
aS'forest'
p1210
aS' the young messiah'
p1211
aS' eddie the eagle'
p1212
aS' the revenant'
p1213
aS'single'
p1214
aS'The Brothers Grimsby'
p1215
aS'10 cloverfield land'
p1216
aS'dIrty grandpa'
p1217
aS'big picture'
p1218
aS'gods egypt'
p1219
aS' the boy'
p1220
as.