(dp1
I1
(dp2
S'city'
p3
S'tulare'
p4
sS'theater'
p5
S'regal visalia stadium 10'
p6
sS'moviename'
p7
S'10 cloverfield lane'
p8
sS'conversationid'
p9
S'1be689ff-ab3c-4ae3-8969-b7d57098bffc'
p10
sS'state'
p11
S'california'
p12
sS'starttime'
p13
S'11:20am'
p14
sS'date'
p15
S'saturday'
p16
sS'date_real'
p17
S'2016-03-12'
p18
sS'state_real'
p19
S'ca'
p20
sS'starttime_real'
p21
S'11:20am'
p22
ssI2
(dp23
g3
S'tulare'
p24
sg5
S'regal visalia stadium 10'
p25
sg7
S'10 cloverfield lane'
p26
sg9
S'1be689ff-ab3c-4ae3-8969-b7d57098bffc'
p27
sg11
S'california'
p28
sg13
S'2:00pm'
p29
sg15
S'saturday'
p30
sg17
S'2016-03-12'
p31
sg19
S'ca'
p32
sg21
S'2:00pm'
p33
ssI3
(dp34
g3
S'tulare'
p35
sg5
S'regal visalia stadium 10'
p36
sg7
S'10 cloverfield lane'
p37
sg9
S'1be689ff-ab3c-4ae3-8969-b7d57098bffc'
p38
sg11
S'california'
p39
sg13
S'4:40pm'
p40
sg15
S'saturday'
p41
sg17
S'2016-03-12'
p42
sg19
S'ca'
p43
sg21
S'4:40pm'
p44
ssI4
(dp45
g3
S'tulare'
p46
sg5
S'regal visalia stadium 10'
p47
sg7
S'10 cloverfield lane'
p48
sg9
S'1be689ff-ab3c-4ae3-8969-b7d57098bffc'
p49
sg11
S'california'
p50
sg13
S'7:20pm'
p51
sg15
S'saturday'
p52
sg17
S'2016-03-12'
p53
sg19
S'ca'
p54
sg21
S'7:20pm'
p55
ssI5
(dp56
g3
S'tulare'
p57
sg5
S'regal visalia stadium 10'
p58
sg7
S'10 cloverfield lane'
p59
sg9
S'1be689ff-ab3c-4ae3-8969-b7d57098bffc'
p60
sg11
S'california'
p61
sg13
S'10:05pm'
p62
sg15
S'saturday'
p63
sg17
S'2016-03-12'
p64
sg19
S'ca'
p65
sg21
S'10:05pm'
p66
ssI6
(dp67
g3
S'portland'
p68
sg5
S'Regal Pioneer Place Stadium'
p69
sg7
S'10 cloverfield lane'
p70
sg9
S'3b343e7b-ccd5-48bb-9376-facf12a5b51b'
p71
sg11
S'oregon'
p72
sg13
S'9:50pm'
p73
sg15
S'saturday'
p74
sg17
S'2016-03-12'
p75
sg19
S'or'
p76
sg21
S'9:50pm'
p77
ssI7
(dp78
g3
S'portland'
p79
sg5
S'Regal Lloyd Center 10'
p80
sg9
S'3b343e7b-ccd5-48bb-9376-facf12a5b51b'
p81
sg11
S'oregon'
p82
sg19
S'or'
p83
sg7
S'10 cloverfield lane'
p84
ssI8
(dp85
g3
S'portland'
p86
sg5
S'Bagdad Theatre'
p87
sg9
S'3b343e7b-ccd5-48bb-9376-facf12a5b51b'
p88
sg11
S'oregon'
p89
sg19
S'or'
p90
sg7
S'10 cloverfield lane'
p91
ssI9
(dp92
g3
S'los angeles'
p93
sg5
S'regal la live stadium 14'
p94
sS'zip'
p95
S'90015'
p96
sg7
S'10 cloverfield lane'
p97
sg9
S'cc83cb76-8486-4e66-9312-fb298edad424'
p98
sg11
S'ca'
p99
sg13
S'11:45am'
p100
sg15
S'tomorrow'
p101
sg17
S'2016-03-11'
p102
sg19
S'ca'
p103
sg21
S'11:45am'
p104
ssI10
(dp105
g3
S'los angeles'
p106
sg5
S'regal la live stadium 14'
p107
sg95
S'90015'
p108
sg7
S'10 cloverfield lane'
p109
sg9
S'cc83cb76-8486-4e66-9312-fb298edad424'
p110
sg11
S'ca'
p111
sg13
S'12:45pm'
p112
sg15
S'tomorrow'
p113
sg17
S'2016-03-11'
p114
sg19
S'ca'
p115
sg21
S'12:45pm'
p116
ssI11
(dp117
g3
S'los angeles'
p118
sg5
S'regal la live stadium 14'
p119
sg95
S'90015'
p120
sg7
S'10 cloverfield lane'
p121
sg9
S'cc83cb76-8486-4e66-9312-fb298edad424'
p122
sg11
S'ca'
p123
sg13
S'2:30pm'
p124
sg15
S'tomorrow'
p125
sg17
S'2016-03-11'
p126
sg19
S'ca'
p127
sg21
S'2:30pm'
p128
ssI12
(dp129
g3
S'los angeles'
p130
sg5
S'regal la live stadium 14'
p131
sg95
S'90015'
p132
sg7
S'10 cloverfield lane'
p133
sg9
S'cc83cb76-8486-4e66-9312-fb298edad424'
p134
sg11
S'ca'
p135
sg13
S'3:30pm'
p136
sg15
S'tomorrow'
p137
sg17
S'2016-03-11'
p138
sg19
S'ca'
p139
sg21
S'3:30pm'
p140
ssI13
(dp141
g3
S'los angeles'
p142
sg5
S'regal la live stadium 14'
p143
sg95
S'90015'
p144
sg7
S'10 cloverfield lane'
p145
sg9
S'cc83cb76-8486-4e66-9312-fb298edad424'
p146
sg11
S'ca'
p147
sg13
S'5:10pm'
p148
sg15
S'tomorrow'
p149
sg17
S'2016-03-11'
p150
sg19
S'ca'
p151
sg21
S'5:10pm'
p152
ssI14
(dp153
g3
S'los angeles'
p154
sg5
S'regal la live stadium 14'
p155
sg95
S'90015'
p156
sg7
S'10 cloverfield lane'
p157
sg9
S'cc83cb76-8486-4e66-9312-fb298edad424'
p158
sg11
S'ca'
p159
sg13
S'6:30pm'
p160
sg15
S'tomorrow'
p161
sg17
S'2016-03-11'
p162
sg19
S'ca'
p163
sg21
S'6:30pm'
p164
ssI15
(dp165
g3
S'los angeles'
p166
sg5
S'regal la live stadium 14'
p167
sg95
S'90015'
p168
sg7
S'10 cloverfield lane'
p169
sg9
S'cc83cb76-8486-4e66-9312-fb298edad424'
p170
sg11
S'ca'
p171
sg13
S'7:55pm'
p172
sg15
S'tomorrow'
p173
sg17
S'2016-03-11'
p174
sg19
S'ca'
p175
sg21
S'7:55pm'
p176
ssI16
(dp177
g3
S'los angeles'
p178
sg5
S'regal la live stadium 14'
p179
sg95
S'90015'
p180
sg7
S'10 cloverfield lane'
p181
sg9
S'cc83cb76-8486-4e66-9312-fb298edad424'
p182
sg11
S'ca'
p183
sg13
S'9:10pm'
p184
sg15
S'tomorrow'
p185
sg17
S'2016-03-11'
p186
sg19
S'ca'
p187
sg21
S'9:10pm'
p188
ssI17
(dp189
g3
S'los angeles'
p190
sg5
S'regal la live stadium 14'
p191
sg95
S'90015'
p192
sg7
S'10 cloverfield lane'
p193
sg9
S'cc83cb76-8486-4e66-9312-fb298edad424'
p194
sg11
S'ca'
p195
sg13
S'10:45pm'
p196
sg15
S'tomorrow'
p197
sg17
S'2016-03-11'
p198
sg19
S'ca'
p199
sg21
S'10:45pm'
p200
ssI18
(dp201
g3
S'los angeles'
p202
sg5
S'regal la live stadium 14'
p203
sg95
S'90015'
p204
sg7
S'10 cloverfield lane'
p205
sg9
S'cc83cb76-8486-4e66-9312-fb298edad424'
p206
sg11
S'ca'
p207
sg13
S'11:55pm'
p208
sg15
S'tomorrow'
p209
sg17
S'2016-03-11'
p210
sg19
S'ca'
p211
sg21
S'11:55pm'
p212
ssI19
(dp213
g3
S'los angeles'
p214
sg5
S'pacific theatres at the grove'
p215
sg95
S'90036'
p216
sg7
S'10 cloverfield lane'
p217
sg9
S'cc83cb76-8486-4e66-9312-fb298edad424'
p218
sg11
S'ca'
p219
sg13
S'10:10am'
p220
sg15
S'tomorrow'
p221
sg17
S'2016-03-11'
p222
sg19
S'ca'
p223
sg21
S'10:10am'
p224
ssI20
(dp225
g3
S'los angeles'
p226
sg5
S'pacific theatres at the grove'
p227
sg95
S'90036'
p228
sg7
S'10 cloverfield lane'
p229
sg9
S'cc83cb76-8486-4e66-9312-fb298edad424'
p230
sg11
S'ca'
p231
sg13
S'11:00am'
p232
sg15
S'tomorrow'
p233
sg17
S'2016-03-11'
p234
sg19
S'ca'
p235
sg21
S'11:00am'
p236
ssI21
(dp237
g3
S'los angeles'
p238
sg5
S'pacific theatres at the grove'
p239
sg95
S'90036'
p240
sg7
S'10 cloverfield lane'
p241
sg9
S'cc83cb76-8486-4e66-9312-fb298edad424'
p242
sg11
S'ca'
p243
sg13
S'11:50am'
p244
sg15
S'tomorrow'
p245
sg17
S'2016-03-11'
p246
sg19
S'ca'
p247
sg21
S'11:50am'
p248
ssI22
(dp249
g3
S'los angeles'
p250
sg5
S'pacific theatres at the grove'
p251
sg95
S'90036'
p252
sg7
S'10 cloverfield lane'
p253
sg9
S'cc83cb76-8486-4e66-9312-fb298edad424'
p254
sg11
S'ca'
p255
sg13
S'12:30pm'
p256
sg15
S'tomorrow'
p257
sg17
S'2016-03-11'
p258
sg19
S'ca'
p259
sg21
S'12:30pm'
p260
ssI23
(dp261
g3
S'los angeles'
p262
sg5
S'pacific theatres at the grove'
p263
sg95
S'90036'
p264
sg7
S'10 cloverfield lane'
p265
sg9
S'cc83cb76-8486-4e66-9312-fb298edad424'
p266
sg11
S'ca'
p267
sg13
S'1:25pm'
p268
sg15
S'tomorrow'
p269
sg17
S'2016-03-11'
p270
sg19
S'ca'
p271
sg21
S'1:25pm'
p272
ssI24
(dp273
g3
S'los angeles'
p274
sg5
S'pacific theatres at the grove'
p275
sg95
S'90036'
p276
sg7
S'10 cloverfield lane'
p277
sg9
S'cc83cb76-8486-4e66-9312-fb298edad424'
p278
sg11
S'ca'
p279
sg13
S'2:20pm'
p280
sg15
S'tomorrow'
p281
sg17
S'2016-03-11'
p282
sg19
S'ca'
p283
sg21
S'2:20pm'
p284
ssI25
(dp285
g3
S'los angeles'
p286
sg5
S'pacific theatres at the grove'
p287
sg95
S'90036'
p288
sg7
S'10 cloverfield lane'
p289
sg9
S'cc83cb76-8486-4e66-9312-fb298edad424'
p290
sg11
S'ca'
p291
sg13
S'3:00pm'
p292
sg15
S'tomorrow'
p293
sg17
S'2016-03-11'
p294
sg19
S'ca'
p295
sg21
S'3:00pm'
p296
ssI26
(dp297
g3
S'los angeles'
p298
sg5
S'pacific theatres at the grove'
p299
sg95
S'90036'
p300
sg7
S'10 cloverfield lane'
p301
sg9
S'cc83cb76-8486-4e66-9312-fb298edad424'
p302
sg11
S'ca'
p303
sg13
S'3:50pm'
p304
sg15
S'tomorrow'
p305
sg17
S'2016-03-11'
p306
sg19
S'ca'
p307
sg21
S'3:50pm'
p308
ssI27
(dp309
g3
S'los angeles'
p310
sg5
S'pacific theatres at the grove'
p311
sg95
S'90036'
p312
sg7
S'10 cloverfield lane'
p313
sg9
S'cc83cb76-8486-4e66-9312-fb298edad424'
p314
sg11
S'ca'
p315
sg13
S'4:45pm'
p316
sg15
S'tomorrow'
p317
sg17
S'2016-03-11'
p318
sg19
S'ca'
p319
sg21
S'4:45pm'
p320
ssI28
(dp321
g3
S'los angeles'
p322
sg5
S'pacific theatres at the grove'
p323
sg95
S'90036'
p324
sg7
S'10 cloverfield lane'
p325
sg9
S'cc83cb76-8486-4e66-9312-fb298edad424'
p326
sg11
S'ca'
p327
sg13
S'5:25pm'
p328
sg15
S'tomorrow'
p329
sg17
S'2016-03-11'
p330
sg19
S'ca'
p331
sg21
S'5:25pm'
p332
ssI29
(dp333
g3
S'los angeles'
p334
sg5
S'pacific theatres at the grove'
p335
sg95
S'90036'
p336
sg7
S'10 cloverfield lane'
p337
sg9
S'cc83cb76-8486-4e66-9312-fb298edad424'
p338
sg11
S'ca'
p339
sg13
S'7:10pm'
p340
sg15
S'tomorrow'
p341
sg17
S'2016-03-11'
p342
sg19
S'ca'
p343
sg21
S'7:10pm'
p344
ssI30
(dp345
g3
S'los angeles'
p346
sg5
S'pacific theatres at the grove'
p347
sg95
S'90036'
p348
sg7
S'10 cloverfield lane'
p349
sg9
S'cc83cb76-8486-4e66-9312-fb298edad424'
p350
sg11
S'ca'
p351
sg13
S'7:55pm'
p352
sg15
S'tomorrow'
p353
sg17
S'2016-03-11'
p354
sg19
S'ca'
p355
sg21
S'7:55pm'
p356
ssI31
(dp357
g3
S'los angeles'
p358
sg5
S'pacific theatres at the grove'
p359
sg95
S'90036'
p360
sg7
S'10 cloverfield lane'
p361
sg9
S'cc83cb76-8486-4e66-9312-fb298edad424'
p362
sg11
S'ca'
p363
sg13
S'8:40pm'
p364
sg15
S'tomorrow'
p365
sg17
S'2016-03-11'
p366
sg19
S'ca'
p367
sg21
S'8:40pm'
p368
ssI32
(dp369
g3
S'los angeles'
p370
sg5
S'pacific theatres at the grove'
p371
sg95
S'90036'
p372
sg7
S'10 cloverfield lane'
p373
sg9
S'cc83cb76-8486-4e66-9312-fb298edad424'
p374
sg11
S'ca'
p375
sg13
S'9:35pm'
p376
sg15
S'tomorrow'
p377
sg17
S'2016-03-11'
p378
sg19
S'ca'
p379
sg21
S'9:35pm'
p380
ssI33
(dp381
g3
S'los angeles'
p382
sg5
S'pacific theatres at the grove'
p383
sg95
S'90036'
p384
sg7
S'10 cloverfield lane'
p385
sg9
S'cc83cb76-8486-4e66-9312-fb298edad424'
p386
sg11
S'ca'
p387
sg13
S'10:25pm'
p388
sg15
S'tomorrow'
p389
sg17
S'2016-03-11'
p390
sg19
S'ca'
p391
sg21
S'10:25pm'
p392
ssI34
(dp393
g3
S'los angeles'
p394
sg5
S'pacific theatres at the grove'
p395
sg95
S'90036'
p396
sg7
S'10 cloverfield lane'
p397
sg9
S'cc83cb76-8486-4e66-9312-fb298edad424'
p398
sg11
S'ca'
p399
sg13
S'11:10pm'
p400
sg15
S'tomorrow'
p401
sg17
S'2016-03-11'
p402
sg19
S'ca'
p403
sg21
S'11:10pm'
p404
ssI35
(dp405
g3
S'los angeles'
p406
sg5
S'pacific theatres at the grove'
p407
sg95
S'90036'
p408
sg7
S'10 cloverfield lane'
p409
sg9
S'cc83cb76-8486-4e66-9312-fb298edad424'
p410
sg11
S'ca'
p411
sg13
S'12:05am'
p412
sg15
S'tomorrow'
p413
sg17
S'2016-03-11'
p414
sg19
S'ca'
p415
sg21
S'12:05am'
p416
ssI36
(dp417
g5
S'Beaver Creek Stadium 12'
p418
sg21
S'1:50pm'
p419
sS'price'
p420
S'8'
sg9
S'ad8d559a-4d41-4d5c-b9f1-ff55472f0ccb'
p421
sS'other'
p422
S'matinee'
p423
sg13
S'1:50pm'
p424
sg17
S'2016-03-11'
p425
sg7
S'10 cloverfield lane'
p426
ssI37
(dp427
g5
S'Beaver Creek Stadium 12'
p428
sg21
S'4:30pm'
p429
sg9
S'ad8d559a-4d41-4d5c-b9f1-ff55472f0ccb'
p430
sg13
S'4:30pm'
p431
sg17
S'2016-03-11'
p432
sg7
S'10 cloverfield lane'
p433
ssI38
(dp434
g5
S'Beaver Creek Stadium 12'
p435
sg21
S'7:10pm'
p436
sg9
S'ad8d559a-4d41-4d5c-b9f1-ff55472f0ccb'
p437
sg13
S'7:10pm'
p438
sg17
S'2016-03-11'
p439
sg7
S'10 cloverfield lane'
p440
ssI39
(dp441
g5
S'Beaver Creek Stadium 12'
p442
sg21
S'9:50pm'
p443
sg9
S'ad8d559a-4d41-4d5c-b9f1-ff55472f0ccb'
p444
sg13
S'9:50pm'
p445
sg17
S'2016-03-11'
p446
sg7
S'10 cloverfield lane'
p447
ssI40
(dp448
g3
S'carbondale'
p449
sS'distanceconstraints'
p450
S'vicinity'
p451
sg9
S'16b50661-212b-4a14-ad07-41b64c1039ba'
p452
sS'genre'
p453
S'thriller science fiction'
p454
sg11
S'illinois'
p455
sg15
S'friday'
p456
sg17
S'2016-03-11'
p457
sg19
S'il'
p458
sg7
S'10 cloverfield lane'
p459
ssI41
(dp460
g3
S'Du Quoin'
p461
sS'description'
p462
S'A woman (Mary Elizabeth Winstead) discovers the horrifying truth about the outside world while living in an underground shelter with two men (John Goodman John Gallagher Jr'
p463
sg450
S'vicinity'
p464
sg9
S'5f6222f5-5f3c-49ad-b11f-63d502ef8894'
p465
sg453
S'thriller science fiction'
p466
sg11
S'illinois'
p467
sg15
S'Friday'
p468
sg17
S'2016-03-11'
p469
sg19
S'il'
p470
sg7
S'10 cloverfield lane'
p471
ssI42
(dp472
g9
S'59b87661-a61a-44aa-997e-3aa9fca819e2'
p473
sg3
S'seattle'
p474
sg17
S'2016-03-11'
p475
sg7
S'10 cloverfield lane'
p476
ssI43
(dp477
g3
S'royal oak'
p478
sg9
S'2c5d3d82-ffb3-4737-a2ad-e54d4b5efde5'
p479
sg11
S'mi'
p480
sg15
S'Thursday'
p481
sg17
S'2016-03-10'
p482
sg19
S'mi'
p483
sg7
S'10 cloverfield lane'
p484
ssI44
(dp485
g3
S'Madison Heights'
p486
sg5
S'AMC STAR JOHN R 15 '
p487
sg95
S'48071'
p488
sg7
S'10 cloverfield lane'
p489
sg9
S'2c5d3d82-ffb3-4737-a2ad-e54d4b5efde5'
p490
sg15
S'Thursday'
p491
sg11
S'mi'
p492
sg13
S'7:00pm'
p493
sS'theater_chain'
p494
S'amc'
p495
sg17
S'2016-03-10'
p496
sg19
S'mi'
p497
sg21
S'7:00pm'
p498
ssI45
(dp499
g3
S'Madison Heights'
p500
sg5
S'AMC STAR JOHN R 15 '
p501
sg95
S'48071'
p502
sg7
S'10 cloverfield lane'
p503
sg9
S'2c5d3d82-ffb3-4737-a2ad-e54d4b5efde5'
p504
sg15
S'Thursday'
p505
sg11
S'mi'
p506
sg13
S'9:45pm'
p507
sg494
S'amc'
p508
sg17
S'2016-03-10'
p509
sg19
S'mi'
p510
sg21
S'9:45pm'
p511
ssI46
(dp512
g3
S'Madison Heights'
p513
sg5
S'AMC STAR SOUTHFIELD 20 '
p514
sg95
S'48034'
p515
sg7
S'10 cloverfield lane'
p516
sg9
S'2c5d3d82-ffb3-4737-a2ad-e54d4b5efde5'
p517
sg15
S'Thursday'
p518
sg11
S'mi'
p519
sg13
S'7:00pm'
p520
sg494
S'amc'
p521
sg17
S'2016-03-10'
p522
sg19
S'mi'
p523
sg21
S'7:00pm'
p524
ssI47
(dp525
g9
S'cc576ea5-05ea-4b67-a233-246d1aa1ecd0'
p526
sg17
S'2016-03-24'
p527
sg7
S'batman vs superman'
p528
ssI48
(dp529
g3
S'seattle'
p530
sg5
S'regal meridian sundance cinemas'
p531
sg9
S'738a6a8a-ca2f-4341-bf5d-dbc7ccda14d4'
p532
sg11
S'wa'
p533
sg453
S'drama'
p534
sg17
S'2016-03-08'
p535
sg19
S'wa'
p536
sg7
S'the big short'
p537
ssI49
(dp538
g3
S'seattle'
p539
sg5
S'regal thornton place'
p540
sg9
S'738a6a8a-ca2f-4341-bf5d-dbc7ccda14d4'
p541
sg11
S'wa'
p542
sg453
S'drama'
p543
sg17
S'2016-03-08'
p544
sg19
S'wa'
p545
sg7
S'the big short'
p546
ssI50
(dp547
g3
S'seattle'
p548
sg5
S'regal meridian 16'
p549
sg95
S'98101'
p550
sg7
S'the big short'
p551
sg9
S'2f059cc8-ac3f-4e82-9192-0e8336bd3ba2'
p552
sg453
S'drama'
p553
sg11
S'wa'
p554
sg13
S'8:45pm'
p555
sg15
S'tonight'
p556
sg17
S'2016-03-08'
p557
sg19
S'wa'
p558
sg21
S'8:45pm'
p559
ssI51
(dp560
g3
S'seattle'
p561
sg5
S'regal meridian 16'
p562
sg95
S'98101'
p563
sg7
S'the big short'
p564
sg9
S'3ef9b9d1-9cc2-4fff-a3d1-13ffc8f3bcb9'
p565
sg453
S'drama'
p566
sg11
S'wa'
p567
sg13
S'8:45pm'
p568
sg15
S'tomorrow'
p569
sg17
S'2016-03-09'
p570
sg19
S'wa'
p571
sg21
S'8:45pm'
p572
ssI52
(dp573
g3
S'safeco field'
p574
sg5
S'regal meridian 16'
p575
sg450
S'near'
p576
sg7
S'the big short'
p577
sg9
S'2f059cc8-ac3f-4e82-9192-0e8336bd3ba2'
p578
sg453
S'drama'
p579
sg11
S'wa'
p580
sg13
S'8:45pm'
p581
sg15
S'tonight'
p582
sg17
S'2016-03-08'
p583
sg19
S'wa'
p584
sg21
S'8:45pm'
p585
ssI53
(dp586
g5
S'Regency Academy 6'
p587
sg7
S'creed'
p588
sg9
S'98687258-793e-4711-ab88-3b03ec57415f'
p589
sg13
S'1:00pm'
p590
sg15
S'tomorrow'
p591
sg17
S'2016-03-09'
p592
sg21
S'1:00pm'
p593
ssI54
(dp594
g3
S'LA'
p595
sg5
S'pacific sherman oaks 5'
p596
sg7
S'creed'
p597
sg9
S'a20c3906-0ebb-4830-967f-467b3444ca2e'
p598
sS'video_format'
p599
S'2d'
p600
sg13
S'705pm'
p601
sg15
S'tomorrow'
p602
sg17
S'2016-03-11'
p603
sg21
S'7:05pm'
p604
ssI55
(dp605
g3
S'LA'
p606
sg5
S'AMC La Mirada'
p607
sg7
S'creed'
p608
sg9
S'a20c3906-0ebb-4830-967f-467b3444ca2e'
p609
sg599
S'2d'
p610
sg13
S'635pm'
p611
sg15
S'tomorrow'
p612
sg494
S'AMC'
p613
sg17
S'2016-03-11'
p614
sg21
S'6:35pm'
p615
ssI56
(dp616
g3
S'seattle'
p617
sS'critic_rating'
p618
S'top'
p619
sg9
S'6b3f4c5a-9c02-4c4a-995c-713fdc7d5e42'
p620
sg15
S'last weekend'
p621
sg453
S'action'
p622
sg17
S'2016-03-05'
p623
sg7
S'deadpool'
p624
ssI57
(dp625
g3
S'seattle'
p626
sg5
S'amc pacific place 11'
p627
sg7
S'deadpool'
p628
sg618
S'84 percent'
p629
sg9
S'ae80d86b-8740-4690-98ed-ceed290046e6'
p630
sg15
S'tomorrow'
p631
sg422
S'rotten tomatoes'
p632
sg13
S'9:00pm'
p633
sg494
S'amc'
p634
sg453
S'action'
p635
sg21
S'9:00pm'
p636
sg17
S'2016-03-09'
p637
ssI58
(dp638
g3
S'seattle'
p639
sg5
S'amc pacific place 11'
p640
sg7
S'deadpool'
p641
sg618
S'84 percent'
p642
sS'actor'
p643
S'ryan reynolds'
p644
sg9
S'67cfcebf-3e8a-47e4-83e8-a8da18661475'
p645
sg15
S'tomorrow'
p646
sg422
S'rotten tomatoes'
p647
sg13
S'10:00pm'
p648
sg494
S'amc'
p649
sg453
S'action'
p650
sg21
S'10:00pm'
p651
sg17
S'2016-03-09'
p652
ssI59
(dp653
g3
S'bayou vista'
p654
sg9
S'af16c2d9-5c90-447f-ab2d-a4412acbfd45'
p655
sg11
S'la'
p656
sg15
S'this weekend'
p657
sg17
S'2016-03-12'
p658
sg19
S'la'
p659
sg7
S'deadpool'
p660
ssI60
(dp661
g9
S'af16c2d9-5c90-447f-ab2d-a4412acbfd45'
p662
sg5
S'Fairview Cinema'
p663
sg7
S'deadpool'
p664
sg19
S'la'
p665
sg11
S'la'
p666
sg13
S'7pm'
p667
sg15
S'Thursday'
p668
sg17
S'2016-03-10'
p669
sg21
S'7:00pm'
p670
ssI61
(dp671
g3
S'seattle'
p672
sg5
S'AMC PACIFIC PLACE 11'
p673
sg95
S'98101'
p674
sg7
S'deadpool'
p675
sg9
S'be39025e-dcc1-4093-a1aa-e7f242216c06'
p676
sg11
S'wa'
p677
sg13
S'6:10pm'
p678
sg15
S'tonight'
p679
sg17
S'2016-03-08'
p680
sg19
S'wa'
p681
sg21
S'6:10pm'
p682
ssI62
(dp683
g3
S'seattle'
p684
sg5
S'AMC PACIFIC PLACE 11'
p685
sg95
S'98101'
p686
sg7
S'deadpool'
p687
sg9
S'be39025e-dcc1-4093-a1aa-e7f242216c06'
p688
sg15
S'tonight'
p689
sg11
S'wa'
p690
sg13
S'7:20pm'
p691
sg494
S'amc'
p692
sg17
S'2016-03-08'
p693
sg19
S'wa'
p694
sg21
S'7:20pm'
p695
ssI63
(dp696
g3
S'seattle'
p697
sg5
S'AMC PACIFIC PLACE 11'
p698
sg95
S'98101'
p699
sg7
S'deadpool'
p700
sg9
S'be39025e-dcc1-4093-a1aa-e7f242216c06'
p701
sg15
S'tonight'
p702
sg11
S'wa'
p703
sg13
S'8:15pm'
p704
sg494
S'amc'
p705
sg17
S'2016-03-08'
p706
sg19
S'wa'
p707
sg21
S'8:15pm'
p708
ssI64
(dp709
g3
S'seattle'
p710
sg5
S'AMC PACIFIC PLACE 11'
p711
sg95
S'98101'
p712
sg7
S'deadpool'
p713
sg9
S'be39025e-dcc1-4093-a1aa-e7f242216c06'
p714
sg15
S'tonight'
p715
sg11
S'wa'
p716
sg13
S'9:00pm'
p717
sg494
S'amc'
p718
sg17
S'2016-03-08'
p719
sg19
S'wa'
p720
sg21
S'9:00pm'
p721
ssI65
(dp722
g3
S'seattle'
p723
sg5
S'AMC PACIFIC PLACE 11'
p724
sg95
S'98101'
p725
sg7
S'deadpool'
p726
sg9
S'be39025e-dcc1-4093-a1aa-e7f242216c06'
p727
sg15
S'tonight'
p728
sg11
S'wa'
p729
sg13
S'10:00pm'
p730
sg494
S'amc'
p731
sg17
S'2016-03-08'
p732
sg19
S'wa'
p733
sg21
S'10:00pm'
p734
ssI66
(dp735
g3
S'Bellevue'
p736
sg5
S'BELLEVUE LINCOLN SQUARE CINEMAS'
p737
sg95
S'98004'
p738
sg7
S'deadpool'
p739
sg9
S'be39025e-dcc1-4093-a1aa-e7f242216c06'
p740
sg11
S'wa'
p741
sg13
S'6:25pm'
p742
sg15
S'tonight'
p743
sg17
S'2016-03-08'
p744
sg19
S'wa'
p745
sg21
S'6:25pm'
p746
ssI67
(dp747
g3
S'Bellevue'
p748
sg5
S'BELLEVUE LINCOLN SQUARE CINEMAS'
p749
sg95
S'98004'
p750
sg7
S'deadpool'
p751
sg9
S'be39025e-dcc1-4093-a1aa-e7f242216c06'
p752
sg11
S'wa'
p753
sg13
S'7:25pm'
p754
sg15
S'tonight'
p755
sg17
S'2016-03-08'
p756
sg19
S'wa'
p757
sg21
S'7:25pm'
p758
ssI68
(dp759
g3
S'Bellevue'
p760
sg5
S'BELLEVUE LINCOLN SQUARE CINEMAS'
p761
sg95
S'98004'
p762
sg7
S'deadpool'
p763
sg9
S'be39025e-dcc1-4093-a1aa-e7f242216c06'
p764
sg11
S'wa'
p765
sg13
S'9:20pm'
p766
sg15
S'tonight'
p767
sg17
S'2016-03-08'
p768
sg19
S'wa'
p769
sg21
S'9:20pm'
p770
ssI69
(dp771
g3
S'Bellevue'
p772
sg5
S'BELLEVUE LINCOLN SQUARE CINEMAS'
p773
sg95
S'98004'
p774
sg7
S'deadpool'
p775
sg9
S'be39025e-dcc1-4093-a1aa-e7f242216c06'
p776
sg11
S'wa'
p777
sg13
S'10:20pm'
p778
sg15
S'tonight'
p779
sg17
S'2016-03-08'
p780
sg19
S'wa'
p781
sg21
S'10:20pm'
p782
ssI70
(dp783
g3
S'seattle'
p784
sg5
S'big picture seattle'
p785
sg95
S'98121'
p786
sg9
S'be39025e-dcc1-4093-a1aa-e7f242216c06'
p787
sg11
S'wa'
p788
sg15
S'tonight'
p789
sg17
S'2016-03-08'
p790
sg19
S'wa'
p791
sg7
S'deadpool'
p792
ssI71
(dp793
g3
S'Buford'
p794
sg9
S'f4a2dcbe-8860-45ba-93f6-229b59a091fe'
p795
sg453
S'comedy'
p796
sg11
S'Georgia'
p797
sg15
S'friday'
p798
sg17
S'2016-03-11'
p799
sg19
S'ga'
p800
sg7
S'deadpool'
p801
ssI72
(dp802
g3
S'philadelphia'
p803
sg5
S'The Pearl Theatre'
p804
sg95
S'19121'
p805
sg7
S'deadpool'
p806
sg9
S'20e83af6-12cf-446a-bad1-9c6d57817b70'
p807
sg11
S'pa'
p808
sg13
S'7:30PM'
p809
sg15
S'tomorrow'
p810
sg17
S'2016-03-09'
p811
sg19
S'pa'
p812
sg21
S'7:30pm'
p813
ssI73
(dp814
g3
S'philadelphia'
p815
sg95
S'19101'
p816
sg450
S'near'
p817
sg7
S'deadpool'
p818
sg9
S'20e83af6-12cf-446a-bad1-9c6d57817b70'
p819
sg11
S'pa'
p820
sg13
S'1:30pm'
p821
sg15
S'tomorrow'
p822
sg17
S'2016-03-09'
p823
sg19
S'pa'
p824
sg21
S'1:30pm'
p825
ssI74
(dp826
g3
S'philadelphia'
p827
sg95
S'19101'
p828
sg450
S'near'
p829
sg7
S'deadpool'
p830
sg9
S'20e83af6-12cf-446a-bad1-9c6d57817b70'
p831
sg11
S'pa'
p832
sg13
S'4:30pm'
p833
sg15
S'tomorrow'
p834
sg17
S'2016-03-09'
p835
sg19
S'pa'
p836
sg21
S'4:30pm'
p837
ssI75
(dp838
g3
S'philadelphia'
p839
sg95
S'19101'
p840
sg450
S'near'
p841
sg7
S'deadpool'
p842
sg9
S'20e83af6-12cf-446a-bad1-9c6d57817b70'
p843
sg11
S'pa'
p844
sg13
S'10:00pm'
p845
sg15
S'tomorrow'
p846
sg17
S'2016-03-09'
p847
sg19
S'pa'
p848
sg21
S'10:00pm'
p849
ssI76
(dp850
g3
S'Carbondale'
p851
sg5
S'AMC SHOWPLACE CARBONDALE'
p852
sg95
S'62901'
p853
sg7
S'deadpool'
p854
sg9
S'1d8ee5b9-a286-4d05-945f-0630ec785e0a'
p855
sg15
S'tomorrow'
p856
sg11
S'illinois'
p857
sg13
S'2:30pm'
p858
sg494
S'amc'
p859
sg17
S'2016-03-09'
p860
sg19
S'il'
p861
sg21
S'2:30pm'
p862
ssI77
(dp863
g3
S'Carbondale'
p864
sg5
S'AMC SHOWPLACE CARBONDALE'
p865
sg95
S'62901'
p866
sg7
S'deadpool'
p867
sg9
S'1d8ee5b9-a286-4d05-945f-0630ec785e0a'
p868
sg15
S'tomorrow'
p869
sg11
S'illinois'
p870
sg13
S'5:10pm'
p871
sg494
S'amc'
p872
sg17
S'2016-03-09'
p873
sg19
S'il'
p874
sg21
S'5:10pm'
p875
ssI78
(dp876
g3
S'Carbondale'
p877
sg5
S'AMC SHOWPLACE CARBONDALE'
p878
sg95
S'62901'
p879
sg7
S'deadpool'
p880
sg9
S'1d8ee5b9-a286-4d05-945f-0630ec785e0a'
p881
sg15
S'tomorrow'
p882
sg11
S'illinois'
p883
sg13
S'7:45pm'
p884
sg494
S'amc'
p885
sg17
S'2016-03-09'
p886
sg19
S'il'
p887
sg21
S'7:45pm'
p888
ssI79
(dp889
g3
S'Carbondale'
p890
sg5
S' AMC UNIVERSITY PLACE 8'
p891
sg95
S'62901'
p892
sg7
S'deadpool'
p893
sg9
S'1d8ee5b9-a286-4d05-945f-0630ec785e0a'
p894
sg15
S'tomorrow'
p895
sg11
S'illinois'
p896
sg13
S'4:40pm'
p897
sg494
S'amc'
p898
sg17
S'2016-03-09'
p899
sg19
S'il'
p900
sg21
S'4:40pm'
p901
ssI80
(dp902
g3
S'Carbondale'
p903
sg5
S' AMC UNIVERSITY PLACE 8'
p904
sg95
S'62901'
p905
sg7
S'deadpool'
p906
sg9
S'1d8ee5b9-a286-4d05-945f-0630ec785e0a'
p907
sg15
S'tomorrow'
p908
sg11
S'illinois'
p909
sg13
S'7:15pm'
p910
sg494
S'amc'
p911
sg17
S'2016-03-09'
p912
sg19
S'il'
p913
sg21
S'7:15pm'
p914
ssI81
(dp915
g5
S'amc pacific place 11'
p916
sg95
S'98119'
p917
sg450
S'near'
p918
sg7
S'deadpool'
p919
sg9
S'e3f1dba2-09df-4b0f-a111-f6abce6299f7'
p920
sg15
S'tonight'
p921
sg13
S'8:15pm'
p922
sg494
S'amc'
p923
sg17
S'2016-03-08'
p924
sg21
S'8:15pm'
p925
ssI82
(dp926
g3
S'birmingham'
p927
sg5
S'Carmike Summit 16'
p928
sg95
S'35243'
p929
sg450
S'near'
p930
sg7
S'deadpool'
p931
sg9
S'fcc562b3-1818-4c9c-a92e-0f2e054f5275'
p932
sg453
S'comedy'
p933
sg11
S'al'
p934
sg13
S'4:20pm'
p935
sg15
S'tonight'
p936
sg17
S'2016-03-09'
p937
sg19
S'al'
p938
sg21
S'4:20pm'
p939
ssI83
(dp940
g3
S'birmingham'
p941
sg5
S'Carmike Summit 16'
p942
sg95
S'35243'
p943
sg450
S'near'
p944
sg7
S'deadpool'
p945
sg9
S'fcc562b3-1818-4c9c-a92e-0f2e054f5275'
p946
sg453
S'comedy'
p947
sg11
S'al'
p948
sg13
S'2:20'
p949
sg15
S'tonight'
p950
sg17
S'2016-03-09'
p951
sg19
S'al'
p952
sg21
S'2:20pm'
p953
ssI84
(dp954
g3
S'birmingham'
p955
sg5
S'Carmike Summit 16'
p956
sg95
S'35243'
p957
sg450
S'near'
p958
sg7
S'deadpool'
p959
sg9
S'd8f82c80-c552-4594-a232-2d6c46ef3fb6'
p960
sg453
S'comedy'
p961
sg11
S'al'
p962
sg13
S'2:20'
p963
sg15
S'tonight'
p964
sg17
S'2016-03-12'
p965
sg19
S'al'
p966
sg21
S'2:20pm'
p967
ssI85
(dp968
g3
S'birmingham'
p969
sg5
S'Carmike Summit 16'
p970
sg95
S'35243'
p971
sg7
S'deadpool'
p972
sg9
S'b93933b4-90ba-4750-b17f-270e6af7d273'
p973
sg11
S'al'
p974
sg13
S'7:20pm'
p975
sg15
S'tomorrow'
p976
sg17
S'2016-03-10'
p977
sg19
S'al'
p978
sg21
S'7:20pm'
p979
ssI86
(dp980
g3
S'birmingham'
p981
sg5
S'Carmike Summit 16'
p982
sg95
S'35243'
p983
sg7
S'deadpool'
p984
sg9
S'b93933b4-90ba-4750-b17f-270e6af7d273'
p985
sg11
S'al'
p986
sg13
S'4:20pm'
p987
sg15
S'tomorrow'
p988
sg17
S'2016-03-10'
p989
sg19
S'al'
p990
sg21
S'4:20pm'
p991
ssI87
(dp992
g3
S'birmingham'
p993
sg5
S'Carmike Summit 16'
p994
sg95
S'35243'
p995
sg7
S'deadpool'
p996
sg9
S'b93933b4-90ba-4750-b17f-270e6af7d273'
p997
sg11
S'al'
p998
sg13
S'2:05pm'
p999
sg15
S'Sunday'
p1000
sg17
S'2016-03-13'
p1001
sg19
S'al'
p1002
sg21
S'2:05pm'
p1003
ssI88
(dp1004
g3
S'seattle'
p1005
sg5
S'AMC PACIFIC PLACE 11'
p1006
sg95
S'98101'
p1007
sg7
S'deadpool'
p1008
sg9
S'c8c80c17-df18-4b43-a7fd-b3c5477d88d1'
p1009
sg15
S'friday'
p1010
sg11
S'wa'
p1011
sg13
S'8:10pm'
p1012
sg494
S'amc'
p1013
sg17
S'2016-03-11'
p1014
sg19
S'wa'
p1015
sg21
S'8:10pm'
p1016
ssI89
(dp1017
g3
S'Johnstown'
p1018
sg5
S'RICHLAND CINEMAS'
p1019
sg7
S'deadpool'
p1020
sg9
S'0a5ff2f0-1385-4c4e-95f6-9ebe4be9390c'
p1021
sg11
S'Pennsylvania'
p1022
sg13
S'7:20PM'
p1023
sg15
S'tomorrow'
p1024
sg17
S'2016-03-09'
p1025
sg19
S'pa'
p1026
sg21
S'7:20pm'
p1027
ssI90
(dp1028
g3
S'Johnstown'
p1029
sg5
S'RICHLAND CINEMAS'
p1030
sg7
S'deadpool'
p1031
sg9
S'0a5ff2f0-1385-4c4e-95f6-9ebe4be9390c'
p1032
sg11
S'Pennsylvania'
p1033
sg13
S'9:50 PM '
p1034
sg17
S'2016-03-09'
p1035
sg19
S'pa'
p1036
sg21
S'9:50pm'
p1037
ssI91
(dp1038
g3
S'seattle'
p1039
sg5
S'Big Picture'
p1040
sg7
S'deadpool'
p1041
sg9
S'e039dadc-92e0-4a01-b45e-fb1dd240ae18'
p1042
sg11
S'wa'
p1043
sg13
S'6pm'
p1044
sg15
S'today'
p1045
sg17
S'2016-03-09'
p1046
sg19
S'wa'
p1047
sg21
S'6:00pm'
p1048
ssI92
(dp1049
g3
S'seattle'
p1050
sg5
S'Big Picture'
p1051
sg7
S'deadpool'
p1052
sg9
S'e039dadc-92e0-4a01-b45e-fb1dd240ae18'
p1053
sg11
S'wa'
p1054
sg13
S'8:30pm'
p1055
sg15
S'today'
p1056
sg17
S'2016-03-09'
p1057
sg19
S'wa'
p1058
sg21
S'8:30pm'
p1059
ssI93
(dp1060
g3
S'royal oak'
p1061
sg5
S'emagine theater'
p1062
sg7
S'deadpool'
p1063
sg9
S'2309641d-29e3-469a-8fcc-e5d2b92c636f'
p1064
sg11
S'mi'
p1065
sg13
S'10:05am'
p1066
sg15
S'Friday'
p1067
sg17
S'2016-03-11'
p1068
sg19
S'mi'
p1069
sg21
S'10:05am'
p1070
ssI94
(dp1071
g3
S'royal oak'
p1072
sg5
S'emagine theater'
p1073
sg7
S'deadpool'
p1074
sg9
S'2309641d-29e3-469a-8fcc-e5d2b92c636f'
p1075
sg11
S'mi'
p1076
sg13
S'12:30pm'
p1077
sg15
S'Friday'
p1078
sg17
S'2016-03-11'
p1079
sg19
S'mi'
p1080
sg21
S'12:30pm'
p1081
ssI95
(dp1082
g3
S'royal oak'
p1083
sg5
S'emagine theater'
p1084
sg7
S'deadpool'
p1085
sg9
S'2309641d-29e3-469a-8fcc-e5d2b92c636f'
p1086
sg11
S'mi'
p1087
sg13
S'2:55pm'
p1088
sg15
S'Friday'
p1089
sg17
S'2016-03-11'
p1090
sg19
S'mi'
p1091
sg21
S'2:55pm'
p1092
ssI96
(dp1093
g3
S'royal oak'
p1094
sg5
S'emagine theater'
p1095
sg7
S'deadpool'
p1096
sg9
S'2309641d-29e3-469a-8fcc-e5d2b92c636f'
p1097
sg11
S'mi'
p1098
sg13
S'5:30pm'
p1099
sg15
S'Friday'
p1100
sg17
S'2016-03-11'
p1101
sg19
S'mi'
p1102
sg21
S'5:30pm'
p1103
ssI97
(dp1104
g3
S'royal oak'
p1105
sg5
S'emagine theater'
p1106
sg7
S'deadpool'
p1107
sg9
S'2309641d-29e3-469a-8fcc-e5d2b92c636f'
p1108
sg11
S'mi'
p1109
sg13
S'8:00pm'
p1110
sg15
S'Friday'
p1111
sg17
S'2016-03-11'
p1112
sg19
S'mi'
p1113
sg21
S'8:00pm'
p1114
ssI98
(dp1115
g3
S'royal oak'
p1116
sg5
S'emagine theater'
p1117
sg7
S'deadpool'
p1118
sg9
S'2309641d-29e3-469a-8fcc-e5d2b92c636f'
p1119
sg11
S'mi'
p1120
sg13
S'10:40pm'
p1121
sg15
S'Friday'
p1122
sg17
S'2016-03-11'
p1123
sg19
S'mi'
p1124
sg21
S'10:40pm'
p1125
ssI99
(dp1126
g3
S'Madison Heights'
p1127
sg5
S'AMC STAR JOHN R 15'
p1128
sg95
S'48071'
p1129
sg7
S'deadpool'
p1130
sg9
S'2309641d-29e3-469a-8fcc-e5d2b92c636f'
p1131
sg11
S'mi'
p1132
sg13
S'11:40am'
p1133
sg15
S'Friday'
p1134
sg17
S'2016-03-11'
p1135
sg19
S'mi'
p1136
sg21
S'11:40am'
p1137
ssI100
(dp1138
g3
S'Madison Heights'
p1139
sg5
S'AMC STAR JOHN R 15'
p1140
sg95
S'48071'
p1141
sg7
S'deadpool'
p1142
sg9
S'2309641d-29e3-469a-8fcc-e5d2b92c636f'
p1143
sg11
S'mi'
p1144
sg13
S'2:30pm'
p1145
sg15
S'Friday'
p1146
sg17
S'2016-03-11'
p1147
sg19
S'mi'
p1148
sg21
S'2:30pm'
p1149
ssI101
(dp1150
g3
S'Madison Heights'
p1151
sg5
S'AMC STAR JOHN R 15'
p1152
sg95
S'48071'
p1153
sg7
S'deadpool'
p1154
sg9
S'2309641d-29e3-469a-8fcc-e5d2b92c636f'
p1155
sg11
S'mi'
p1156
sg13
S'4:35pm'
p1157
sg15
S'Friday'
p1158
sg17
S'2016-03-11'
p1159
sg19
S'mi'
p1160
sg21
S'4:35pm'
p1161
ssI102
(dp1162
g3
S'Madison Heights'
p1163
sg5
S'AMC STAR JOHN R 15'
p1164
sg95
S'48071'
p1165
sg7
S'deadpool'
p1166
sg9
S'2309641d-29e3-469a-8fcc-e5d2b92c636f'
p1167
sg11
S'mi'
p1168
sg13
S'5:10pm'
p1169
sg15
S'Friday'
p1170
sg17
S'2016-03-11'
p1171
sg19
S'mi'
p1172
sg21
S'5:10pm'
p1173
ssI103
(dp1174
g3
S'Madison Heights'
p1175
sg5
S'AMC STAR JOHN R 15'
p1176
sg95
S'48071'
p1177
sg7
S'deadpool'
p1178
sg9
S'2309641d-29e3-469a-8fcc-e5d2b92c636f'
p1179
sg11
S'mi'
p1180
sg13
S'7:15pm'
p1181
sg15
S'Friday'
p1182
sg17
S'2016-03-11'
p1183
sg19
S'mi'
p1184
sg21
S'7:15pm'
p1185
ssI104
(dp1186
g3
S'Madison Heights'
p1187
sg5
S'AMC STAR JOHN R 15'
p1188
sg95
S'48071'
p1189
sg7
S'deadpool'
p1190
sg9
S'2309641d-29e3-469a-8fcc-e5d2b92c636f'
p1191
sg11
S'mi'
p1192
sg13
S'8:00pm'
p1193
sg15
S'Friday'
p1194
sg17
S'2016-03-11'
p1195
sg19
S'mi'
p1196
sg21
S'8:00pm'
p1197
ssI105
(dp1198
g3
S'Madison Heights'
p1199
sg5
S'AMC STAR JOHN R 15'
p1200
sg95
S'48071'
p1201
sg7
S'deadpool'
p1202
sg9
S'2309641d-29e3-469a-8fcc-e5d2b92c636f'
p1203
sg11
S'mi'
p1204
sg13
S'10:00pm'
p1205
sg15
S'Friday'
p1206
sg17
S'2016-03-11'
p1207
sg19
S'mi'
p1208
sg21
S'10:00pm'
p1209
ssI106
(dp1210
g3
S'Madison Heights'
p1211
sg5
S'AMC STAR JOHN R 15'
p1212
sg95
S'48071'
p1213
sg7
S'deadpool'
p1214
sg9
S'2309641d-29e3-469a-8fcc-e5d2b92c636f'
p1215
sg11
S'mi'
p1216
sg13
S'10:45pm'
p1217
sg15
S'Friday'
p1218
sg17
S'2016-03-11'
p1219
sg19
S'mi'
p1220
sg21
S'10:45pm'
p1221
ssI107
(dp1222
g3
S'arlington'
p1223
sg5
S'Cinemark Tinseltown 9'
p1224
sg7
S'deadpool'
p1225
sg9
S'1fc2880b-9531-4d01-ab68-62ae9dbaf1d9'
p1226
sg11
S'texas'
p1227
sg13
S'10:05'
p1228
sg15
S'tonight'
p1229
sg17
S'2016-03-11'
p1230
sg19
S'tx'
p1231
sg21
S'10:05pm'
p1232
ssI108
(dp1233
g3
S'boston'
p1234
sg5
S'AMC LOEWS BOSTON COMMON 19'
p1235
sg95
S'02111'
p1236
sg7
S'deadpool'
p1237
sg9
S'e62adbee-1280-4847-9a98-426846b76d7e'
p1238
sg15
S'saturday'
p1239
sg11
S'MA'
p1240
sg13
S'8:20'
p1241
sg494
S'AMC'
p1242
sg17
S'2016-03-12'
p1243
sg19
S'ma'
p1244
sg21
S'8:20pm'
p1245
ssI109
(dp1246
g3
S'los angeles'
p1247
sg5
S'Pacific Theatres'
p1248
sg7
S'deadpool'
p1249
sg9
S'be64db44-edeb-4e54-9670-320abb7ccd3b'
p1250
sg11
S'ca'
p1251
sg13
S'8:05'
p1252
sg15
S'tomorrow'
p1253
sg17
S'2016-03-11'
p1254
sg19
S'ca'
p1255
sg21
S'8:05pm'
p1256
ssI110
(dp1257
g3
S'visalia'
p1258
sg5
S'Regal Visalia Stadium 10'
p1259
sg9
S'76522eb0-22e3-444d-90cc-6d6802bb1b48'
p1260
sg11
S'ca'
p1261
sg17
S'2016-03-10'
p1262
sg19
S'ca'
p1263
sg7
S'deadpool'
p1264
ssI111
(dp1265
g3
S'Evanston'
p1266
sg5
S'CENTURY 12 EVANSTON/CIN\xc3\x83\xe2\x80\xb0ARTS 6'
p1267
sg7
S'deadpool'
p1268
sg95
S'60201'
p1269
sg618
S'top rated'
p1270
sg9
S'856c5979-404f-4bc3-9b1c-92c49131022e'
p1271
sg11
S'IL'
p1272
sg13
S'10:45am'
p1273
sg15
S'tomorrow'
p1274
sg17
S'2016-03-10'
p1275
sg19
S'IL'
p1276
sg21
S'10:45am'
p1277
ssI112
(dp1278
g3
S'Evanston'
p1279
sg5
S'CENTURY 12 EVANSTON/CIN\xc3\x83\xe2\x80\xb0ARTS 6'
p1280
sg7
S'deadpool'
p1281
sg95
S'60201'
p1282
sg618
S'top rated'
p1283
sg9
S'856c5979-404f-4bc3-9b1c-92c49131022e'
p1284
sg11
S'IL'
p1285
sg13
S'12:00pm'
p1286
sg15
S'tomorrow'
p1287
sg17
S'2016-03-10'
p1288
sg19
S'IL'
p1289
sg21
S'12:00pm'
p1290
ssI113
(dp1291
g3
S'Evanston'
p1292
sg5
S'CENTURY 12 EVANSTON/CIN\xc3\x83\xe2\x80\xb0ARTS 6'
p1293
sg7
S'deadpool'
p1294
sg95
S'60201'
p1295
sg618
S'top rated'
p1296
sg9
S'856c5979-404f-4bc3-9b1c-92c49131022e'
p1297
sg11
S'IL'
p1298
sg13
S'2:40pm'
p1299
sg15
S'tomorrow'
p1300
sg17
S'2016-03-10'
p1301
sg19
S'IL'
p1302
sg21
S'2:40pm'
p1303
ssI114
(dp1304
g3
S'Evanston'
p1305
sg5
S'CENTURY 12 EVANSTON/CIN\xc3\x83\xe2\x80\xb0ARTS 6'
p1306
sg7
S'deadpool'
p1307
sg95
S'60201'
p1308
sg618
S'top rated'
p1309
sg9
S'856c5979-404f-4bc3-9b1c-92c49131022e'
p1310
sg11
S'IL'
p1311
sg13
S'4:05pm'
p1312
sg15
S'tomorrow'
p1313
sg17
S'2016-03-10'
p1314
sg19
S'IL'
p1315
sg21
S'4:05pm'
p1316
ssI115
(dp1317
g3
S'Evanston'
p1318
sg5
S'CENTURY 12 EVANSTON/CIN\xc3\x83\xe2\x80\xb0ARTS 6'
p1319
sg7
S'deadpool'
p1320
sg95
S'60201'
p1321
sg618
S'top rated'
p1322
sg9
S'856c5979-404f-4bc3-9b1c-92c49131022e'
p1323
sg11
S'IL'
p1324
sg13
S'5:20pm'
p1325
sg15
S'tomorrow'
p1326
sg17
S'2016-03-10'
p1327
sg19
S'IL'
p1328
sg21
S'5:20pm'
p1329
ssI116
(dp1330
g3
S'Evanston'
p1331
sg5
S'CENTURY 12 EVANSTON/CIN\xc3\x83\xe2\x80\xb0ARTS 6'
p1332
sg7
S'deadpool'
p1333
sg95
S'60201'
p1334
sg618
S'top rated'
p1335
sg9
S'856c5979-404f-4bc3-9b1c-92c49131022e'
p1336
sg11
S'IL'
p1337
sg13
S'8:00pm'
p1338
sg15
S'tomorrow'
p1339
sg17
S'2016-03-10'
p1340
sg19
S'IL'
p1341
sg21
S'8:00pm'
p1342
ssI117
(dp1343
g3
S'Evanston'
p1344
sg5
S'CENTURY 12 EVANSTON/CIN\xc3\x83\xe2\x80\xb0ARTS 6'
p1345
sg7
S'deadpool'
p1346
sg95
S'60201'
p1347
sg618
S'top rated'
p1348
sg9
S'856c5979-404f-4bc3-9b1c-92c49131022e'
p1349
sg11
S'IL'
p1350
sg13
S'10:40pm'
p1351
sg15
S'tomorrow'
p1352
sg17
S'2016-03-10'
p1353
sg19
S'IL'
p1354
sg21
S'10:40pm'
p1355
ssI118
(dp1356
g3
S'Clear Lake'
p1357
sg5
S'lake theater'
p1358
sg7
S'deadpool'
p1359
sg9
S'53e4b4b4-0b55-46f2-bcb5-2000eba844e3'
p1360
sg453
S'action'
p1361
sg11
S'IA'
p1362
sg13
S'7pm'
p1363
sg15
S'tomorrow'
p1364
sg17
S'2016-03-11'
p1365
sg19
S'IA'
p1366
sg21
S'7:00pm'
p1367
ssI119
(dp1368
g3
S'Mason city'
p1369
sg5
S'Cinema West'
p1370
sg7
S'deadpool'
p1371
sg9
S'53e4b4b4-0b55-46f2-bcb5-2000eba844e3'
p1372
sg11
S'IA'
p1373
sg13
S'6:40pm'
p1374
sg15
S'tonight'
p1375
sg17
S'2016-03-10'
p1376
sg19
S'IA'
p1377
sg21
S'6:40pm'
p1378
ssI120
(dp1379
g3
S'dallas'
p1380
sg5
S'alamo draft house'
p1381
sg7
S'deadpool'
p1382
sg9
S'6d3768b4-4b95-4000-864f-9fdf328d7aa4'
p1383
sg11
S'tx'
p1384
sg13
S'5pm'
p1385
sg15
S'tonight'
p1386
sg17
S'2016-03-10'
p1387
sg19
S'tx'
p1388
sg21
S'5:00pm'
p1389
ssI121
(dp1390
g3
S'dallas'
p1391
sg5
S'alamo draft house'
p1392
sg7
S'deadpool'
p1393
sg9
S'6d3768b4-4b95-4000-864f-9fdf328d7aa4'
p1394
sg11
S'tx'
p1395
sg13
S'7:55pm'
p1396
sg15
S'tonight'
p1397
sg17
S'2016-03-10'
p1398
sg19
S'tx'
p1399
sg21
S'7:55pm'
p1400
ssI122
(dp1401
g3
S'dallas'
p1402
sg5
S'alamo draft house'
p1403
sg7
S'deadpool'
p1404
sg9
S'6d3768b4-4b95-4000-864f-9fdf328d7aa4'
p1405
sg11
S'tx'
p1406
sg13
S'10:15pm'
p1407
sg15
S'tonight'
p1408
sg17
S'2016-03-10'
p1409
sg19
S'tx'
p1410
sg21
S'10:15pm'
p1411
ssI123
(dp1412
g3
S'Los Angeles'
p1413
sg5
S'regal live stadium 14'
p1414
sg95
S'90015'
p1415
sg7
S'deadpool'
p1416
sg9
S'da21c48d-026d-478f-b297-73dcca348f8f'
p1417
sg11
S'ca'
p1418
sg13
S'8 pm'
p1419
sg15
S'tomorrow'
p1420
sg17
S'2016-03-11'
p1421
sg19
S'ca'
p1422
sg21
S'8:00pm'
p1423
ssI124
(dp1424
g3
S'hamilton'
p1425
sg5
S'AMC Hamilton 24'
p1426
sg7
S'deadpool'
p1427
sg9
S'8189a79a-0d4e-4851-a370-0464f9e41c07'
p1428
sg15
S'tomorrow'
p1429
sg11
S'nj'
p1430
sg13
S'7:05'
p1431
sg494
S'amc'
p1432
sg17
S'2016-03-10'
p1433
sg19
S'nj'
p1434
sg21
S'7:05pm'
p1435
ssI125
(dp1436
g3
S'Detroit'
p1437
sg5
S'amc star fairlane 21'
p1438
sg7
S'deadpool'
p1439
sg9
S'bd652411-9467-4c1c-8408-931af12211dd'
p1440
sg15
S'tomorrow'
p1441
sg11
S'mi'
p1442
sg13
S'7:05'
p1443
sg494
S'amc'
p1444
sg17
S'2016-03-11'
p1445
sg19
S'mi'
p1446
sg21
S'7:05'
p1447
ssI126
(dp1448
g3
S'los angeles'
p1449
sg5
S'regal la live stadium 14'
p1450
sg7
S'deadpool'
p1451
sg9
S'3c9085d6-3595-4569-a53a-713ab9f2c333'
p1452
sg15
S'saturday'
p1453
sg11
S'ca'
p1454
sg13
S'12:00pm'
p1455
sg494
S'amc'
p1456
sg17
S'2016-03-12'
p1457
sg19
S'ca'
p1458
sg21
S'12:00pm'
p1459
ssI127
(dp1460
g3
S'los angeles'
p1461
sg5
S'regal la live stadium 14'
p1462
sg7
S'deadpool'
p1463
sg9
S'3c9085d6-3595-4569-a53a-713ab9f2c333'
p1464
sg15
S'saturday'
p1465
sg11
S'ca'
p1466
sg13
S'1:00pm'
p1467
sg494
S'amc'
p1468
sg17
S'2016-03-12'
p1469
sg19
S'ca'
p1470
sg21
S'1:00pm'
p1471
ssI128
(dp1472
g3
S'los angeles'
p1473
sg5
S'regal la live stadium 14'
p1474
sg7
S'deadpool'
p1475
sg9
S'3c9085d6-3595-4569-a53a-713ab9f2c333'
p1476
sg15
S'saturday'
p1477
sg11
S'ca'
p1478
sg13
S'3:00pm'
p1479
sg494
S'amc'
p1480
sg17
S'2016-03-12'
p1481
sg19
S'ca'
p1482
sg21
S'3:00pm'
p1483
ssI129
(dp1484
g3
S'los angeles'
p1485
sg5
S'regal la live stadium 14'
p1486
sg7
S'deadpool'
p1487
sg9
S'3c9085d6-3595-4569-a53a-713ab9f2c333'
p1488
sg15
S'saturday'
p1489
sg11
S'ca'
p1490
sg13
S'6:00pm'
p1491
sg494
S'amc'
p1492
sg17
S'2016-03-12'
p1493
sg19
S'ca'
p1494
sg21
S'6:00pm'
p1495
ssI130
(dp1496
g3
S'los angeles'
p1497
sg5
S'regal la live stadium 14'
p1498
sg7
S'deadpool'
p1499
sg9
S'3c9085d6-3595-4569-a53a-713ab9f2c333'
p1500
sg15
S'saturday'
p1501
sg11
S'ca'
p1502
sg13
S'7:00pm'
p1503
sg494
S'amc'
p1504
sg17
S'2016-03-12'
p1505
sg19
S'ca'
p1506
sg21
S'7:00pm'
p1507
ssI131
(dp1508
g3
S'los angeles'
p1509
sg5
S'regal la live stadium 14'
p1510
sg7
S'deadpool'
p1511
sg9
S'3c9085d6-3595-4569-a53a-713ab9f2c333'
p1512
sg15
S'saturday'
p1513
sg11
S'ca'
p1514
sg13
S'9:00pm'
p1515
sg494
S'amc'
p1516
sg17
S'2016-03-12'
p1517
sg19
S'ca'
p1518
sg21
S'9:00pm'
p1519
ssI132
(dp1520
g3
S'los angeles'
p1521
sg5
S'regal la live stadium 14'
p1522
sg7
S'deadpool'
p1523
sg9
S'3c9085d6-3595-4569-a53a-713ab9f2c333'
p1524
sg15
S'saturday'
p1525
sg11
S'ca'
p1526
sg13
S'11:40pm'
p1527
sg494
S'amc'
p1528
sg17
S'2016-03-12'
p1529
sg19
S'ca'
p1530
sg21
S'11:40pm'
p1531
ssI133
(dp1532
g3
S'seattle'
p1533
sg5
S'regal meridian 16'
p1534
sg9
S'2f059cc8-ac3f-4e82-9192-0e8336bd3ba2'
p1535
sg11
S'wa'
p1536
sg15
S'tonight'
p1537
sg17
S'2016-03-08'
p1538
sg19
S'wa'
p1539
sg7
S'eddie the eagle'
p1540
ssI134
(dp1541
g5
S'Century Rowland Plaza'
p1542
sg95
S'94952'
p1543
sg7
S'eddie the eagle'
p1544
sg9
S'd60cff39-e90b-4c2e-af42-3b08dc13384b'
p1545
sg13
S'4:20pm'
p1546
sg15
S'next Friday'
p1547
sg17
S'2016-03-11'
p1548
sg21
S'4:20pm'
p1549
ssI135
(dp1550
g5
S'Century Rowland Plaza'
p1551
sg95
S'94952'
p1552
sg7
S'eddie the eagle'
p1553
sg9
S'd60cff39-e90b-4c2e-af42-3b08dc13384b'
p1554
sg13
S'6:55pm'
p1555
sg15
S'next Friday'
p1556
sg17
S'2016-03-11'
p1557
sg21
S'6:55pm'
p1558
ssI136
(dp1559
g9
S'8e93ed3a-9ae1-445e-aae6-42fada6d1575'
p1560
sg453
S'drama'
p1561
sg17
S'2016-03-08'
p1562
sg7
S'eddie the eagle'
p1563
ssI137
(dp1564
g9
S'eebf8ebf-afd8-4412-96df-9617ba75a4bc'
p1565
sg15
S'tonight'
p1566
sg17
S'2016-03-08'
p1567
sg7
S'eddie the eagle'
p1568
sg5
S'Regal Meridian 16'
p1569
ssI138
(dp1570
g3
S'Princeton'
p1571
sg5
S'AMC Marketfair 10'
p1572
sg7
S'eddie the eagle'
p1573
sg9
S'0df2a80f-7964-4d6f-a0d1-a33a9ba0ad84'
p1574
sg453
S'drama'
p1575
sg11
S'nj'
p1576
sg13
S'6:45pm'
p1577
sg15
S'tomorrow'
p1578
sg17
S'2016-03-11'
p1579
sg19
S'nj'
p1580
sg21
S'6:45pm'
p1581
ssI139
(dp1582
g3
S'Chico'
p1583
sg9
S'470d2985-328c-49e2-b219-e68b1277ed23'
p1584
sg15
S'tomorrow'
p1585
sg453
S'drama'
p1586
sg17
S'2016-03-10'
p1587
sg19
S'ca'
p1588
sg7
S'eddie the eagle'
p1589
ssI140
(dp1590
g9
S'e62adbee-1280-4847-9a98-426846b76d7e'
p1591
sg7
S'lolo'
p1592
ssI141
(dp1593
g9
S'fa6cfa89-304f-48c2-b559-a319eec7b0dc'
p1594
sg17
S'2016-06-17'
p1595
sg7
S'finding dory'
p1596
ssI142
(dp1597
g3
S'Bayou Vista'
p1598
sg462
S"Mortal hero Bek teams with the god Horus in an alliance against Set the merciless god of darkness who has usurped Egypt's throne plunging the once peaceful and prosperous empire into chaos and conflict"
p1599
sg9
S'af16c2d9-5c90-447f-ab2d-a4412acbfd45'
p1600
sg453
S'action'
p1601
sg11
S'la'
p1602
sg15
S'this weekend'
p1603
sg17
S'2016-03-12'
p1604
sg19
S'la'
p1605
sg7
S'gods of egypt'
p1606
ssI143
(dp1607
g3
S'seattle'
p1608
sg5
S'regal meridian 16'
p1609
sg9
S'eebf8ebf-afd8-4412-96df-9617ba75a4bc'
p1610
sg15
S'tonight'
p1611
sg453
S'action'
p1612
sg17
S'2016-03-08'
p1613
sg7
S'gods of egypt'
p1614
ssI144
(dp1615
g3
S'Birmingham'
p1616
sg618
S'5'
sg9
S'2fd4a06f-68d3-4d07-b87d-1f43bef0ca81'
p1617
sg11
S'al'
p1618
sg453
S'Sci-Fi'
p1619
sg19
S'al'
p1620
sg7
S'gods of egypt'
p1621
ssI145
(dp1622
g3
S'seattle'
p1623
sg5
S'Cinemark Lincoln Square Cinemas'
p1624
sg7
S'gods of egypt'
p1625
sg9
S'2988242b-7e27-4003-a78f-6a28eea0e227'
p1626
sg453
S'Adventure '
p1627
sg13
S'7:15pm'
p1628
sg15
S'Friday the 10th'
p1629
sg17
S'2016-03-11'
p1630
sg21
S'7:15pm'
p1631
ssI146
(dp1632
g3
S'miami'
p1633
sg5
S'CINPOLIS COCONUT GROVE'
p1634
sg95
S'33133'
p1635
sg7
S'gods of egypt'
p1636
sg9
S'db091bba-63ad-4017-9f2b-8276f3dd55e2'
p1637
sg453
S'Fantasy'
p1638
sg11
S'fl'
p1639
sg13
S'11:20'
p1640
sg15
S'tomorrow'
p1641
sg17
S'2016-03-10'
p1642
sg19
S'fl'
p1643
sg21
S'11:20am'
p1644
ssI147
(dp1645
g3
S'miami'
p1646
sg5
S'COBB DOLPHIN 19'
p1647
sg95
S'33172'
p1648
sg7
S'gods of egypt'
p1649
sg9
S'db091bba-63ad-4017-9f2b-8276f3dd55e2'
p1650
sg453
S'Fantasy'
p1651
sg11
S'fl'
p1652
sg13
S'12:35'
p1653
sg15
S'tomorrow'
p1654
sg17
S'2016-03-10'
p1655
sg19
S'fl'
p1656
sg21
S'12:35pm'
p1657
ssI148
(dp1658
g3
S'Visalia'
p1659
sg5
S'Regal Visalia Stadium 10'
p1660
sg9
S'76522eb0-22e3-444d-90cc-6d6802bb1b48'
p1661
sg11
S'California'
p1662
sg17
S'2016-03-10'
p1663
sg19
S'ca'
p1664
sg7
S'gods of egypt'
p1665
ssI149
(dp1666
g3
S'Baltimore'
p1667
sg5
S'Cinemakr Egyptian'
p1668
sg7
S'gods of egypt'
p1669
sg9
S'8a65e015-2cd4-4b84-8b02-447dbb31fd4f'
p1670
sg599
S'3d'
p1671
sg11
S'Maryland'
p1672
sg13
S'3:20pm'
p1673
sg15
S'Friday'
p1674
sg17
S'2016-03-11'
p1675
sg19
S'md'
p1676
sg21
S'3:20pm'
p1677
ssI150
(dp1678
g3
S'Baltimore'
p1679
sg5
S'Cinemakr Egyptian'
p1680
sg7
S'gods of egypt'
p1681
sg9
S'8a65e015-2cd4-4b84-8b02-447dbb31fd4f'
p1682
sg599
S'3d'
p1683
sg11
S'Maryland'
p1684
sg13
S'9:45pm'
p1685
sg15
S'Friday'
p1686
sg17
S'2016-03-11'
p1687
sg19
S'md'
p1688
sg21
S'9:45pm'
p1689
ssI151
(dp1690
g3
S'Fresno'
p1691
sg9
S'60dd54db-e6e8-48b7-8a4a-82896ebb79ca'
p1692
sg453
S'action'
p1693
sg11
S'california'
p1694
sg15
S'march 12'
p1695
sg17
S'2016-03-12'
p1696
sg19
S'ca'
p1697
sg7
S'gods of egypt'
p1698
ssI152
(dp1699
g3
S'detroit'
p1700
sg9
S'1c4f60ab-42eb-4563-8414-0be1a85e7b62'
p1701
sg15
S'tonight'
p1702
sS'mpaa_rating'
p1703
S'pg-13'
p1704
sg453
S'action'
p1705
sg17
S'2016-03-10'
p1706
sg19
S'mi'
p1707
sg7
S'gods of egypt'
p1708
ssI153
(dp1709
g3
S'Sacramento'
p1710
sg5
S'Natomas Marketplace Stadium'
p1711
sg7
S'gods of egypt'
p1712
sg9
S'46fabf67-8c15-41ed-b1f3-f235f2674fa7'
p1713
sg599
S'standard'
p1714
sg11
S'california'
p1715
sg13
S'8:45pm'
p1716
sg15
S'tomorrow'
p1717
sg17
S'2016-03-11'
p1718
sg19
S'ca'
p1719
sg21
S'8:45pm'
p1720
ssI154
(dp1721
g3
S'Sacramento'
p1722
sg5
S'Natomas Marketplace Stadium'
p1723
sg7
S'gods of egypt'
p1724
sg9
S'46fabf67-8c15-41ed-b1f3-f235f2674fa7'
p1725
sg599
S'3d'
p1726
sg11
S'california'
p1727
sg13
S'5:25pm'
p1728
sg15
S'tomorrow'
p1729
sg17
S'2016-03-11'
p1730
sg19
S'ca'
p1731
sg21
S'5:25pm'
p1732
ssI155
(dp1733
g3
S'seattle'
p1734
sg5
S'regal meridian 16'
p1735
sg95
S'98101'
p1736
sg9
S'2f059cc8-ac3f-4e82-9192-0e8336bd3ba2'
p1737
sg11
S'wa'
p1738
sg15
S'tonight'
p1739
sg17
S'2016-03-08'
p1740
sg19
S'wa'
p1741
sg7
S'London Has Fallen'
p1742
ssI156
(dp1743
g3
S'seattle'
p1744
sg5
S'regal meridian 16'
p1745
sg95
S'98101'
p1746
sg9
S'2f059cc8-ac3f-4e82-9192-0e8336bd3ba2'
p1747
sg11
S'wa'
p1748
sg15
S'tonight'
p1749
sg17
S'2016-03-08'
p1750
sg19
S'wa'
p1751
sg7
S'Whiskey Tango Foxtrot'
p1752
ssI157
(dp1753
g3
S'seattle'
p1754
sg5
S'regal meridian 16'
p1755
sg95
S'98101'
p1756
sg9
S'2f059cc8-ac3f-4e82-9192-0e8336bd3ba2'
p1757
sg11
S'wa'
p1758
sg15
S'tonight'
p1759
sg17
S'2016-03-08'
p1760
sg19
S'wa'
p1761
sg7
S'Zootopia'
p1762
ssI158
(dp1763
g3
S'seattle'
p1764
sg5
S'regal meridian 16'
p1765
sg95
S'98101'
p1766
sg9
S'2f059cc8-ac3f-4e82-9192-0e8336bd3ba2'
p1767
sg11
S'wa'
p1768
sg15
S'tonight'
p1769
sg17
S'2016-03-08'
p1770
sg19
S'wa'
p1771
sg7
S'Triple 9'
p1772
ssI159
(dp1773
g3
S'seattle'
p1774
sg5
S'regal meridian 16'
p1775
sg95
S'98101'
p1776
sg9
S'2f059cc8-ac3f-4e82-9192-0e8336bd3ba2'
p1777
sg453
S'thriller'
p1778
sg11
S'wa'
p1779
sg15
S'tonight'
p1780
sg17
S'2016-03-08'
p1781
sg19
S'wa'
p1782
sg7
S'The Witch'
p1783
ssI160
(dp1784
g3
S'seattle'
p1785
sg5
S'regal meridian 16'
p1786
sg95
S'98101'
p1787
sg9
S'2f059cc8-ac3f-4e82-9192-0e8336bd3ba2'
p1788
sg11
S'wa'
p1789
sg15
S'tonight'
p1790
sg17
S'2016-03-08'
p1791
sg19
S'wa'
p1792
sg7
S'Where to Invade Next'
p1793
ssI161
(dp1794
g3
S'seattle'
p1795
sg5
S'regal meridian 16'
p1796
sg95
S'98101'
p1797
sg7
S'Zoolander 2'
p1798
sg9
S'2f059cc8-ac3f-4e82-9192-0e8336bd3ba2'
p1799
sg11
S'wa'
p1800
sg13
S'9:00PM'
p1801
sg15
S'tonight'
p1802
sg17
S'2016-03-08'
p1803
sg19
S'wa'
p1804
sg21
S'9:00pm'
p1805
ssI162
(dp1806
g3
S'seattle'
p1807
sg5
S'regal meridian 16'
p1808
sg95
S'98101'
p1809
sg9
S'2f059cc8-ac3f-4e82-9192-0e8336bd3ba2'
p1810
sg11
S'wa'
p1811
sg15
S'tonight'
p1812
sg17
S'2016-03-08'
p1813
sg19
S'wa'
p1814
sg7
S'Hail Caesar'
p1815
ssI163
(dp1816
g3
S'seattle'
p1817
sg5
S'regal meridian 16'
p1818
sg95
S'98101'
p1819
sg9
S'2f059cc8-ac3f-4e82-9192-0e8336bd3ba2'
p1820
sg11
S'wa'
p1821
sg15
S'tonight'
p1822
sg17
S'2016-03-08'
p1823
sg19
S'wa'
p1824
sg7
S'Kung Fu Panda 3'
p1825
ssI164
(dp1826
g3
S'seattle'
p1827
sg5
S'regal meridian 16'
p1828
sg95
S'98101'
p1829
sg9
S'2f059cc8-ac3f-4e82-9192-0e8336bd3ba2'
p1830
sg11
S'wa'
p1831
sg15
S'tonight'
p1832
sg17
S'2016-03-08'
p1833
sg19
S'wa'
p1834
sg7
S'Star Wars'
p1835
ssI165
(dp1836
g3
S'seattle'
p1837
sg5
S'regal meridian 16'
p1838
sg95
S'98101'
p1839
sg9
S'2f059cc8-ac3f-4e82-9192-0e8336bd3ba2'
p1840
sg11
S'wa'
p1841
sg15
S'tonight'
p1842
sg17
S'2016-03-08'
p1843
sg19
S'wa'
p1844
sg7
S'The Danish Girl'
p1845
ssI166
(dp1846
g3
S'seattle'
p1847
sg5
S'regal meridian 16'
p1848
sg95
S'98101'
p1849
sg7
S'Hail Caesar'
p1850
sg9
S'40aa2972-0dfd-41f0-9549-2f9e920d2aee'
p1851
sg11
S'wa'
p1852
sg13
S'8:45'
p1853
sg15
S'tomorrow'
p1854
sg17
S'2016-03-09'
p1855
sg19
S'wa'
p1856
sg21
S'8:45pm'
p1857
ssI167
(dp1858
g3
S'seattle'
p1859
sg5
S'AMC Lowes Oak Tree 6'
p1860
sg7
S'Hail Caesar'
p1861
sg9
S'50534277-eb2e-43d2-80e9-53f43748cfa0'
p1862
sg11
S'wa'
p1863
sg13
S'7:15 pm'
p1864
sg15
S'tomorrow'
p1865
sg17
S'2016-03-09'
p1866
sg19
S'wa'
p1867
sg21
S'7:15pm'
p1868
ssI168
(dp1869
g9
S'179ce51b-82af-426d-beeb-17b414c7fe97'
p1870
sg618
S'good'
p1871
sg453
S'comedy'
p1872
sg7
S'how to be single'
p1873
ssI169
(dp1874
g3
S'springfield'
p1875
sg5
S'WEHRENBERG CAMPBELL 16'
p1876
sg7
S'how to be single'
p1877
sg95
S'65807'
p1878
sg618
S'good'
p1879
sg9
S'70f23439-492c-4a80-a27a-66b5cf1397f7'
p1880
sg453
S'romantic comedy'
p1881
sg11
S'mo'
p1882
sg13
S'6:55'
p1883
sg15
S'tomorrow'
p1884
sg17
S'2016-03-09'
p1885
sg19
S'mo'
p1886
sg21
S'6:55pm'
p1887
ssI170
(dp1888
g3
S'seattle'
p1889
sg5
S'amc pacific place 11'
p1890
sg7
S'how to be single'
p1891
sg95
S'98101'
p1892
sg618
S'good'
p1893
sg9
S'aa516e27-a65c-4fee-b84e-b3133483ffd0'
p1894
sg15
S'tonight'
p1895
sg11
S'wa'
p1896
sg13
S'7:20'
p1897
sg494
S'amc'
p1898
sg453
S'romance'
p1899
sg19
S'wa'
p1900
sg21
S'7:20pm'
p1901
sg17
S'2016-03-08'
p1902
ssI171
(dp1903
g3
S'seattle'
p1904
sg5
S'amc pacific place 11'
p1905
sg7
S'how to be single'
p1906
sg95
S'98101'
p1907
sg618
S'good'
p1908
sg9
S'aa516e27-a65c-4fee-b84e-b3133483ffd0'
p1909
sg15
S'tonight'
p1910
sg11
S'wa'
p1911
sg13
S'10:20'
p1912
sg494
S'amc'
p1913
sg453
S'romance'
p1914
sg19
S'wa'
p1915
sg21
S'10:20pm'
p1916
sg17
S'2016-03-08'
p1917
ssI172
(dp1918
g3
S'Pittsburgh'
p1919
sg5
S'AMC LOEWS WATERFRONT 22'
p1920
sg7
S'how to be single'
p1921
sg9
S'ec7a0947-3df1-429c-a3a9-d6be77ce358e'
p1922
sg494
S'amc'
p1923
sg11
S'pa'
p1924
sg13
S'10:25pm'
p1925
sg15
S'tomorrow'
p1926
sg453
S'comedy'
p1927
sg19
S'pa'
p1928
sg21
S'10:25pm'
p1929
sg17
S'2016-03-09'
p1930
ssI173
(dp1931
g3
S'san francisco'
p1932
sg5
S'Century Centre 9'
p1933
sg7
S'how to be single'
p1934
sg9
S'8e94d520-5209-4e9a-8f24-44e7919b331c'
p1935
sg11
S'ca'
p1936
sg13
S'11:05 am'
p1937
sg15
S'tomorrow'
p1938
sg17
S'2016-03-10'
p1939
sg19
S'ca'
p1940
sg21
S'11:05am'
p1941
ssI174
(dp1942
g3
S'san francisco'
p1943
sg5
S'Century Centre 9'
p1944
sg7
S'how to be single'
p1945
sg9
S'8e94d520-5209-4e9a-8f24-44e7919b331c'
p1946
sg11
S'ca'
p1947
sg13
S'1:45pm'
p1948
sg15
S'tomorrow'
p1949
sg17
S'2016-03-10'
p1950
sg19
S'ca'
p1951
sg21
S'1:45pm'
p1952
ssI175
(dp1953
g3
S'san francisco'
p1954
sg5
S'Century Centre 9'
p1955
sg7
S'how to be single'
p1956
sg9
S'8e94d520-5209-4e9a-8f24-44e7919b331c'
p1957
sg11
S'ca'
p1958
sg13
S'4:30pm'
p1959
sg15
S'tomorrow'
p1960
sg17
S'2016-03-10'
p1961
sg19
S'ca'
p1962
sg21
S'4:30pm'
p1963
ssI176
(dp1964
g3
S'san francisco'
p1965
sg5
S'Century Centre 9'
p1966
sg7
S'how to be single'
p1967
sg9
S'8e94d520-5209-4e9a-8f24-44e7919b331c'
p1968
sg11
S'ca'
p1969
sg13
S'7:20 pm'
p1970
sg15
S'tomorrow'
p1971
sg17
S'2016-03-10'
p1972
sg19
S'ca'
p1973
sg21
S'7:20pm'
p1974
ssI177
(dp1975
g3
S'san francisco'
p1976
sg5
S'Century Centre 9'
p1977
sg7
S'how to be single'
p1978
sg9
S'8e94d520-5209-4e9a-8f24-44e7919b331c'
p1979
sg11
S'ca'
p1980
sg13
S'10pm'
p1981
sg15
S'tomorrow'
p1982
sg17
S'2016-03-10'
p1983
sg19
S'ca'
p1984
sg21
S'10:00pm'
p1985
ssI178
(dp1986
g3
S'san francisco'
p1987
sg5
S'Redwood City 20'
p1988
sg7
S'how to be single'
p1989
sg9
S'8e94d520-5209-4e9a-8f24-44e7919b331c'
p1990
sg11
S'ca'
p1991
sg13
S'11:05am'
p1992
sg15
S'tomorrow'
p1993
sg17
S'2016-03-10'
p1994
sg19
S'ca'
p1995
sg21
S'11:05am'
p1996
ssI179
(dp1997
g3
S'san francisco'
p1998
sg5
S'Redwood City 20'
p1999
sg7
S'how to be single'
p2000
sg9
S'8e94d520-5209-4e9a-8f24-44e7919b331c'
p2001
sg11
S'ca'
p2002
sg13
S'4:35pm'
p2003
sg15
S'tomorrow'
p2004
sg17
S'2016-03-10'
p2005
sg19
S'ca'
p2006
sg21
S'4:35pm'
p2007
ssI180
(dp2008
g3
S'Visalia'
p2009
sg5
S'Regal Visalia Stadium 10'
p2010
sg9
S'76522eb0-22e3-444d-90cc-6d6802bb1b48'
p2011
sg11
S'california'
p2012
sg17
S'2016-03-10'
p2013
sg19
S'ca'
p2014
sg7
S'how to be single'
p2015
ssI181
(dp2016
g9
S'bec447a1-3033-4ee0-b426-18fdecd83990'
p2017
sg7
S'independce day'
p2018
ssI182
(dp2019
g3
S'Monroe'
p2020
sg5
S'regal barkley village stadium 16'
p2021
sg95
S'98272'
p2022
sg9
S'2b399703-c66b-43f0-ba9a-225e1e258ee4'
p2023
sg453
S'action'
p2024
sg11
S'wa'
p2025
sg1703
S'PG'
p2026
sg15
S'tonight'
p2027
sg17
S'2016-03-08'
p2028
sg19
S'wa'
p2029
sg7
S'Kung Fu Panda 3'
p2030
ssI183
(dp2031
g3
S'Monroe'
p2032
sg5
S'amc loews cascade mall'
p2033
sg95
S'98272'
p2034
sg9
S'2b399703-c66b-43f0-ba9a-225e1e258ee4'
p2035
sg453
S'drama'
p2036
sg11
S'wa'
p2037
sg1703
S'PG'
p2038
sg15
S'tonight'
p2039
sg17
S'2016-03-08'
p2040
sg19
S'wa'
p2041
sg7
S'Kung Fu Panda 3'
p2042
ssI184
(dp2043
g3
S'Monroe'
p2044
sg5
S'regal marysville 14'
p2045
sg95
S'98272'
p2046
sg7
S'Kung Fu Panda 3'
p2047
sg9
S'2b399703-c66b-43f0-ba9a-225e1e258ee4'
p2048
sg453
S'comedy'
p2049
sg11
S'wa'
p2050
sg1703
S'PG'
p2051
sg13
S'9:10'
p2052
sg15
S'tonight'
p2053
sg17
S'2016-03-08'
p2054
sg19
S'wa'
p2055
sg21
S'9:10pm'
p2056
ssI185
(dp2057
g3
S'seattle'
p2058
sg5
S'REGAL MERIDIAN 16'
p2059
sg95
S'98101'
p2060
sg9
S'2b831410-cf4a-4ecf-9f7d-6dba97cee339'
p2061
sg11
S'wa'
p2062
sg1703
S'PG'
p2063
sg17
S'2016-03-12'
p2064
sg19
S'wa'
p2065
sg7
S'Kung Fu Panda 3'
p2066
ssI186
(dp2067
g3
S'bellevue'
p2068
sg5
S'BELLEVUE LINCOLN SQUARE CINEMAS'
p2069
sg95
S'98004'
p2070
sg9
S'2b831410-cf4a-4ecf-9f7d-6dba97cee339'
p2071
sg11
S'wa'
p2072
sg1703
S'PG'
p2073
sg17
S'2016-03-12'
p2074
sg19
S'wa'
p2075
sg7
S'Kung Fu Panda 3'
p2076
ssI187
(dp2077
g3
S'bellevue'
p2078
sg5
S'Regal Thornton Place Stadium '
p2079
sg7
S'Kung Fu Panda 3'
p2080
sg9
S'896f3c02-5f81-4f18-a011-6a0d99564716'
p2081
sg599
S'3d'
p2082
sg11
S'wa'
p2083
sg13
S'6:10pm'
p2084
sg15
S'Saturday'
p2085
sg17
S'2016-03-12'
p2086
sg19
S'wa'
p2087
sg21
S'6:10pm'
p2088
ssI188
(dp2089
g3
S'San Francisco'
p2090
sg5
S'amc van ness 14'
p2091
sg7
S'Kung Fu Panda 3'
p2092
sg9
S'c31d3353-2839-4b45-b74d-8d6f3611c06b'
p2093
sg599
S'standard'
p2094
sg11
S'ca'
p2095
sg13
S'2:25pm'
p2096
sg15
S'tomorrow'
p2097
sg17
S'2016-03-10'
p2098
sg19
S'ca'
p2099
sg21
S'2:25pm'
p2100
ssI189
(dp2101
g3
S'San Francisco'
p2102
sg5
S'century 20 daly city'
p2103
sg7
S'Kung Fu Panda 3'
p2104
sg9
S'c31d3353-2839-4b45-b74d-8d6f3611c06b'
p2105
sg599
S'standard'
p2106
sg11
S'ca'
p2107
sg13
S'1:30pm'
p2108
sg15
S'tomorrow'
p2109
sg17
S'2016-03-10'
p2110
sg19
S'ca'
p2111
sg21
S'1:30pm'
p2112
ssI190
(dp2113
g3
S'Birmingham'
p2114
sg5
S'carmike 16'
p2115
sg7
S'Kung Fu Panda 3'
p2116
sg9
S'ee7ca75a-e7c7-4ffb-bfce-423b6e755c24'
p2117
sg599
S'standard'
p2118
sg11
S'al'
p2119
sg13
S'12pm'
p2120
sg15
S'tomorrow'
p2121
sg17
S'2016-03-11'
p2122
sg19
S'al'
p2123
sg21
S'12:00pm'
p2124
ssI191
(dp2125
g3
S'Orlando'
p2126
sg5
S'AMC West Oaks 14'
p2127
sg7
S'Kung Fu Panda 3'
p2128
sg9
S'9cb12180-3ea3-4da9-9bff-73f1cf095ca0'
p2129
sg599
S'3d'
p2130
sg11
S'fl'
p2131
sg13
S'1:30 pm'
p2132
sg15
S'tomorrow'
p2133
sg17
S'2016-03-11'
p2134
sg19
S'fl'
p2135
sg21
S'1:30pm'
p2136
ssI192
(dp2137
g3
S'seattle'
p2138
sg5
S'REGAL MERIDIAN 16'
p2139
sg7
S'london has fallen'
p2140
sg95
S'98101'
p2141
sg618
S'26%'
p2142
sg9
S'6b3f4c5a-9c02-4c4a-995c-713fdc7d5e42'
p2143
sg453
S'action'
p2144
sg11
S'wa'
p2145
sg422
S'rotten tomatoes'
p2146
sg13
S'9:20 pm'
p2147
sg15
S'tonight'
p2148
sg17
S'2016-03-08'
p2149
sg19
S'wa'
p2150
sg21
S'9:20pm'
p2151
ssI193
(dp2152
g3
S'bellevue'
p2153
sg5
S'BELLEVUE LINCOLN SQUARE CINEMAS'
p2154
sg7
S'london has fallen'
p2155
sg95
S'98004'
p2156
sg618
S'26%'
p2157
sg9
S'6b3f4c5a-9c02-4c4a-995c-713fdc7d5e42'
p2158
sg453
S'action'
p2159
sg11
S'wa'
p2160
sg422
S'rotten tomatoes'
p2161
sg13
S'7:00pm'
p2162
sg15
S'tonight'
p2163
sg17
S'2016-03-08'
p2164
sg19
S'wa'
p2165
sg21
S'7:00pm'
p2166
ssI194
(dp2167
g3
S'bellevue'
p2168
sg5
S'BELLEVUE LINCOLN SQUARE CINEMAS'
p2169
sg7
S'london has fallen'
p2170
sg95
S'98004'
p2171
sg618
S'26%'
p2172
sg9
S'6b3f4c5a-9c02-4c4a-995c-713fdc7d5e42'
p2173
sg453
S'action'
p2174
sg11
S'wa'
p2175
sg422
S'rotten tomatoes'
p2176
sg13
S'9:45pm'
p2177
sg15
S'tonight'
p2178
sg17
S'2016-03-08'
p2179
sg19
S'wa'
p2180
sg21
S'9:45pm'
p2181
ssI195
(dp2182
g3
S'seattle'
p2183
sg5
S'AMC Southcenter 16'
p2184
sg7
S'London Has Fallen'
p2185
sg9
S'149f34f0-79f0-498a-8c35-e11b19af232f'
p2186
sg11
S'wa'
p2187
sg13
S'9:45pm'
p2188
sg15
S'Wednesday'
p2189
sg17
S'2016-03-09'
p2190
sg19
S'wa'
p2191
sg21
S'9:45pm'
p2192
ssI196
(dp2193
g3
S'Whittier'
p2194
sg5
S'WHITTIER VILLAGE STADIUM CINEMAS'
p2195
sg95
S'90602'
p2196
sg7
S'London Has Fallen'
p2197
sg9
S'b87f65c2-2c90-48a5-92a3-d6eb105a36fe'
p2198
sg11
S'ca'
p2199
sg13
S'1:30pm'
p2200
sg15
S'next Sunday'
p2201
sg17
S'2016-03-13'
p2202
sg19
S'ca'
p2203
sg21
S'1:30pm'
p2204
ssI197
(dp2205
g3
S'seattle'
p2206
sg5
S'regal meridian 16'
p2207
sg7
S'London Has Fallen'
p2208
sg95
S'98101'
p2209
sg618
S'top rated'
p2210
sg9
S'2f059cc8-ac3f-4e82-9192-0e8336bd3ba2'
p2211
sg11
S'wa'
p2212
sg13
S'9:20 PM'
p2213
sg15
S'tomorrow'
p2214
sg17
S'2016-03-09'
p2215
sg19
S'wa'
p2216
sg21
S'9:20 pm'
p2217
ssI198
(dp2218
g5
S'Whittier Village Stadium Cinemas'
p2219
sg7
S'London Has Fallen'
p2220
sg9
S'751c4265-569c-407f-a5ea-fa6b24186d57'
p2221
sg13
S'1:30PM'
p2222
sg15
S'saturday'
p2223
sg17
S'2016-03-12'
p2224
sg21
S'1:30pm'
p2225
ssI199
(dp2226
g3
S'seattle'
p2227
sg5
S'REGAL MERIDIAN 16'
p2228
sg7
S'london has fallen'
p2229
sg95
S'98101'
p2230
sg618
S'26%'
p2231
sg9
S'0bd2e714-0579-4bf2-968e-cd5106a1f506'
p2232
sg453
S'action'
p2233
sg11
S'wa'
p2234
sg422
S'rotten tomatoes'
p2235
sg13
S'9:20 pm'
p2236
sg15
S'tomorrow'
p2237
sg17
S'2016-03-09'
p2238
sg19
S'wa'
p2239
sg21
S'9:20pm'
p2240
ssI200
(dp2241
g3
S'Birmingham'
p2242
sg5
S'CARMIKE SUMMIT 16'
p2243
sg7
S'London Has Fallen'
p2244
sg9
S'7cda218d-7e53-4dd4-aa93-5062decc44c9'
p2245
sg11
S'al'
p2246
sg13
S'1:35PM'
p2247
sg15
S'Saturday'
p2248
sg17
S'2016-03-12'
p2249
sg19
S'al'
p2250
sg21
S'1:35pm'
p2251
ssI201
(dp2252
g3
S'norfolk'
p2253
sg5
S'REGAL MACARTHUR CENTER STADIUM 18'
p2254
sg7
S'London Has Fallen'
p2255
sg9
S'2e29af64-328f-42da-ac5d-212018f7b263'
p2256
sg11
S'virginia'
p2257
sg13
S'7:10'
p2258
sg15
S'March 12th'
p2259
sg17
S'2016-03-12'
p2260
sg19
S'va'
p2261
sg21
S'7:10pm'
p2262
ssI202
(dp2263
g3
S'norfolk'
p2264
sg5
S'RPX CINEMARK 18'
p2265
sg618
S'6'
sg9
S'2e29af64-328f-42da-ac5d-212018f7b263'
p2266
sg11
S'virginia'
p2267
sg422
S'imdb'
p2268
sg15
S'March 12th'
p2269
sg17
S'2016-03-12'
p2270
sg19
S'va'
p2271
sg7
S'London Has Fallen'
p2272
ssI203
(dp2273
g3
S'Birmingham'
p2274
sg5
S'Carmike Summit 16'
p2275
sg7
S'London Has Fallen'
p2276
sg9
S'2fd4a06f-68d3-4d07-b87d-1f43bef0ca81'
p2277
sg11
S'al'
p2278
sg13
S'8:20 pm'
p2279
sg15
S'Friday'
p2280
sg17
S'2016-03-11'
p2281
sg19
S'al'
p2282
sg21
S'8:20pm'
p2283
ssI204
(dp2284
g3
S'Norfolk'
p2285
sg5
S'Macarthur Center'
p2286
sg7
S'London Has Fallen'
p2287
sg9
S'b58a47d2-539f-47e8-b8dd-66ae55235905'
p2288
sg11
S'va'
p2289
sg13
S'2pm'
p2290
sg17
S'2016-03-10'
p2291
sg19
S'va'
p2292
sg21
S'2:00pm'
p2293
ssI205
(dp2294
g3
S'Visalia'
p2295
sg5
S'regal visalia stadium 10'
p2296
sg9
S'76522eb0-22e3-444d-90cc-6d6802bb1b48'
p2297
sg11
S'california'
p2298
sg17
S'2016-03-10'
p2299
sg19
S'ca'
p2300
sg7
S'London Has Fallen'
p2301
ssI206
(dp2302
g3
S'Visalia'
p2303
sg5
S'regal visalia stadium 10'
p2304
sg9
S'76522eb0-22e3-444d-90cc-6d6802bb1b48'
p2305
sg11
S'california'
p2306
sg17
S'2016-03-10'
p2307
sg19
S'ca'
p2308
sg7
S'whiskey tango foxtrot'
p2309
ssI207
(dp2310
g3
S'Visalia'
p2311
sg5
S'regal visalia stadium 10'
p2312
sg7
S'London Has Fallen'
p2313
sg9
S'60dd54db-e6e8-48b7-8a4a-82896ebb79ca'
p2314
sg11
S'california'
p2315
sg13
S'2:30pm'
p2316
sg17
S'2016-03-12'
p2317
sg19
S'ca'
p2318
sg21
S'2:30pm'
p2319
ssI208
(dp2320
g3
S'seattle'
p2321
sg5
S'amc pacific place 11 theater'
p2322
sg7
S'race'
p2323
sg9
S'0e8d9dd7-95d2-499f-bcde-3b32e014edf3'
p2324
sg453
S'drama'
p2325
sg11
S'wa'
p2326
sg13
S'10:00 pm'
p2327
sg15
S'tomorrow'
p2328
sg17
S'2016-03-09'
p2329
sg19
S'wa'
p2330
sg21
S'10:00pm'
p2331
ssI209
(dp2332
g3
S'seattle'
p2333
sg5
S'amc lowes oak tree 6'
p2334
sg7
S'race'
p2335
sg9
S'192e8c18-b37d-4073-ad15-eaefb8c88116'
p2336
sg494
S'amc'
p2337
sg11
S'wa'
p2338
sg13
S'4:50 pm'
p2339
sg15
S'tomorrow'
p2340
sg453
S'drama'
p2341
sg19
S'wa'
p2342
sg21
S'4:50pm'
p2343
sg17
S'2016-03-09'
p2344
ssI210
(dp2345
g5
S'regency commerce 14'
p2346
sg7
S'risen'
p2347
sg9
S'48249f21-205c-4ebf-8849-3ed9fdc5eaed'
p2348
sg13
S'11:50am'
p2349
sg15
S'tomorrow'
p2350
sg17
S'2016-03-09'
p2351
sg21
S'11:50am'
p2352
ssI211
(dp2353
g5
S'regency commerce 14'
p2354
sg7
S'risen'
p2355
sg9
S'48249f21-205c-4ebf-8849-3ed9fdc5eaed'
p2356
sg13
S'2:30pm'
p2357
sg15
S'tomorrow'
p2358
sg17
S'2016-03-09'
p2359
sg21
S'2:30pm'
p2360
ssI212
(dp2361
g5
S'regency commerce 14'
p2362
sg7
S'risen'
p2363
sg9
S'48249f21-205c-4ebf-8849-3ed9fdc5eaed'
p2364
sg13
S'5:10'
p2365
sg15
S'tomorrow'
p2366
sg17
S'2016-03-09'
p2367
sg21
S'5:10pm'
p2368
ssI213
(dp2369
g5
S'regency commerce 14'
p2370
sg7
S'risen'
p2371
sg9
S'48249f21-205c-4ebf-8849-3ed9fdc5eaed'
p2372
sg13
S'7:50'
p2373
sg15
S'tomorrow'
p2374
sg17
S'2016-03-09'
p2375
sg21
S'7:50pm'
p2376
ssI214
(dp2377
g5
S'regency commerce 14'
p2378
sg7
S'risen'
p2379
sg9
S'48249f21-205c-4ebf-8849-3ed9fdc5eaed'
p2380
sg13
S'10:25'
p2381
sg15
S'tomorrow'
p2382
sg17
S'2016-03-09'
p2383
sg21
S'10:25pm'
p2384
ssI215
(dp2385
g3
S'seattle'
p2386
sg5
S'AMC Lowes Oak Tree 6'
p2387
sg7
S'risen'
p2388
sg9
S'781979f3-aa8f-47a3-b69c-2926c2648db7'
p2389
sg453
S'action'
p2390
sg11
S'wa'
p2391
sg13
S'4:25 PM'
p2392
sg15
S'tomorrow'
p2393
sg17
S'2016-03-09'
p2394
sg19
S'wa'
p2395
sg21
S'4:25pm'
p2396
ssI216
(dp2397
g3
S'Chico'
p2398
sg5
S'Paradise Cinema 7'
p2399
sg9
S'470d2985-328c-49e2-b219-e68b1277ed23'
p2400
sg11
S'ca'
p2401
sg15
S'tomorrow'
p2402
sg17
S'2016-03-11'
p2403
sg19
S'ca'
p2404
sg7
S'risen'
p2405
ssI217
(dp2406
g3
S'Chico'
p2407
sg5
S'Cinemark 14 '
p2408
sg7
S'risen'
p2409
sg9
S'470d2985-328c-49e2-b219-e68b1277ed23'
p2410
sg11
S'ca'
p2411
sg13
S'5:10pm'
p2412
sg15
S'tomorrow'
p2413
sg17
S'2016-03-11'
p2414
sg19
S'ca'
p2415
sg21
S'5:10pm'
p2416
ssI218
(dp2417
g3
S'Chico'
p2418
sg5
S'Cinemark 14 '
p2419
sg7
S'risen'
p2420
sg9
S'470d2985-328c-49e2-b219-e68b1277ed23'
p2421
sg11
S'ca'
p2422
sg13
S'7:40pm'
p2423
sg15
S'tomorrow'
p2424
sg17
S'2016-03-11'
p2425
sg19
S'ca'
p2426
sg21
S'7:40pm'
p2427
ssI219
(dp2428
g3
S'Chico'
p2429
sg5
S'Cinemark 14 '
p2430
sg7
S'risen'
p2431
sg9
S'470d2985-328c-49e2-b219-e68b1277ed23'
p2432
sg11
S'ca'
p2433
sg13
S'10:10pm'
p2434
sg15
S'tomorrow'
p2435
sg17
S'2016-03-11'
p2436
sg19
S'ca'
p2437
sg21
S'10:10pm'
p2438
ssI220
(dp2439
g3
S'seattle'
p2440
sg5
S'amc pacific place 11 theater'
p2441
sg7
S'room'
p2442
sg9
S'2e73cd1c-db13-4510-8c36-a374ee9e0f8d'
p2443
sg15
S'tomorrow'
p2444
sg11
S'wa'
p2445
sg13
S'9:30 pm'
p2446
sg494
S'amc'
p2447
sg17
S'2016-03-09'
p2448
sg19
S'wa'
p2449
sg21
S'9:30pm'
p2450
ssI221
(dp2451
g3
S'seattle'
p2452
sg5
S'AMC Lowes Oak Tree 6'
p2453
sg7
S'room'
p2454
sg9
S'b7ae313f-4dea-4982-9b2b-85f37db53654'
p2455
sg11
S'wa'
p2456
sg13
S'4:50 pm'
p2457
sg15
S'tomorrow'
p2458
sg17
S'2016-03-09'
p2459
sg19
S'wa'
p2460
sg21
S'4:50pm'
p2461
ssI222
(dp2462
g3
S'seattle'
p2463
sg5
S'Regal Meridian 16 theater'
p2464
sg95
S'98101'
p2465
sg7
S'Spotlight'
p2466
sg9
S'58b8fef4-f43d-4a98-ad85-8d747fd881d3'
p2467
sg453
S'drama'
p2468
sg11
S'wa'
p2469
sg13
S'9:00 PM'
p2470
sg15
S'tomorrow'
p2471
sg17
S'2016-03-09'
p2472
sg19
S'wa'
p2473
sg21
S'9:00pm'
p2474
ssI223
(dp2475
g3
S'seattle'
p2476
sg5
S'AMC Lowes Oak Tree 6'
p2477
sg95
S'98133'
p2478
sg7
S'Spotlight'
p2479
sg9
S'eecb5ad2-f622-4745-ac24-9af997b6af7a'
p2480
sg15
S'tomorrow'
p2481
sg11
S'wa'
p2482
sg13
S'7:25 PM'
p2483
sg494
S'amc'
p2484
sg453
S'drama'
p2485
sg19
S'wa'
p2486
sg21
S'7:25pm'
p2487
sg17
S'2016-03-09'
p2488
ssI224
(dp2489
g3
S'seattle'
p2490
sg5
S'REGAL MERIDIAN 16'
p2491
sg95
S'98101'
p2492
sg7
S'Spotlight'
p2493
sg9
S'aa87675a-54ea-417b-8ae2-0e5dfb56c9f2'
p2494
sg453
S'drama'
p2495
sg11
S'wa'
p2496
sg13
S'6:05'
p2497
sg15
S'tomorrow'
p2498
sg17
S'2016-03-10'
p2499
sg19
S'wa'
p2500
sg21
S'6:05pm'
p2501
ssI225
(dp2502
g3
S'portland'
p2503
sg5
S'Regal Lloyd Center Century Eastport 16'
p2504
sg95
S'97232'
p2505
sg7
S'Star Wars'
p2506
sg9
S'16b50661-212b-4a14-ad07-41b64c1039ba'
p2507
sg11
S'or'
p2508
sg1703
S'pg-13'
p2509
sg13
S'9:50 pm'
p2510
sg15
S'tonight'
p2511
sg17
S'2016-03-08'
p2512
sg19
S'or'
p2513
sg21
S'9:50pm'
p2514
ssI226
(dp2515
g3
S'portland'
p2516
sg5
S'Regal Movies on TV Stadium 16'
p2517
sg9
S'26279333-2f09-4e63-afd0-248eefde08bd'
p2518
sg11
S'or'
p2519
sg1703
S'pg-13'
p2520
sg19
S'or'
p2521
sg7
S'Star Wars'
p2522
ssI227
(dp2523
g3
S'portland'
p2524
sg5
S'Century Eastport 16'
p2525
sg9
S'fca4c5f8-7980-4525-b2d0-9d6968b1ce22'
p2526
sg11
S'or'
p2527
sg1703
S'pg-13'
p2528
sg19
S'or'
p2529
sg7
S'Star Wars'
p2530
ssI228
(dp2531
g3
S'portland'
p2532
sg5
S'Living Room Theaters Regal Lloyd Center 10'
p2533
sg7
S'Star Wars'
p2534
sg9
S'fca4c5f8-7980-4525-b2d0-9d6968b1ce22'
p2535
sg11
S'or'
p2536
sg1703
S'pg-13'
p2537
sg13
S'12:05'
p2538
sg15
S'Friday'
p2539
sg17
S'2016-03-11'
p2540
sg19
S'or'
p2541
sg21
S'12:05pm'
p2542
ssI229
(dp2543
g3
S'portland'
p2544
sg5
S'Living Room Theaters Regal Lloyd Center 10'
p2545
sg7
S'Star Wars'
p2546
sg9
S'fca4c5f8-7980-4525-b2d0-9d6968b1ce22'
p2547
sg11
S'or'
p2548
sg1703
S'pg-13'
p2549
sg13
S'6:25pm'
p2550
sg15
S'Friday'
p2551
sg17
S'2016-03-11'
p2552
sg19
S'or'
p2553
sg21
S'6:25pm'
p2554
ssI230
(dp2555
g3
S'portland'
p2556
sg5
S'Living Room Theaters Regal Lloyd Center 10'
p2557
sg7
S'Star Wars'
p2558
sg9
S'fca4c5f8-7980-4525-b2d0-9d6968b1ce22'
p2559
sg599
S'3d'
p2560
sg11
S'or'
p2561
sg1703
S'pg-13'
p2562
sg13
S'9:25pm'
p2563
sg15
S'Friday'
p2564
sg17
S'2016-03-11'
p2565
sg19
S'or'
p2566
sg21
S'9:25pm'
p2567
ssI231
(dp2568
g3
S'portland'
p2569
sg5
S'Century Eastport 16'
p2570
sg7
S'Star Wars'
p2571
sg9
S'fca4c5f8-7980-4525-b2d0-9d6968b1ce22'
p2572
sg11
S'or'
p2573
sg1703
S'pg-13'
p2574
sg13
S'12:20pm'
p2575
sg15
S'Friday'
p2576
sg17
S'2016-03-11'
p2577
sg19
S'or'
p2578
sg21
S'12:20pm'
p2579
ssI232
(dp2580
g3
S'portland'
p2581
sg5
S'Century Eastport 16'
p2582
sg7
S'Star Wars'
p2583
sg9
S'fca4c5f8-7980-4525-b2d0-9d6968b1ce22'
p2584
sg11
S'or'
p2585
sg1703
S'pg-13'
p2586
sg13
S'3:40'
p2587
sg15
S'Friday'
p2588
sg17
S'2016-03-11'
p2589
sg19
S'or'
p2590
sg21
S'3:40pm'
p2591
ssI233
(dp2592
g3
S'portland'
p2593
sg5
S'Century Eastport 16'
p2594
sg7
S'Star Wars'
p2595
sg9
S'fca4c5f8-7980-4525-b2d0-9d6968b1ce22'
p2596
sg11
S'or'
p2597
sg1703
S'pg-13'
p2598
sg13
S'6:50'
p2599
sg15
S'Friday'
p2600
sg17
S'2016-03-11'
p2601
sg19
S'or'
p2602
sg21
S'6:50pm'
p2603
ssI234
(dp2604
g3
S'portland'
p2605
sg5
S'Century Eastport 16'
p2606
sg7
S'Star Wars'
p2607
sg9
S'fca4c5f8-7980-4525-b2d0-9d6968b1ce22'
p2608
sg599
S'standard'
p2609
sg11
S'or'
p2610
sg1703
S'pg-13'
p2611
sg13
S'10:00'
p2612
sg15
S'Friday'
p2613
sg17
S'2016-03-11'
p2614
sg19
S'or'
p2615
sg21
S'10:00pm'
p2616
ssI235
(dp2617
g3
S'portland'
p2618
sg5
S'Century Clackamas Town Center'
p2619
sg9
S'e62d0172-0880-4235-a6d7-bc4957a34af8'
p2620
sg11
S'or'
p2621
sg1703
S'pg-13'
p2622
sg15
S'Friday'
p2623
sg17
S'2016-03-11'
p2624
sg19
S'or'
p2625
sg7
S'Star Wars'
p2626
ssI236
(dp2627
g3
S'portland'
p2628
sg5
S'XD'
p2629
sg9
S'e62d0172-0880-4235-a6d7-bc4957a34af8'
p2630
sg11
S'or'
p2631
sg1703
S'pg-13'
p2632
sg15
S'Friday'
p2633
sg17
S'2016-03-11'
p2634
sg19
S'or'
p2635
sg7
S'Star Wars'
p2636
ssI237
(dp2637
g3
S'portland'
p2638
sg5
S'regal lloyd center 10 & IMAX '
p2639
sg9
S'1f372e44-5fec-4193-941d-1c4e5a125ce7'
p2640
sg11
S'or'
p2641
sg1703
S'pg-13'
p2642
sg15
S'Saturday'
p2643
sg17
S'2016-03-12'
p2644
sg19
S'or'
p2645
sg7
S'Star Wars'
p2646
ssI238
(dp2647
g3
S'portland'
p2648
sg5
S'Century Eastport 16'
p2649
sg7
S'Star Wars'
p2650
sg9
S'1f372e44-5fec-4193-941d-1c4e5a125ce7'
p2651
sg11
S'or'
p2652
sg1703
S'pg-13'
p2653
sg13
S'12:20'
p2654
sg15
S'Saturday'
p2655
sg17
S'2016-03-12'
p2656
sg19
S'or'
p2657
sg21
S'12:20pm'
p2658
ssI239
(dp2659
g3
S'portland'
p2660
sg5
S'Century Eastport 16'
p2661
sg7
S'Star Wars'
p2662
sg9
S'1f372e44-5fec-4193-941d-1c4e5a125ce7'
p2663
sg11
S'or'
p2664
sg1703
S'pg-13'
p2665
sg13
S'3:40'
p2666
sg15
S'Saturday'
p2667
sg17
S'2016-03-12'
p2668
sg19
S'or'
p2669
sg21
S'3:40pm'
p2670
ssI240
(dp2671
g3
S'portland'
p2672
sg5
S'Century Eastport 16'
p2673
sg7
S'Star Wars'
p2674
sg9
S'1f372e44-5fec-4193-941d-1c4e5a125ce7'
p2675
sg11
S'or'
p2676
sg1703
S'pg-13'
p2677
sg13
S'6:50'
p2678
sg15
S'Saturday'
p2679
sg17
S'2016-03-12'
p2680
sg19
S'or'
p2681
sg21
S'6:50pm'
p2682
ssI241
(dp2683
g3
S'portland'
p2684
sg5
S'Century Eastport 16'
p2685
sg7
S'Star Wars'
p2686
sg9
S'1f372e44-5fec-4193-941d-1c4e5a125ce7'
p2687
sg11
S'or'
p2688
sg1703
S'pg-13'
p2689
sg13
S'10pm'
p2690
sg15
S'Saturday'
p2691
sg17
S'2016-03-12'
p2692
sg19
S'or'
p2693
sg21
S'10pm'
p2694
ssI242
(dp2695
g3
S'Baltimore'
p2696
sg9
S'8a65e015-2cd4-4b84-8b02-447dbb31fd4f'
p2697
sg599
S'3d'
p2698
sg11
S'Maryland'
p2699
sg1703
S'pg-13'
p2700
sg17
S'2016-03-10'
p2701
sg19
S'md'
p2702
sg7
S'Star Wars'
p2703
ssI243
(dp2704
g3
S'la'
p2705
sg5
S'Regency Norwalk 8'
p2706
sg7
S'the forest'
p2707
sg618
S'8%'
p2708
sg9
S'9661972d-99ce-43d1-a8eb-576c6ed816c7'
p2709
sg11
S'ca'
p2710
sg422
S'rotten tomatoes'
p2711
sg13
S'7:40pm'
p2712
sg15
S'Saturday'
p2713
sg17
S'2016-03-12'
p2714
sg19
S'ca'
p2715
sg21
S'7:40pm'
p2716
ssI244
(dp2717
g3
S'la'
p2718
sg5
S'AMC La Mirada 7'
p2719
sg7
S'the forest'
p2720
sg618
S'8%'
p2721
sg9
S'9661972d-99ce-43d1-a8eb-576c6ed816c7'
p2722
sg11
S'ca'
p2723
sg422
S'rotten tomatoes'
p2724
sg13
S'7:20'
p2725
sg15
S'Saturday'
p2726
sg17
S'2016-03-12'
p2727
sg19
S'ca'
p2728
sg21
S'7:20pm'
p2729
ssI245
(dp2730
g3
S'chicago'
p2731
sg9
S'fe830cb1-5bfe-4590-b7a4-3df7f5c1eb44'
p2732
sg11
S'il'
p2733
sg453
S'thriller'
p2734
sg17
S'2016-03-08'
p2735
sg19
S'il'
p2736
sg7
S'the other side of the door'
p2737
ssI246
(dp2738
g3
S'las vegas'
p2739
sg5
S'SouthPoint casino'
p2740
sg7
S'the other side of the door'
p2741
sg9
S'fb6ce50c-fa7f-4da6-8740-cae20bd9cd5f'
p2742
sg11
S'nv'
p2743
sg13
S'12:05pm'
p2744
sg453
S'horror'
p2745
sg17
S'2016-03-10'
p2746
sg19
S'nv'
p2747
sg21
S'12:05pm'
p2748
ssI247
(dp2749
g3
S'las vegas'
p2750
sg5
S'SouthPoint casino'
p2751
sg7
S'the other side of the door'
p2752
sg9
S'fb6ce50c-fa7f-4da6-8740-cae20bd9cd5f'
p2753
sg11
S'nv'
p2754
sg13
S'2:40'
p2755
sg17
S'2016-03-10'
p2756
sg19
S'nv'
p2757
sg21
S'2:40pm'
p2758
ssI248
(dp2759
g3
S'las vegas'
p2760
sg5
S'SouthPoint casino'
p2761
sg7
S'the other side of the door'
p2762
sg9
S'fb6ce50c-fa7f-4da6-8740-cae20bd9cd5f'
p2763
sg11
S'nv'
p2764
sg13
S'5:20'
p2765
sg17
S'2016-03-10'
p2766
sg19
S'nv'
p2767
sg21
S'5:20pm'
p2768
ssI249
(dp2769
g3
S'las vegas'
p2770
sg5
S'SouthPoint casino'
p2771
sg7
S'the other side of the door'
p2772
sg9
S'fb6ce50c-fa7f-4da6-8740-cae20bd9cd5f'
p2773
sg11
S'nv'
p2774
sg13
S'8:05'
p2775
sg17
S'2016-03-10'
p2776
sg19
S'nv'
p2777
sg21
S'8:05pm'
p2778
ssI250
(dp2779
g3
S'las vegas'
p2780
sg5
S'SouthPoint casino'
p2781
sg7
S'the other side of the door'
p2782
sg9
S'fb6ce50c-fa7f-4da6-8740-cae20bd9cd5f'
p2783
sg11
S'nv'
p2784
sg13
S'10:35pm'
p2785
sg17
S'2016-03-10'
p2786
sg19
S'nv'
p2787
sg21
S'10:35pm'
p2788
ssI251
(dp2789
g3
S'nyc'
p2790
sg5
S'UA Kaufman Astoria Stadium 14'
p2791
sg7
S'the other side of the door'
p2792
sg9
S'86b949eb-1ab3-40cb-b116-2f90c287aa89'
p2793
sg453
S'horror'
p2794
sg11
S'ny'
p2795
sg13
S'8:40pm'
p2796
sg15
S'today'
p2797
sg17
S'2016-03-09'
p2798
sg19
S'ny'
p2799
sg21
S'8:40pm'
p2800
ssI252
(dp2801
g3
S'seattle'
p2802
sg9
S'59b87661-a61a-44aa-997e-3aa9fca819e2'
p2803
sg11
S'wa'
p2804
sg15
S'friday'
p2805
sg17
S'2016-03-11'
p2806
sg19
S'wa'
p2807
sg7
S'the perfect match'
p2808
ssI253
(dp2809
g3
S'wilmington'
p2810
sg5
S'REGAL MAYFAIRE STADIUM 16 & IMAX'
p2811
sg7
S'the perfect match'
p2812
sg9
S'a67ecec8-089a-45f9-8518-d1dba94ba339'
p2813
sg11
S'nc'
p2814
sg13
S'7:35 PM'
p2815
sg15
S'Saturday'
p2816
sg17
S'2016-03-12'
p2817
sg19
S'nc'
p2818
sg21
S'7:35pm'
p2819
ssI254
(dp2820
g3
S'seattle'
p2821
sg9
S'59b87661-a61a-44aa-997e-3aa9fca819e2'
p2822
sg11
S'wa'
p2823
sg15
S'friday'
p2824
sg17
S'2016-03-11'
p2825
sg19
S'wa'
p2826
sg7
S'the brothers grimsby'
p2827
ssI255
(dp2828
g3
S'seattle'
p2829
sg5
S'AMC PACIFIC PLACE 11'
p2830
sg95
S'98101'
p2831
sg7
S'the brothers grimsby'
p2832
sg9
S'59b87661-a61a-44aa-997e-3aa9fca819e2'
p2833
sg11
S'wa'
p2834
sg13
S'7:00pm'
p2835
sg15
S'friday'
p2836
sg17
S'2016-03-11'
p2837
sg19
S'wa'
p2838
sg21
S'7:00pm'
p2839
ssI256
(dp2840
g3
S'seattle'
p2841
sg5
S'AMC PACIFIC PLACE 11'
p2842
sg95
S'98101'
p2843
sg7
S'the brothers grimsby'
p2844
sg9
S'59b87661-a61a-44aa-997e-3aa9fca819e2'
p2845
sg11
S'wa'
p2846
sg13
S'8:40pm'
p2847
sg15
S'friday'
p2848
sg17
S'2016-03-11'
p2849
sg19
S'wa'
p2850
sg21
S'8:40pm'
p2851
ssI257
(dp2852
g3
S'seattle'
p2853
sg5
S'AMC PACIFIC PLACE 11'
p2854
sg95
S'98101'
p2855
sg7
S'the brothers grimsby'
p2856
sg9
S'59b87661-a61a-44aa-997e-3aa9fca819e2'
p2857
sg11
S'wa'
p2858
sg13
S'9:30pm'
p2859
sg15
S'friday'
p2860
sg17
S'2016-03-11'
p2861
sg19
S'wa'
p2862
sg21
S'9:30pm'
p2863
ssI258
(dp2864
g3
S'seattle'
p2865
sg5
S'AMC PACIFIC PLACE 11'
p2866
sg95
S'98101'
p2867
sg7
S'the brothers grimsby'
p2868
sg9
S'59b87661-a61a-44aa-997e-3aa9fca819e2'
p2869
sg11
S'wa'
p2870
sg13
S'10:50pm'
p2871
sg15
S'friday'
p2872
sg17
S'2016-03-11'
p2873
sg19
S'wa'
p2874
sg21
S'10:50pm'
p2875
ssI259
(dp2876
g3
S'bellevue'
p2877
sg5
S'BELLEVUE LINCOLN SQUARE CINEMAS'
p2878
sg95
S'98004'
p2879
sg7
S'the brothers grimsby'
p2880
sg9
S'59b87661-a61a-44aa-997e-3aa9fca819e2'
p2881
sg11
S'wa'
p2882
sg13
S'7:50pm'
p2883
sg15
S'friday'
p2884
sg17
S'2016-03-11'
p2885
sg19
S'wa'
p2886
sg21
S'7:50pm'
p2887
ssI260
(dp2888
g3
S'bellevue'
p2889
sg5
S'BELLEVUE LINCOLN SQUARE CINEMAS'
p2890
sg95
S'98004'
p2891
sg7
S'the brothers grimsby'
p2892
sg9
S'59b87661-a61a-44aa-997e-3aa9fca819e2'
p2893
sg11
S'wa'
p2894
sg13
S'10:20pm'
p2895
sg15
S'friday'
p2896
sg17
S'2016-03-11'
p2897
sg19
S'wa'
p2898
sg21
S'10:20pm'
p2899
ssI261
(dp2900
g3
S'miami'
p2901
sg5
S'Regal South Beach'
p2902
sg7
S'the brothers grimsby'
p2903
sg9
S'f81a696c-59ba-4ba6-8676-744b43e177aa'
p2904
sg11
S'fl'
p2905
sg13
S'7:40'
p2906
sg15
S'Friday'
p2907
sg17
S'2016-03-11'
p2908
sg19
S'fl'
p2909
sg21
S'7:40pm'
p2910
ssI262
(dp2911
g3
S'miami'
p2912
sg5
S'AMC Sunset Place 24'
p2913
sg7
S'the brothers grimsby'
p2914
sg9
S'f81a696c-59ba-4ba6-8676-744b43e177aa'
p2915
sg11
S'fl'
p2916
sg13
S'6:00'
p2917
sg15
S'Friday'
p2918
sg17
S'2016-03-11'
p2919
sg19
S'fl'
p2920
sg21
S'6:00pm'
p2921
ssI263
(dp2922
g3
S'miami'
p2923
sg5
S'AMC Sunset Place 24'
p2924
sg7
S'the brothers grimsby'
p2925
sg9
S'f81a696c-59ba-4ba6-8676-744b43e177aa'
p2926
sg11
S'fl'
p2927
sg13
S'8:30'
p2928
sg15
S'Friday'
p2929
sg17
S'2016-03-11'
p2930
sg19
S'fl'
p2931
sg21
S'8:30pm'
p2932
ssI264
(dp2933
g3
S'carbondale'
p2934
sg5
S'AMC SHOWPLACE CARBONDALE 8'
p2935
sg7
S'The Witch'
p2936
sg9
S'fe830cb1-5bfe-4590-b7a4-3df7f5c1eb44'
p2937
sg453
S'thriller'
p2938
sg11
S'illinois'
p2939
sg13
S'4:40 pm'
p2940
sg15
S'Tuesday'
p2941
sg17
S'2016-03-15'
p2942
sg19
S'il'
p2943
sg21
S'4:40pm'
p2944
ssI265
(dp2945
g3
S'seattle'
p2946
sg5
S'Regal Meridian 16'
p2947
sg7
S'The Witch'
p2948
sg9
S'40761539-bda4-4377-8925-ad3a4a06b511'
p2949
sg453
S'thriller'
p2950
sg11
S'wa'
p2951
sg13
S'9:30 PM'
p2952
sg15
S'tomorrow'
p2953
sg17
S'2016-03-09'
p2954
sg19
S'wa'
p2955
sg21
S'9:30pm'
p2956
ssI266
(dp2957
g3
S'chicago'
p2958
sg9
S'fe830cb1-5bfe-4590-b7a4-3df7f5c1eb44'
p2959
sg11
S'il'
p2960
sg453
S'thriller'
p2961
sg17
S'2016-03-08'
p2962
sg19
S'il'
p2963
sg7
S'The Witch'
p2964
ssI267
(dp2965
g5
S'Cinemar Downey'
p2966
sg7
S'The Witch'
p2967
sg9
S'6dbc8e0e-919f-4d56-a1aa-47a176ca989b'
p2968
sg15
S'tomorrow'
p2969
sg13
S'10:35 am'
p2970
sg453
S'thriller'
p2971
sg17
S'2016-03-09'
p2972
sg21
S'10:35am'
p2973
ssI268
(dp2974
g5
S'AMC Theaters Puente Hills'
p2975
sg7
S'The Witch'
p2976
sg9
S'6dbc8e0e-919f-4d56-a1aa-47a176ca989b'
p2977
sg15
S'tomorrow'
p2978
sg13
S'11:40 am'
p2979
sg453
S'thriller'
p2980
sg17
S'2016-03-09'
p2981
sg21
S'11:40am'
p2982
ssI269
(dp2983
g3
S'los angeles'
p2984
sg5
S'Regal LA LIVE Stadium 14'
p2985
sg7
S'The Witch'
p2986
sg9
S'be1d6e7c-52fa-4179-8730-412e950185ac'
p2987
sg13
S'8:30pm'
p2988
sg453
S'thriller'
p2989
sg17
S'2016-03-08'
p2990
sg21
S'8:30pm'
p2991
ssI270
(dp2992
g3
S'los angeles'
p2993
sg5
S'Regal LA LIVE Stadium 14'
p2994
sg7
S'The Witch'
p2995
sg9
S'be1d6e7c-52fa-4179-8730-412e950185ac'
p2996
sg13
S'11pm'
p2997
sg453
S'thriller'
p2998
sg17
S'2016-03-08'
p2999
sg21
S'11:00pm'
p3000
ssI271
(dp3001
g3
S'Knoxville'
p3002
sg5
S'Carmike 10'
p3003
sg7
S'The Witch'
p3004
sg9
S'078842e2-66f7-44c6-add8-05d558677de7'
p3005
sg599
S'3d'
p3006
sg11
S'tn'
p3007
sg13
S'7:30pm'
p3008
sg15
S'tomorrow'
p3009
sg17
S'2016-03-11'
p3010
sg19
S'tn'
p3011
sg21
S'7:30pm'
p3012
ssI272
(dp3013
g3
S'Atlanta'
p3014
sg5
S'AMC PHIPPS PLAZA 14'
p3015
sg95
S'30326'
p3016
sg7
S'The Witch'
p3017
sg9
S'a96c873b-036c-45c9-9fee-3417a705b8b9'
p3018
sg11
S'ga'
p3019
sg13
S'9:55'
p3020
sg453
S'horror'
p3021
sg17
S'2016-03-15'
p3022
sg19
S'ga'
p3023
sg21
S'9:55pm'
p3024
ssI273
(dp3025
g3
S'Barrington'
p3026
sg5
S'AMC SOUTH BARRINGTON 30'
p3027
sg95
S'60010'
p3028
sg7
S'The Witch'
p3029
sg9
S'a96c873b-036c-45c9-9fee-3417a705b8b9'
p3030
sg11
S'il'
p3031
sg13
S'6:25'
p3032
sg15
S'March 12th'
p3033
sg17
S'2016-03-12'
p3034
sg19
S'il'
p3035
sg21
S'6:25pm'
p3036
ssI274
(dp3037
g3
S'Barrington'
p3038
sg5
S'AMC SOUTH BARRINGTON 30'
p3039
sg95
S'60010'
p3040
sg7
S'The Witch'
p3041
sg9
S'a96c873b-036c-45c9-9fee-3417a705b8b9'
p3042
sg11
S'il'
p3043
sg13
S'9:00 pm'
p3044
sg15
S'March 12th'
p3045
sg17
S'2016-03-12'
p3046
sg19
S'il'
p3047
sg21
S'9:00pm'
p3048
ssI275
(dp3049
g3
S'Carbondale'
p3050
sg9
S'16b50661-212b-4a14-ad07-41b64c1039ba'
p3051
sg453
S'drama'
p3052
sg11
S'il'
p3053
sg15
S'Friday'
p3054
sg17
S'2016-03-11'
p3055
sg19
S'il'
p3056
sg7
S'the young messiah'
p3057
ssI276
(dp3058
g3
S'Carbondale'
p3059
sg9
S'1be689ff-ab3c-4ae3-8969-b7d57098bffc'
p3060
sg15
S'this weekend'
p3061
sg453
S'drama'
p3062
sg17
S'2016-03-12'
p3063
sg7
S'the young messiah'
p3064
ssI277
(dp3065
g3
S'Stony Brook'
p3066
sg5
S'AMC LOEWS STONY BROOK 17'
p3067
sg7
S'the young messiah'
p3068
sg9
S'99302780-8073-4203-a924-767e4c5ccdc7'
p3069
sg453
S'drama'
p3070
sg11
S'ny'
p3071
sg13
S'11:05am'
p3072
sg15
S'Saturday'
p3073
sg17
S'2016-03-12'
p3074
sg19
S'ny'
p3075
sg21
S'11:05am'
p3076
ssI278
(dp3077
g3
S'Stony Brook'
p3078
sg5
S'AMC LOEWS STONY BROOK 17'
p3079
sg7
S'the young messiah'
p3080
sg9
S'99302780-8073-4203-a924-767e4c5ccdc7'
p3081
sg453
S'drama'
p3082
sg11
S'ny'
p3083
sg13
S'1:45pm'
p3084
sg15
S'Saturday'
p3085
sg17
S'2016-03-12'
p3086
sg19
S'ny'
p3087
sg21
S'1:45pm'
p3088
ssI279
(dp3089
g3
S'Carbondale'
p3090
sg9
S'fe830cb1-5bfe-4590-b7a4-3df7f5c1eb44'
p3091
sg11
S'il'
p3092
sg15
S'Tuesday'
p3093
sg17
S'2016-03-08'
p3094
sg19
S'il'
p3095
sg7
S'triple 9'
p3096
ssI280
(dp3097
g3
S'seattle'
p3098
sg5
S'AMC Lowes Oak Tree 6'
p3099
sg7
S'triple 9'
p3100
sg9
S'408e5aca-a86e-4c81-aded-996ea3b74b60'
p3101
sg11
S'wa'
p3102
sg13
S'7:10 PM'
p3103
sg15
S'tomorrow'
p3104
sg17
S'2016-03-09'
p3105
sg19
S'wa'
p3106
sg21
S'7:10pm'
p3107
ssI281
(dp3108
g3
S'houma'
p3109
sg5
S'AMC HOUMA PALACE 10'
p3110
sg95
S'70364'
p3111
sg7
S'whiskey tango foxtrot'
p3112
sg9
S'b170b1f4-2551-4921-8c3e-200f1d740224'
p3113
sg453
S'adult comedy'
p3114
sg11
S'louisiana'
p3115
sg13
S'11:40am'
p3116
sg15
S'9th'
p3117
sg17
S'2016-03-09'
p3118
sg19
S'la'
p3119
sg21
S'11:40am'
p3120
ssI282
(dp3121
g3
S'houma'
p3122
sg5
S'AMC HOUMA PALACE 10'
p3123
sg95
S'70364'
p3124
sg7
S'whiskey tango foxtrot'
p3125
sg9
S'b170b1f4-2551-4921-8c3e-200f1d740224'
p3126
sg453
S'adult comedy'
p3127
sg11
S'louisiana'
p3128
sg13
S'2:15pm'
p3129
sg15
S'9th'
p3130
sg17
S'2016-03-09'
p3131
sg19
S'la'
p3132
sg21
S'2:15pm'
p3133
ssI283
(dp3134
g3
S'houma'
p3135
sg5
S'AMC HOUMA PALACE 10'
p3136
sg95
S'70364'
p3137
sg7
S'whiskey tango foxtrot'
p3138
sg9
S'b170b1f4-2551-4921-8c3e-200f1d740224'
p3139
sg453
S'adult comedy'
p3140
sg11
S'louisiana'
p3141
sg13
S'5:00pm'
p3142
sg15
S'9th'
p3143
sg17
S'2016-03-09'
p3144
sg19
S'la'
p3145
sg21
S'5:00pm'
p3146
ssI284
(dp3147
g3
S'houma'
p3148
sg5
S'AMC HOUMA PALACE 10'
p3149
sg95
S'70364'
p3150
sg7
S'whiskey tango foxtrot'
p3151
sg9
S'b170b1f4-2551-4921-8c3e-200f1d740224'
p3152
sg453
S'adult comedy'
p3153
sg11
S'louisiana'
p3154
sg13
S'7:40pm'
p3155
sg15
S'9th'
p3156
sg17
S'2016-03-09'
p3157
sg19
S'la'
p3158
sg21
S'7:40pm'
p3159
ssI285
(dp3160
g3
S'seattle'
p3161
sg618
S'top'
p3162
sg9
S'6b3f4c5a-9c02-4c4a-995c-713fdc7d5e42'
p3163
sg11
S'wa'
p3164
sg19
S'wa'
p3165
sg7
S'whiskey tango foxtrot'
p3166
ssI286
(dp3167
g3
S'Bayou Vista'
p3168
sS'actress'
p3169
S'Tina Fey'
p3170
sg9
S'af16c2d9-5c90-447f-ab2d-a4412acbfd45'
p3171
sg11
S'la'
p3172
sg1703
S'R'
sg15
S'this weekend'
p3173
sg17
S'2016-03-12'
p3174
sg19
S'la'
p3175
sg7
S'whiskey tango foxtrot'
p3176
ssI287
(dp3177
g3
S'Buford'
p3178
sg5
S'mall of georgia movie theater'
p3179
sg7
S'whiskey tango foxtrot'
p3180
sg3169
S'Tina Fey'
p3181
sg9
S'f4a2dcbe-8860-45ba-93f6-229b59a091fe'
p3182
sg11
S'Georgia'
p3183
sg1703
S'R'
sg13
S'10:40pm'
p3184
sg15
S'Friday'
p3185
sg17
S'2016-03-11'
p3186
sg19
S'ga'
p3187
sg21
S'10:40pm'
p3188
ssI288
(dp3189
g3
S'seattle'
p3190
sg5
S'regal meridian 16'
p3191
sg7
S'whiskey tango foxtrot'
p3192
sg9
S'482633d1-5c54-44ab-b878-aa4b82607810'
p3193
sg453
S'comedy'
p3194
sg11
S'wa'
p3195
sg13
S'9:00PM'
p3196
sg15
S'soonest upcoming showing'
p3197
sg17
S'2016-03-08'
p3198
sg19
S'wa'
p3199
sg21
S'9:00pm'
p3200
ssI289
(dp3201
g3
S'Altoona'
p3202
sg5
S'CARMIKE 12'
p3203
sg7
S'whiskey tango foxtrot'
p3204
sg9
S'0839f1f9-24c5-446a-a065-6f7775642fc4'
p3205
sg11
S'Pennsylvania'
p3206
sg13
S'5PM'
p3207
sg15
S'Wednesday'
p3208
sg17
S'2016-03-09'
p3209
sg19
S'pa'
p3210
sg21
S'5pm'
p3211
ssI290
(dp3212
g3
S'Altoona'
p3213
sg5
S'CARMIKE 12'
p3214
sg7
S'whiskey tango foxtrot'
p3215
sg9
S'0839f1f9-24c5-446a-a065-6f7775642fc4'
p3216
sg11
S'Pennsylvania'
p3217
sg13
S'7:40PM'
p3218
sg15
S'Wednesday'
p3219
sg17
S'2016-03-09'
p3220
sg19
S'pa'
p3221
sg21
S'7:40pm'
p3222
ssI291
(dp3223
g3
S'miami'
p3224
sg5
S'Regal South Beach'
p3225
sg7
S'whiskey tango foxtrot'
p3226
sg9
S'31bb4b13-8467-4e56-9f07-6a2b01930996'
p3227
sg11
S'fl'
p3228
sg13
S'10:20pm'
p3229
sg15
S'tonight'
p3230
sg17
S'2016-03-09'
p3231
sg19
S'fl'
p3232
sg21
S'10:20pm'
p3233
ssI292
(dp3234
g3
S'miami'
p3235
sg5
S'Cinepolis USA'
p3236
sg7
S'whiskey tango foxtrot'
p3237
sg9
S'31bb4b13-8467-4e56-9f07-6a2b01930996'
p3238
sg11
S'fl'
p3239
sg13
S'8:25pm'
p3240
sg15
S'tonight'
p3241
sg17
S'2016-03-09'
p3242
sg19
S'fl'
p3243
sg21
S'8:25pm'
p3244
ssI293
(dp3245
g3
S'miami'
p3246
sg5
S'Cobb Dolphin Cinemas'
p3247
sg7
S'whiskey tango foxtrot'
p3248
sg9
S'31bb4b13-8467-4e56-9f07-6a2b01930996'
p3249
sg11
S'fl'
p3250
sg13
S'9:05pm'
p3251
sg15
S'tonight'
p3252
sg17
S'2016-03-09'
p3253
sg19
S'fl'
p3254
sg21
S'9:05pm'
p3255
ssI294
(dp3256
g3
S'albany'
p3257
sg5
S'Regal Clifton Park Stadium'
p3258
sg7
S'whiskey tango foxtrot'
p3259
sg9
S'a4ab33ee-8b94-4182-a048-2ae749af61ec'
p3260
sg11
S'ny'
p3261
sg13
S'12:40pm'
p3262
sg15
S'soonest'
p3263
sg17
S'2016-03-09'
p3264
sg19
S'ny'
p3265
sg21
S'12:40pm'
p3266
ssI295
(dp3267
g5
S'NCG Eastwood Cinemas'
p3268
sg7
S'whiskey tango foxtrot'
p3269
sg9
S'f04ca2ab-4b2f-4666-b089-5df285a98fdc'
p3270
sg13
S'1:55'
p3271
sg453
S'comedy'
p3272
sg17
S'2016-03-09'
p3273
sg21
S'1:55pm'
p3274
ssI296
(dp3275
g5
S'NCG Eastwood Cinemas'
p3276
sg7
S'whiskey tango foxtrot'
p3277
sg9
S'f04ca2ab-4b2f-4666-b089-5df285a98fdc'
p3278
sg13
S'4:25'
p3279
sg453
S'comedy'
p3280
sg17
S'2016-03-09'
p3281
sg21
S'4:25pm'
p3282
ssI297
(dp3283
g5
S'Mesa Grand 24'
p3284
sg7
S'whiskey tango foxtrot'
p3285
sg9
S'3b1ba75b-2d8b-48af-9492-6f6d7e7164d8'
p3286
sg15
S'Friday'
p3287
sg13
S'7:25'
p3288
sg453
S'comedy'
p3289
sg17
S'2016-03-11'
p3290
sg21
S'7:25pm'
p3291
ssI298
(dp3292
g5
S'Mesa Grand 24'
p3293
sg7
S'whiskey tango foxtrot'
p3294
sg9
S'3b1ba75b-2d8b-48af-9492-6f6d7e7164d8'
p3295
sg15
S'Friday'
p3296
sg13
S'10:30'
p3297
sg453
S'comedy'
p3298
sg17
S'2016-03-11'
p3299
sg21
S'10:30pm'
p3300
ssI299
(dp3301
g5
S'SIFF Cinema Uptown'
p3302
sg7
S'whiskey tango foxtrot'
p3303
sg9
S'57c0513b-0447-4a1e-8d60-ca7874252ac4'
p3304
sg13
S'7:10 pm'
p3305
sg15
S'March 11th'
p3306
sg17
S'2016-03-11'
p3307
sg21
S'7:10pm'
p3308
ssI300
(dp3309
g5
S'Ark Lodge Cinemas'
p3310
sg7
S'whiskey tango foxtrot'
p3311
sg9
S'57c0513b-0447-4a1e-8d60-ca7874252ac4'
p3312
sg13
S'7:15'
p3313
sg15
S'March 11th'
p3314
sg17
S'2016-03-11'
p3315
sg21
S'7:15pm'
p3316
ssI301
(dp3317
g5
S'Regal Crossroads'
p3318
sg7
S'whiskey tango foxtrot'
p3319
sg9
S'57c0513b-0447-4a1e-8d60-ca7874252ac4'
p3320
sg13
S'7:15pm'
p3321
sg15
S'March 11th'
p3322
sg17
S'2016-03-11'
p3323
sg21
S'7:15pm'
p3324
ssI302
(dp3325
g3
S'portland'
p3326
sg5
S'Regal Fox Tower Stadium 10'
p3327
sg7
S'whiskey tango foxtrot'
p3328
sg9
S'dc704595-b3c4-4464-b61d-b80e5dc1030c'
p3329
sg11
S'or'
p3330
sg13
S'6:45'
p3331
sg15
S'Saturday'
p3332
sg17
S'2016-03-12'
p3333
sg19
S'or'
p3334
sg21
S'6:45pm'
p3335
ssI303
(dp3336
g3
S'Visalia'
p3337
sg5
S'Regal Visalia Stadium 10'
p3338
sg7
S'whiskey tango foxtrot'
p3339
sg9
S'76522eb0-22e3-444d-90cc-6d6802bb1b48'
p3340
sg11
S'california'
p3341
sg13
S'12:35pm'
p3342
sg15
S'Saturday'
p3343
sg17
S'2016-03-12'
p3344
sg19
S'ca'
p3345
sg21
S'12:35pm'
p3346
ssI304
(dp3347
g3
S'Visalia'
p3348
sg5
S'Regal Visalia Stadium 10'
p3349
sg7
S'whiskey tango foxtrot'
p3350
sg9
S'76522eb0-22e3-444d-90cc-6d6802bb1b48'
p3351
sg11
S'california'
p3352
sg13
S'4:05pm'
p3353
sg15
S'Saturday'
p3354
sg17
S'2016-03-12'
p3355
sg19
S'ca'
p3356
sg21
S'4:05pm'
p3357
ssI305
(dp3358
g3
S'Visalia'
p3359
sg5
S'Regal Visalia Stadium 10'
p3360
sg7
S'whiskey tango foxtrot'
p3361
sg9
S'76522eb0-22e3-444d-90cc-6d6802bb1b48'
p3362
sg11
S'california'
p3363
sg13
S'7:05pm'
p3364
sg15
S'Saturday'
p3365
sg17
S'2016-03-12'
p3366
sg19
S'ca'
p3367
sg21
S'7:05pm'
p3368
ssI306
(dp3369
g3
S'Visalia'
p3370
sg5
S'Regal Visalia Stadium 10'
p3371
sg7
S'whiskey tango foxtrot'
p3372
sg9
S'76522eb0-22e3-444d-90cc-6d6802bb1b48'
p3373
sg11
S'california'
p3374
sg13
S'9:55pm'
p3375
sg15
S'Saturday'
p3376
sg17
S'2016-03-12'
p3377
sg19
S'ca'
p3378
sg21
S'9:55pm'
p3379
ssI307
(dp3380
g3
S'hamilton'
p3381
sg618
S'top'
p3382
sg9
S'76522eb0-22e3-444d-90cc-6d6802bb1b48'
p3383
sg11
S'nj'
p3384
sg15
S'tomorrow'
p3385
sg17
S'2016-03-10'
p3386
sg19
S'nj'
p3387
sg7
S'whiskey tango foxtrot'
p3388
ssI308
(dp3389
g3
S'seattle'
p3390
sg5
S'regal meridian 16'
p3391
sg95
S'98101'
p3392
sg7
S'zoolander 2'
p3393
sg9
S'07a47ee8-297b-48ab-a83d-772ce51755cb'
p3394
sg11
S'wa'
p3395
sg422
S'cheapest'
p3396
sg13
S'2:00pm'
p3397
sg453
S'comedy'
p3398
sg17
S'2016-03-08'
p3399
sg19
S'wa'
p3400
sg21
S'2:00pm'
p3401
ssI309
(dp3402
g3
S'seattle'
p3403
sg5
S'regal meridian 16'
p3404
sg95
S'98101'
p3405
sg7
S'zoolander 2'
p3406
sg9
S'07a47ee8-297b-48ab-a83d-772ce51755cb'
p3407
sg11
S'wa'
p3408
sg422
S'cheapest'
p3409
sg13
S'4:30pm'
p3410
sg453
S'comedy'
p3411
sg17
S'2016-03-08'
p3412
sg19
S'wa'
p3413
sg21
S'4:30pm'
p3414
ssI310
(dp3415
g3
S'seattle'
p3416
sg5
S'regal meridian 16'
p3417
sg95
S'98101'
p3418
sg7
S'zoolander 2'
p3419
sg9
S'07a47ee8-297b-48ab-a83d-772ce51755cb'
p3420
sg11
S'wa'
p3421
sg422
S'cheapest'
p3422
sg13
S'7:00pm'
p3423
sg453
S'comedy'
p3424
sg17
S'2016-03-08'
p3425
sg19
S'wa'
p3426
sg21
S'7:00pm'
p3427
ssI311
(dp3428
g3
S'seattle'
p3429
sg5
S'regal meridian 16'
p3430
sg95
S'98101'
p3431
sg7
S'zoolander 2'
p3432
sg9
S'07a47ee8-297b-48ab-a83d-772ce51755cb'
p3433
sg11
S'wa'
p3434
sg422
S'cheapest'
p3435
sg13
S'9:25pm'
p3436
sg453
S'comedy'
p3437
sg17
S'2016-03-08'
p3438
sg19
S'wa'
p3439
sg21
S'9:25pm'
p3440
ssI312
(dp3441
g3
S'seattle'
p3442
sg5
S'regal meridian 16'
p3443
sg95
S'98101'
p3444
sg7
S'zoolander 2'
p3445
sg9
S'5cac12bc-413e-48dc-8704-01aea558bf9b'
p3446
sg453
S'comedy'
p3447
sg11
S'wa'
p3448
sg422
S'cheapest'
p3449
sg13
S'9:25pm'
p3450
sg15
S'tomorrow'
p3451
sg17
S'2016-03-09'
p3452
sg19
S'wa'
p3453
sg21
S'9:25pm'
p3454
ssI313
(dp3455
g3
S'seattle'
p3456
sg5
S'regal meridian 16'
p3457
sg95
S'98101'
p3458
sg7
S'zoolander 2'
p3459
sg9
S'b58a47d2-539f-47e8-b8dd-66ae55235905'
p3460
sg11
S'wa'
p3461
sg422
S'cheapest'
p3462
sg13
S'9:30pm'
p3463
sg453
S'comedy'
p3464
sg17
S'2016-03-15'
p3465
sg19
S'wa'
p3466
sg21
S'9:30pm'
p3467
ssI314
(dp3468
g3
S'seattle'
p3469
sg618
S'top'
p3470
sg9
S'6b3f4c5a-9c02-4c4a-995c-713fdc7d5e42'
p3471
sg15
S'last weekend'
p3472
sg1703
S'pg'
p3473
sg453
S'comedy'
p3474
sg17
S'2016-03-05'
p3475
sg7
S'Zootopia'
p3476
ssI315
(dp3477
g3
S'seattle'
p3478
sg5
S'regal meridian 16'
p3479
sg95
S'98101'
p3480
sg7
S'Zootopia'
p3481
sg9
S'62a0064b-4c81-4199-a2e1-647bc8a7ec6b'
p3482
sg11
S'wa'
p3483
sg1703
S'pg'
p3484
sg13
S'5:20'
p3485
sg453
S'comedy'
p3486
sg17
S'2016-03-08'
p3487
sg19
S'wa'
p3488
sg21
S'5:20pm'
p3489
ssI316
(dp3490
g3
S'seattle'
p3491
sg5
S'regal meridian 16'
p3492
sg95
S'98101'
p3493
sg7
S'Zootopia'
p3494
sg9
S'62a0064b-4c81-4199-a2e1-647bc8a7ec6b'
p3495
sg453
S'comedy'
p3496
sg11
S'wa'
p3497
sg1703
S'pg'
p3498
sg13
S'6:30pm'
p3499
sg15
S'tonight'
p3500
sg17
S'2016-03-08'
p3501
sg19
S'wa'
p3502
sg21
S'6:30pm'
p3503
ssI317
(dp3504
g3
S'seattle'
p3505
sg5
S'regal meridian 16'
p3506
sg7
S'Zootopia'
p3507
sg95
S'98101'
p3508
sg618
S'number 1'
p3509
sg9
S'62a0064b-4c81-4199-a2e1-647bc8a7ec6b'
p3510
sg599
S'regular'
p3511
sg11
S'wa'
p3512
sg1703
S'pg'
p3513
sg13
S'8:40pm'
p3514
sg15
S'tonight'
p3515
sg453
S'comedy'
p3516
sg19
S'wa'
p3517
sg21
S'8:40pm'
p3518
sg17
S'2016-03-08'
p3519
ssI318
(dp3520
g3
S'seattle'
p3521
sg5
S'regal meridian 16'
p3522
sg7
S'Zootopia'
p3523
sg95
S'98101'
p3524
sg618
S'number 1'
p3525
sg9
S'62a0064b-4c81-4199-a2e1-647bc8a7ec6b'
p3526
sg599
S'3d'
p3527
sg11
S'wa'
p3528
sg1703
S'pg'
p3529
sg13
S'8:00pm'
p3530
sg15
S'tonight'
p3531
sg453
S'comedy'
p3532
sg19
S'wa'
p3533
sg21
S'8:00pm'
p3534
sg17
S'2016-03-08'
p3535
ssI319
(dp3536
g3
S'bellevue'
p3537
sg5
S'bellevue lincoln square cinemas'
p3538
sg7
S'Zootopia'
p3539
sg95
S'98004'
p3540
sg618
S'number 1'
p3541
sg9
S'62a0064b-4c81-4199-a2e1-647bc8a7ec6b'
p3542
sg11
S'wa'
p3543
sg1703
S'pg'
p3544
sg13
S'4:10'
p3545
sg453
S'comedy'
p3546
sg17
S'2016-03-08'
p3547
sg19
S'wa'
p3548
sg21
S'4:10pm'
p3549
ssI320
(dp3550
g3
S'bellevue'
p3551
sg5
S'bellevue lincoln square cinemas'
p3552
sg7
S'Zootopia'
p3553
sg95
S'98004'
p3554
sg618
S'number 1'
p3555
sg9
S'62a0064b-4c81-4199-a2e1-647bc8a7ec6b'
p3556
sg453
S'comedy'
p3557
sg11
S'wa'
p3558
sg1703
S'pg'
p3559
sg13
S'7:00pm'
p3560
sg15
S'tonight'
p3561
sg17
S'2016-03-08'
p3562
sg19
S'wa'
p3563
sg21
S'7:00pm'
p3564
ssI321
(dp3565
g3
S'bellevue'
p3566
sg5
S'Regal Meridian'
p3567
sg7
S'Zootopia'
p3568
sg618
S'number 1'
p3569
sg9
S'379229ca-bb32-445b-b7f2-acf277dda052'
p3570
sg453
S'comedy'
p3571
sg11
S'wa'
p3572
sg1703
S'pg'
p3573
sg13
S'12:00'
p3574
sg15
S'tomorrow'
p3575
sg17
S'2016-03-09'
p3576
sg19
S'wa'
p3577
sg21
S'12:00pm'
p3578
ssI322
(dp3579
g3
S'bellevue'
p3580
sg5
S'Regal Meridian'
p3581
sg7
S'Zootopia'
p3582
sg618
S'number 1'
p3583
sg9
S'379229ca-bb32-445b-b7f2-acf277dda052'
p3584
sg453
S'comedy'
p3585
sg11
S'wa'
p3586
sg1703
S'pg'
p3587
sg13
S'1:10'
p3588
sg15
S'tomorrow'
p3589
sg17
S'2016-03-09'
p3590
sg19
S'wa'
p3591
sg21
S'1:10pm'
p3592
ssI323
(dp3593
g3
S'bellevue'
p3594
sg5
S'Regal Meridian'
p3595
sg7
S'Zootopia'
p3596
sg618
S'number 1'
p3597
sg9
S'379229ca-bb32-445b-b7f2-acf277dda052'
p3598
sg453
S'comedy'
p3599
sg11
S'wa'
p3600
sg1703
S'pg'
p3601
sg13
S'2:40'
p3602
sg15
S'tomorrow'
p3603
sg17
S'2016-03-09'
p3604
sg19
S'wa'
p3605
sg21
S'2:40pm'
p3606
ssI324
(dp3607
g3
S'bellevue'
p3608
sg5
S'Regal Meridian'
p3609
sg7
S'Zootopia'
p3610
sg618
S'number 1'
p3611
sg9
S'379229ca-bb32-445b-b7f2-acf277dda052'
p3612
sg453
S'comedy'
p3613
sg11
S'wa'
p3614
sg1703
S'pg'
p3615
sg13
S'3:50'
p3616
sg15
S'tomorrow'
p3617
sg17
S'2016-03-09'
p3618
sg19
S'wa'
p3619
sg21
S'3:50pm'
p3620
ssI325
(dp3621
g3
S'bellevue'
p3622
sg5
S'bellevue lincoln square cinemas'
p3623
sg7
S'Zootopia'
p3624
sg95
S'98004'
p3625
sg618
S'number 1'
p3626
sg9
S'62a0064b-4c81-4199-a2e1-647bc8a7ec6b'
p3627
sg453
S'comedy'
p3628
sg11
S'wa'
p3629
sg1703
S'pg'
p3630
sg13
S'9:50pm'
p3631
sg15
S'tonight'
p3632
sg17
S'2016-03-08'
p3633
sg19
S'wa'
p3634
sg21
S'9:50pm'
p3635
ssI326
(dp3636
g3
S'seattle'
p3637
sg5
S'AMC Elmwood Palace 20'
p3638
sg7
S'Zootopia'
p3639
sg9
S'a9066c3e-0bb5-4179-90f5-5acb615326ee'
p3640
sg453
S'comedy'
p3641
sg11
S'wa'
p3642
sg1703
S'pg'
p3643
sg13
S'5:00 pm'
p3644
sg15
S'tomorrow'
p3645
sg17
S'2016-03-09'
p3646
sg19
S'wa'
p3647
sg21
S'5:00pm'
p3648
ssI327
(dp3649
g3
S'bellevue'
p3650
sg5
S'bellevue lincoln square cinemas'
p3651
sg7
S'Zootopia'
p3652
sg95
S'98004'
p3653
sg618
S'number 1'
p3654
sg9
S'6d08c795-6258-4892-968d-c41ca29cb41b'
p3655
sg453
S'comedy'
p3656
sg11
S'wa'
p3657
sg1703
S'pg'
p3658
sg13
S'10:00am'
p3659
sg15
S'this weekend'
p3660
sg17
S'2016-03-12'
p3661
sg19
S'wa'
p3662
sg21
S'10:00am'
p3663
ssI328
(dp3664
g3
S'bellevue'
p3665
sg5
S'bellevue lincoln square cinemas'
p3666
sg7
S'Zootopia'
p3667
sg95
S'98004'
p3668
sg618
S'number 1'
p3669
sg9
S'6d08c795-6258-4892-968d-c41ca29cb41b'
p3670
sg453
S'comedy'
p3671
sg11
S'wa'
p3672
sg1703
S'pg'
p3673
sg13
S'11:30am'
p3674
sg15
S'this weekend'
p3675
sg17
S'2016-03-12'
p3676
sg19
S'wa'
p3677
sg21
S'11:30am'
p3678
ssI329
(dp3679
g3
S'bellevue'
p3680
sg5
S'bellevue lincoln square cinemas'
p3681
sg7
S'Zootopia'
p3682
sg95
S'98004'
p3683
sg618
S'number 1'
p3684
sg9
S'6d08c795-6258-4892-968d-c41ca29cb41b'
p3685
sg453
S'comedy'
p3686
sg11
S'wa'
p3687
sg1703
S'pg'
p3688
sg13
S'1:05pm'
p3689
sg15
S'this weekend'
p3690
sg17
S'2016-03-12'
p3691
sg19
S'wa'
p3692
sg21
S'1:05pm'
p3693
ssI330
(dp3694
g3
S'bellevue'
p3695
sg5
S'bellevue lincoln square cinemas'
p3696
sg7
S'Zootopia'
p3697
sg95
S'98004'
p3698
sg618
S'number 1'
p3699
sg9
S'6d08c795-6258-4892-968d-c41ca29cb41b'
p3700
sg453
S'comedy'
p3701
sg11
S'wa'
p3702
sg1703
S'pg'
p3703
sg13
S'2:35pm'
p3704
sg15
S'this weekend'
p3705
sg17
S'2016-03-12'
p3706
sg19
S'wa'
p3707
sg21
S'2:35pm'
p3708
ssI331
(dp3709
g3
S'bellevue'
p3710
sg5
S'bellevue lincoln square cinemas'
p3711
sg7
S'Zootopia'
p3712
sg95
S'98004'
p3713
sg618
S'number 1'
p3714
sg9
S'6d08c795-6258-4892-968d-c41ca29cb41b'
p3715
sg453
S'comedy'
p3716
sg11
S'wa'
p3717
sg1703
S'pg'
p3718
sg13
S'4:10pm'
p3719
sg15
S'this weekend'
p3720
sg17
S'2016-03-12'
p3721
sg19
S'wa'
p3722
sg21
S'4:10pm'
p3723
ssI332
(dp3724
g3
S'bellevue'
p3725
sg5
S'bellevue lincoln square cinemas'
p3726
sg7
S'Zootopia'
p3727
sg95
S'98004'
p3728
sg618
S'number 1'
p3729
sg9
S'6d08c795-6258-4892-968d-c41ca29cb41b'
p3730
sg453
S'comedy'
p3731
sg11
S'wa'
p3732
sg1703
S'pg'
p3733
sg13
S'5:40pm'
p3734
sg15
S'this weekend'
p3735
sg17
S'2016-03-12'
p3736
sg19
S'wa'
p3737
sg21
S'5:40pm'
p3738
ssI333
(dp3739
g3
S'bellevue'
p3740
sg5
S'bellevue lincoln square cinemas'
p3741
sg7
S'Zootopia'
p3742
sg95
S'98004'
p3743
sg618
S'number 1'
p3744
sg9
S'6d08c795-6258-4892-968d-c41ca29cb41b'
p3745
sg453
S'comedy'
p3746
sg11
S'wa'
p3747
sg1703
S'pg'
p3748
sg13
S'7:05pm'
p3749
sg15
S'this weekend'
p3750
sg17
S'2016-03-12'
p3751
sg19
S'wa'
p3752
sg21
S'7:05pm'
p3753
ssI334
(dp3754
g3
S'bellevue'
p3755
sg5
S'bellevue lincoln square cinemas'
p3756
sg7
S'Zootopia'
p3757
sg95
S'98004'
p3758
sg618
S'number 1'
p3759
sg9
S'6d08c795-6258-4892-968d-c41ca29cb41b'
p3760
sg453
S'comedy'
p3761
sg11
S'wa'
p3762
sg1703
S'pg'
p3763
sg13
S'8:35pm'
p3764
sg15
S'this weekend'
p3765
sg17
S'2016-03-12'
p3766
sg19
S'wa'
p3767
sg21
S'8:35pm'
p3768
ssI335
(dp3769
g3
S'bellevue'
p3770
sg5
S'bellevue lincoln square cinemas'
p3771
sg7
S'Zootopia'
p3772
sg95
S'98004'
p3773
sg618
S'number 1'
p3774
sg9
S'6d08c795-6258-4892-968d-c41ca29cb41b'
p3775
sg453
S'comedy'
p3776
sg11
S'wa'
p3777
sg1703
S'pg'
p3778
sg13
S'9:55pm'
p3779
sg15
S'this weekend'
p3780
sg17
S'2016-03-12'
p3781
sg19
S'wa'
p3782
sg21
S'9:55pm'
p3783
ssI336
(dp3784
g3
S'seattle'
p3785
sg5
S'PACIFIC SCIENCE CENTER IMAX THEATERS'
p3786
sg95
S'98109'
p3787
sg7
S'Zootopia'
p3788
sg9
S'6d08c795-6258-4892-968d-c41ca29cb41b'
p3789
sg11
S'wa'
p3790
sg1703
S'pg'
p3791
sg13
S'11:45am'
p3792
sg15
S'this weekend'
p3793
sg17
S'2016-03-12'
p3794
sg19
S'wa'
p3795
sg21
S'11:45am'
p3796
ssI337
(dp3797
g3
S'seattle'
p3798
sg5
S'PACIFIC SCIENCE CENTER IMAX THEATERS'
p3799
sg95
S'98109'
p3800
sg7
S'Zootopia'
p3801
sg9
S'6d08c795-6258-4892-968d-c41ca29cb41b'
p3802
sg11
S'wa'
p3803
sg1703
S'pg'
p3804
sg13
S'2:15pm'
p3805
sg15
S'this weekend'
p3806
sg17
S'2016-03-12'
p3807
sg19
S'wa'
p3808
sg21
S'2:15pm'
p3809
ssI338
(dp3810
g3
S'seattle'
p3811
sg5
S'PACIFIC SCIENCE CENTER IMAX THEATERS'
p3812
sg95
S'98109'
p3813
sg7
S'Zootopia'
p3814
sg9
S'6d08c795-6258-4892-968d-c41ca29cb41b'
p3815
sg11
S'wa'
p3816
sg1703
S'pg'
p3817
sg13
S'4:30pm'
p3818
sg15
S'this weekend'
p3819
sg17
S'2016-03-12'
p3820
sg19
S'wa'
p3821
sg21
S'4:30pm'
p3822
ssI339
(dp3823
g3
S'seattle'
p3824
sg5
S'PACIFIC SCIENCE CENTER IMAX THEATERS'
p3825
sg95
S'98109'
p3826
sg7
S'Zootopia'
p3827
sg9
S'6d08c795-6258-4892-968d-c41ca29cb41b'
p3828
sg453
S'animated'
p3829
sg11
S'wa'
p3830
sg1703
S'pg'
p3831
sg13
S'7:00pm'
p3832
sg15
S'this weekend'
p3833
sg17
S'2016-03-12'
p3834
sg19
S'wa'
p3835
sg21
S'7:00pm'
p3836
ssI340
(dp3837
g3
S'Buford'
p3838
sg9
S'f4a2dcbe-8860-45ba-93f6-229b59a091fe'
p3839
sg453
S'comedy'
p3840
sg11
S'Georgia'
p3841
sg1703
S'pg'
p3842
sg15
S'friday'
p3843
sg17
S'2016-03-11'
p3844
sg19
S'ga'
p3845
sg7
S'Zootopia'
p3846
ssI341
(dp3847
g3
S'seattle'
p3848
sg5
S'varsity theater'
p3849
sg9
S'9bf116b5-3e1b-4cce-ad37-adb7238784be'
p3850
sg453
S'comedy'
p3851
sg11
S'wa'
p3852
sg1703
S'pg'
p3853
sg15
S'tonight'
p3854
sg17
S'2016-03-08'
p3855
sg19
S'wa'
p3856
sg7
S'Zootopia'
p3857
ssI342
(dp3858
g3
S'bellevue'
p3859
sg5
S'bellevue lincoln square cinemas'
p3860
sg95
S'98004'
p3861
sg7
S'Zootopia'
p3862
sg9
S'9bf116b5-3e1b-4cce-ad37-adb7238784be'
p3863
sg599
S'3d'
p3864
sg11
S'wa'
p3865
sg1703
S'pg'
p3866
sg13
S'7:30'
p3867
sg15
S'tomorrow'
p3868
sg453
S'comedy'
p3869
sg19
S'wa'
p3870
sg21
S'7:30pm'
p3871
sg17
S'2016-03-09'
p3872
ssI343
(dp3873
g3
S'bellevue'
p3874
sg5
S'bellevue lincoln square cinemas'
p3875
sg95
S'98004'
p3876
sg7
S'Zootopia'
p3877
sg9
S'9bf116b5-3e1b-4cce-ad37-adb7238784be'
p3878
sg599
S'regular'
p3879
sg11
S'wa'
p3880
sg1703
S'pg'
p3881
sg13
S'7:00'
p3882
sg15
S'tomorrow'
p3883
sg453
S'comedy'
p3884
sg19
S'wa'
p3885
sg21
S'7:00pm'
p3886
sg17
S'2016-03-09'
p3887
ssI344
(dp3888
g3
S'seattle'
p3889
sg5
S'regal meridian 16'
p3890
sg95
S'98101'
p3891
sg7
S'Zootopia'
p3892
sg9
S'eb5e4094-0110-4672-bc7c-4c8c05c12bd5'
p3893
sg599
S'3d'
p3894
sg11
S'wa'
p3895
sg1703
S'pg'
p3896
sg13
S'9:10 pm'
p3897
sg15
S'tomorrow'
p3898
sg453
S'comedy'
p3899
sg19
S'wa'
p3900
sg21
S'9:10pm'
p3901
sg17
S'2016-03-09'
p3902
ssI345
(dp3903
g3
S'bellevue'
p3904
sg5
S'bellevue lincoln square cinemas'
p3905
sg95
S'98004'
p3906
sg618
S'4.5/5'
p3907
sg9
S'eb5e4094-0110-4672-bc7c-4c8c05c12bd5'
p3908
sg11
S'wa'
p3909
sg1703
S'pg'
p3910
sg15
S'tonight'
p3911
sg17
S'2016-03-08'
p3912
sg19
S'wa'
p3913
sg7
S'Zootopia'
p3914
ssI346
(dp3915
g3
S'st louis'
p3916
sg5
S'Chase Park Plaza Cinemas'
p3917
sg7
S'Zootopia'
p3918
sg9
S'ae8d13cb-70b1-445f-b7d3-36dd5eeda4f0'
p3919
sg1703
S'pg'
p3920
sg13
S'11:00am'
p3921
sg15
S'Thursday'
p3922
sg17
S'2016-03-10'
p3923
sg21
S'11:00am'
p3924
ssI347
(dp3925
g3
S'st louis'
p3926
sg5
S'Chase Park Plaza Cinemas'
p3927
sg7
S'Zootopia'
p3928
sg9
S'ae8d13cb-70b1-445f-b7d3-36dd5eeda4f0'
p3929
sg1703
S'pg'
p3930
sg13
S'1:30pm'
p3931
sg15
S'Thursday'
p3932
sg17
S'2016-03-10'
p3933
sg21
S'1:30pm'
p3934
ssI348
(dp3935
g3
S'st louis'
p3936
sg5
S'Chase Park Plaza Cinemas'
p3937
sg7
S'Zootopia'
p3938
sg9
S'ae8d13cb-70b1-445f-b7d3-36dd5eeda4f0'
p3939
sg1703
S'pg'
p3940
sg13
S'4:00pm'
p3941
sg15
S'Thursday'
p3942
sg17
S'2016-03-10'
p3943
sg21
S'4:00pm'
p3944
ssI349
(dp3945
g3
S'birmingham'
p3946
sg5
S'carmike summit 16'
p3947
sg95
S'35243'
p3948
sg7
S'Zootopia'
p3949
sg9
S'2f3f1c57-a2e4-4eef-9845-0802cf62455e'
p3950
sg11
S'al'
p3951
sg1703
S'pg'
p3952
sg13
S'10:00am'
p3953
sg15
S'Saturday'
p3954
sg17
S'2016-03-12'
p3955
sg19
S'al'
p3956
sg21
S'10:00am'
p3957
ssI350
(dp3958
g3
S'birmingham'
p3959
sg5
S'carmike summit 16'
p3960
sg95
S'35243'
p3961
sg7
S'Zootopia'
p3962
sg9
S'2f3f1c57-a2e4-4eef-9845-0802cf62455e'
p3963
sg11
S'al'
p3964
sg1703
S'pg'
p3965
sg13
S'10:45am'
p3966
sg15
S'Saturday'
p3967
sg17
S'2016-03-12'
p3968
sg19
S'al'
p3969
sg21
S'10:45am'
p3970
ssI351
(dp3971
g3
S'birmingham'
p3972
sg5
S'carmike summit 16'
p3973
sg95
S'35243'
p3974
sg7
S'Zootopia'
p3975
sg9
S'2f3f1c57-a2e4-4eef-9845-0802cf62455e'
p3976
sg11
S'al'
p3977
sg1703
S'pg'
p3978
sg13
S'11:15am'
p3979
sg15
S'Saturday'
p3980
sg17
S'2016-03-12'
p3981
sg19
S'al'
p3982
sg21
S'11:15am'
p3983
ssI352
(dp3984
g3
S'birmingham'
p3985
sg5
S'carmike summit 16'
p3986
sg95
S'35243'
p3987
sg7
S'Zootopia'
p3988
sg9
S'2f3f1c57-a2e4-4eef-9845-0802cf62455e'
p3989
sg11
S'al'
p3990
sg1703
S'pg'
p3991
sg13
S'1:00pm'
p3992
sg15
S'Saturday'
p3993
sg17
S'2016-03-12'
p3994
sg19
S'al'
p3995
sg21
S'1:00pm'
p3996
ssI353
(dp3997
g3
S'birmingham'
p3998
sg5
S'carmike summit 16'
p3999
sg95
S'35243'
p4000
sg7
S'Zootopia'
p4001
sg9
S'2f3f1c57-a2e4-4eef-9845-0802cf62455e'
p4002
sg11
S'al'
p4003
sg1703
S'pg'
p4004
sg13
S'1:45pm'
p4005
sg15
S'Saturday'
p4006
sg17
S'2016-03-12'
p4007
sg19
S'al'
p4008
sg21
S'1:45pm'
p4009
ssI354
(dp4010
g3
S'birmingham'
p4011
sg5
S'carmike summit 16'
p4012
sg95
S'35243'
p4013
sg7
S'Zootopia'
p4014
sg9
S'2f3f1c57-a2e4-4eef-9845-0802cf62455e'
p4015
sg11
S'al'
p4016
sg1703
S'pg'
p4017
sg13
S'2:15pm'
p4018
sg15
S'Saturday'
p4019
sg17
S'2016-03-12'
p4020
sg19
S'al'
p4021
sg21
S'2:15pm'
p4022
ssI355
(dp4023
g3
S'birmingham'
p4024
sg5
S'carmike summit 16'
p4025
sg95
S'35243'
p4026
sg7
S'Zootopia'
p4027
sg9
S'2f3f1c57-a2e4-4eef-9845-0802cf62455e'
p4028
sg11
S'al'
p4029
sg1703
S'pg'
p4030
sg13
S'4:00pm'
p4031
sg15
S'Saturday'
p4032
sg17
S'2016-03-12'
p4033
sg19
S'al'
p4034
sg21
S'4:00pm'
p4035
ssI356
(dp4036
g3
S'birmingham'
p4037
sg5
S'carmike summit 16'
p4038
sg95
S'35243'
p4039
sg7
S'Zootopia'
p4040
sg9
S'2f3f1c57-a2e4-4eef-9845-0802cf62455e'
p4041
sg11
S'al'
p4042
sg1703
S'pg'
p4043
sg13
S'4:45pm'
p4044
sg15
S'Saturday'
p4045
sg17
S'2016-03-12'
p4046
sg19
S'al'
p4047
sg21
S'4:45pm'
p4048
ssI357
(dp4049
g3
S'birmingham'
p4050
sg5
S'carmike summit 16'
p4051
sg95
S'35243'
p4052
sg7
S'Zootopia'
p4053
sg9
S'2f3f1c57-a2e4-4eef-9845-0802cf62455e'
p4054
sg11
S'al'
p4055
sg1703
S'pg'
p4056
sg13
S'5:15pm'
p4057
sg15
S'Saturday'
p4058
sg17
S'2016-03-12'
p4059
sg19
S'al'
p4060
sg21
S'5:15pm'
p4061
ssI358
(dp4062
g3
S'birmingham'
p4063
sg5
S'carmike summit 16'
p4064
sg95
S'35243'
p4065
sg7
S'Zootopia'
p4066
sg9
S'2f3f1c57-a2e4-4eef-9845-0802cf62455e'
p4067
sg11
S'al'
p4068
sg1703
S'pg'
p4069
sg13
S'6:45pm'
p4070
sg15
S'Saturday'
p4071
sg17
S'2016-03-12'
p4072
sg19
S'al'
p4073
sg21
S'6:45pm'
p4074
ssI359
(dp4075
g3
S'birmingham'
p4076
sg5
S'carmike summit 16'
p4077
sg95
S'35243'
p4078
sg7
S'Zootopia'
p4079
sg9
S'2f3f1c57-a2e4-4eef-9845-0802cf62455e'
p4080
sg11
S'al'
p4081
sg1703
S'pg'
p4082
sg13
S'7:30pm'
p4083
sg15
S'Saturday'
p4084
sg17
S'2016-03-12'
p4085
sg19
S'al'
p4086
sg21
S'7:30pm'
p4087
ssI360
(dp4088
g3
S'birmingham'
p4089
sg5
S'carmike summit 16'
p4090
sg95
S'35243'
p4091
sg7
S'Zootopia'
p4092
sg9
S'2f3f1c57-a2e4-4eef-9845-0802cf62455e'
p4093
sg11
S'al'
p4094
sg1703
S'pg'
p4095
sg13
S'9:30pm'
p4096
sg15
S'Saturday'
p4097
sg17
S'2016-03-12'
p4098
sg19
S'al'
p4099
sg21
S'9:30pm'
p4100
ssI361
(dp4101
g3
S'birmingham'
p4102
sg5
S'carmike summit 16'
p4103
sg95
S'35243'
p4104
sg7
S'Zootopia'
p4105
sg9
S'2f3f1c57-a2e4-4eef-9845-0802cf62455e'
p4106
sg11
S'al'
p4107
sg1703
S'pg'
p4108
sg13
S'10:30pm'
p4109
sg15
S'Saturday'
p4110
sg17
S'2016-03-12'
p4111
sg19
S'al'
p4112
sg21
S'10:30pm'
p4113
ssI362
(dp4114
g3
S'hoover'
p4115
sg5
S'carmike patton creek'
p4116
sg95
S'35244'
p4117
sg7
S'Zootopia'
p4118
sg9
S'2f3f1c57-a2e4-4eef-9845-0802cf62455e'
p4119
sg11
S'al'
p4120
sg1703
S'pg'
p4121
sg13
S'10:05am'
p4122
sg15
S'Saturday'
p4123
sg17
S'2016-03-12'
p4124
sg19
S'al'
p4125
sg21
S'10:05am'
p4126
ssI363
(dp4127
g3
S'hoover'
p4128
sg5
S'carmike patton creek'
p4129
sg95
S'35244'
p4130
sg7
S'Zootopia'
p4131
sg9
S'2f3f1c57-a2e4-4eef-9845-0802cf62455e'
p4132
sg11
S'al'
p4133
sg1703
S'pg'
p4134
sg13
S'11:00am'
p4135
sg15
S'Saturday'
p4136
sg17
S'2016-03-12'
p4137
sg19
S'al'
p4138
sg21
S'11:00am'
p4139
ssI364
(dp4140
g3
S'hoover'
p4141
sg5
S'carmike patton creek'
p4142
sg95
S'35244'
p4143
sg7
S'Zootopia'
p4144
sg9
S'2f3f1c57-a2e4-4eef-9845-0802cf62455e'
p4145
sg11
S'al'
p4146
sg1703
S'pg'
p4147
sg13
S'1:05pm'
p4148
sg15
S'Saturday'
p4149
sg17
S'2016-03-12'
p4150
sg19
S'al'
p4151
sg21
S'1:05pm'
p4152
ssI365
(dp4153
g3
S'hoover'
p4154
sg5
S'carmike patton creek'
p4155
sg95
S'35244'
p4156
sg7
S'Zootopia'
p4157
sg9
S'2f3f1c57-a2e4-4eef-9845-0802cf62455e'
p4158
sg11
S'al'
p4159
sg1703
S'pg'
p4160
sg13
S'2:00pm'
p4161
sg15
S'Saturday'
p4162
sg17
S'2016-03-12'
p4163
sg19
S'al'
p4164
sg21
S'2:00pm'
p4165
ssI366
(dp4166
g3
S'hoover'
p4167
sg5
S'carmike patton creek'
p4168
sg95
S'35244'
p4169
sg7
S'Zootopia'
p4170
sg9
S'2f3f1c57-a2e4-4eef-9845-0802cf62455e'
p4171
sg11
S'al'
p4172
sg1703
S'pg'
p4173
sg13
S'4:05pm'
p4174
sg15
S'Saturday'
p4175
sg17
S'2016-03-12'
p4176
sg19
S'al'
p4177
sg21
S'4:05pm'
p4178
ssI367
(dp4179
g3
S'hoover'
p4180
sg5
S'carmike patton creek'
p4181
sg95
S'35244'
p4182
sg7
S'Zootopia'
p4183
sg9
S'2f3f1c57-a2e4-4eef-9845-0802cf62455e'
p4184
sg11
S'al'
p4185
sg1703
S'pg'
p4186
sg13
S'4:50pm'
p4187
sg15
S'Saturday'
p4188
sg17
S'2016-03-12'
p4189
sg19
S'al'
p4190
sg21
S'4:50pm'
p4191
ssI368
(dp4192
g3
S'hoover'
p4193
sg5
S'carmike patton creek'
p4194
sg95
S'35244'
p4195
sg7
S'Zootopia'
p4196
sg9
S'2f3f1c57-a2e4-4eef-9845-0802cf62455e'
p4197
sg11
S'al'
p4198
sg1703
S'pg'
p4199
sg13
S'6:45pm'
p4200
sg15
S'Saturday'
p4201
sg17
S'2016-03-12'
p4202
sg19
S'al'
p4203
sg21
S'6:45pm'
p4204
ssI369
(dp4205
g3
S'hoover'
p4206
sg5
S'carmike patton creek'
p4207
sg95
S'35244'
p4208
sg7
S'Zootopia'
p4209
sg9
S'2f3f1c57-a2e4-4eef-9845-0802cf62455e'
p4210
sg11
S'al'
p4211
sg1703
S'pg'
p4212
sg13
S'7:45pm'
p4213
sg15
S'Saturday'
p4214
sg17
S'2016-03-12'
p4215
sg19
S'al'
p4216
sg21
S'7:45pm'
p4217
ssI370
(dp4218
g3
S'hoover'
p4219
sg5
S'carmike patton creek'
p4220
sg95
S'35244'
p4221
sg7
S'Zootopia'
p4222
sg9
S'2f3f1c57-a2e4-4eef-9845-0802cf62455e'
p4223
sg11
S'al'
p4224
sg1703
S'pg'
p4225
sg13
S'9:30pm'
p4226
sg15
S'Saturday'
p4227
sg17
S'2016-03-12'
p4228
sg19
S'al'
p4229
sg21
S'9:30pm'
p4230
ssI371
(dp4231
g3
S'hoover'
p4232
sg5
S'carmike patton creek'
p4233
sg95
S'35244'
p4234
sg7
S'Zootopia'
p4235
sg9
S'2f3f1c57-a2e4-4eef-9845-0802cf62455e'
p4236
sg11
S'al'
p4237
sg1703
S'pg'
p4238
sg13
S'10:30pm'
p4239
sg15
S'Saturday'
p4240
sg17
S'2016-03-12'
p4241
sg19
S'al'
p4242
sg21
S'10:30pm'
p4243
ssI372
(dp4244
g3
S'seattle'
p4245
sg5
S'regal meridian 16'
p4246
sg95
S'98101'
p4247
sg7
S'Zootopia'
p4248
sg9
S'62a0064b-4c81-4199-a2e1-647bc8a7ec6b'
p4249
sg453
S'comedy'
p4250
sg11
S'wa'
p4251
sg1703
S'pg'
p4252
sg13
S'9:10 PM'
p4253
sg15
S'tonight'
p4254
sg17
S'2016-03-09'
p4255
sg19
S'wa'
p4256
sg21
S'9:10pm'
p4257
ssI373
(dp4258
g3
S'seattle'
p4259
sg5
S'regal meridian 16'
p4260
sg95
S'98101'
p4261
sg7
S'Zootopia'
p4262
sg9
S'83adb592-fa6e-4a34-a191-b3e81cfc4572'
p4263
sg453
S'comedy'
p4264
sg11
S'wa'
p4265
sg1703
S'pg'
p4266
sg13
S'8:40PM'
p4267
sg15
S'tonight'
p4268
sg17
S'2016-03-09'
p4269
sg19
S'wa'
p4270
sg21
S'8:40pm'
p4271
ssI374
(dp4272
g3
S'seattle'
p4273
sg5
S'Pacific Science Center IMAX Theaters'
p4274
sg9
S'fa29bdbc-f914-4796-a2d7-79e45b3102c0'
p4275
sg11
S'wa'
p4276
sg1703
S'pg'
p4277
sg15
S'tomorrow'
p4278
sg17
S'2016-03-09'
p4279
sg19
S'wa'
p4280
sg7
S'Zootopia'
p4281
ssI375
(dp4282
g3
S'Des Moines'
p4283
sg9
S'f48ab6ff-27c8-4af1-b726-5d6eea33846c'
p4284
sg11
S'iowa'
p4285
sg17
S'2016-03-08'
p4286
sg19
S'ia'
p4287
sg7
S'Zootopia'
p4288
ssI376
(dp4289
g9
S'829f7f20-639f-407f-a7bb-6d8a232eeecd'
p4290
sg7
S'Zootopia'
p4291
sg21
S'5:00pm'
p4292
sg5
S'AMC Elmwood Palace 20'
p4293
sg13
S'5:00 pm'
p4294
ssI377
(dp4295
g3
S'johnstown'
p4296
sg5
S'Richland Cinemas'
p4297
sg7
S'Zootopia'
p4298
sg9
S'29a2f6dd-086c-456c-9c43-d80b19964803'
p4299
sg599
S'2d'
p4300
sg11
S'Pennsylvania'
p4301
sg13
S'2:45pm'
p4302
sg15
S'tomorrow'
p4303
sg17
S'2016-03-10'
p4304
sg19
S'pa'
p4305
sg21
S'2:45pm'
p4306
ssI378
(dp4307
g3
S'johnstown'
p4308
sg5
S'Richland Cinemas'
p4309
sg7
S'Zootopia'
p4310
sg9
S'29a2f6dd-086c-456c-9c43-d80b19964803'
p4311
sg599
S'3d'
p4312
sg11
S'Pennsylvania'
p4313
sg13
S'1:15pm'
p4314
sg15
S'tomorrow'
p4315
sg17
S'2016-03-10'
p4316
sg19
S'pa'
p4317
sg21
S'1:15pm'
p4318
ssI379
(dp4319
g5
S'CARMIKE LEE BRANCH 15'
p4320
sg21
S'1:30pm'
p4321
sg9
S'a17a59c8-351a-4817-8374-0359163b888f'
p4322
sg13
S'1:30'
p4323
sg17
S'2016-03-10'
p4324
sg7
S'Zootopia'
p4325
ssI380
(dp4326
g5
S'CARMIKE LEE BRANCH 15'
p4327
sg21
S'4:00pm'
p4328
sg9
S'a17a59c8-351a-4817-8374-0359163b888f'
p4329
sg13
S'4:00'
p4330
sg17
S'2016-03-10'
p4331
sg7
S'Zootopia'
p4332
ssI381
(dp4333
g3
S'hamilton'
p4334
sg5
S'MANVILLE 12 PLEX '
p4335
sg95
S'08835'
p4336
sg7
S'Zootopia'
p4337
sg9
S'e34f59d8-6be9-4e3a-b571-ffcc4f807e9f'
p4338
sg11
S'nj'
p4339
sg13
S'10:30am'
p4340
sg15
S'tomorrow'
p4341
sg17
S'2016-03-10'
p4342
sg19
S'nj'
p4343
sg21
S'10:30am'
p4344
ssI382
(dp4345
g3
S'hamilton'
p4346
sg5
S'MANVILLE 12 PLEX '
p4347
sg95
S'08835'
p4348
sg7
S'Zootopia'
p4349
sg9
S'e34f59d8-6be9-4e3a-b571-ffcc4f807e9f'
p4350
sg11
S'nj'
p4351
sg13
S'11:10am'
p4352
sg15
S'tomorrow'
p4353
sg17
S'2016-03-10'
p4354
sg19
S'nj'
p4355
sg21
S'11:10am'
p4356
ssI383
(dp4357
g3
S'hamilton'
p4358
sg5
S'MANVILLE 12 PLEX '
p4359
sg95
S'08835'
p4360
sg7
S'Zootopia'
p4361
sg9
S'e34f59d8-6be9-4e3a-b571-ffcc4f807e9f'
p4362
sg11
S'nj'
p4363
sg13
S'1:10pm'
p4364
sg15
S'tomorrow'
p4365
sg17
S'2016-03-10'
p4366
sg19
S'nj'
p4367
sg21
S'1:10pm'
p4368
ssI384
(dp4369
g3
S'hamilton'
p4370
sg5
S'MANVILLE 12 PLEX '
p4371
sg95
S'08835'
p4372
sg7
S'Zootopia'
p4373
sg9
S'e34f59d8-6be9-4e3a-b571-ffcc4f807e9f'
p4374
sg11
S'nj'
p4375
sg13
S'1:50pm'
p4376
sg15
S'tomorrow'
p4377
sg17
S'2016-03-10'
p4378
sg19
S'nj'
p4379
sg21
S'1:50pm'
p4380
ssI385
(dp4381
g3
S'hamilton'
p4382
sg5
S'MANVILLE 12 PLEX '
p4383
sg95
S'08835'
p4384
sg7
S'Zootopia'
p4385
sg9
S'e34f59d8-6be9-4e3a-b571-ffcc4f807e9f'
p4386
sg11
S'nj'
p4387
sg13
S'3:45pm'
p4388
sg15
S'tomorrow'
p4389
sg17
S'2016-03-10'
p4390
sg19
S'nj'
p4391
sg21
S'3:45pm'
p4392
ssI386
(dp4393
g3
S'hamilton'
p4394
sg5
S'MANVILLE 12 PLEX '
p4395
sg95
S'08835'
p4396
sg7
S'Zootopia'
p4397
sg9
S'e34f59d8-6be9-4e3a-b571-ffcc4f807e9f'
p4398
sg11
S'nj'
p4399
sg13
S'4:30pm'
p4400
sg15
S'tomorrow'
p4401
sg17
S'2016-03-10'
p4402
sg19
S'nj'
p4403
sg21
S'4:30pm'
p4404
ssI387
(dp4405
g3
S'hamilton'
p4406
sg5
S'MANVILLE 12 PLEX '
p4407
sg95
S'08835'
p4408
sg7
S'Zootopia'
p4409
sg9
S'e34f59d8-6be9-4e3a-b571-ffcc4f807e9f'
p4410
sg11
S'nj'
p4411
sg13
S'5:20pm'
p4412
sg15
S'tomorrow'
p4413
sg17
S'2016-03-10'
p4414
sg19
S'nj'
p4415
sg21
S'5:20pm'
p4416
ssI388
(dp4417
g3
S'hamilton'
p4418
sg5
S'MANVILLE 12 PLEX '
p4419
sg95
S'08835'
p4420
sg7
S'Zootopia'
p4421
sg9
S'e34f59d8-6be9-4e3a-b571-ffcc4f807e9f'
p4422
sg11
S'nj'
p4423
sg13
S'6:30pm'
p4424
sg15
S'tomorrow'
p4425
sg17
S'2016-03-10'
p4426
sg19
S'nj'
p4427
sg21
S'6:30pm'
p4428
ssI389
(dp4429
g3
S'hamilton'
p4430
sg5
S'MANVILLE 12 PLEX '
p4431
sg95
S'08835'
p4432
sg7
S'Zootopia'
p4433
sg9
S'e34f59d8-6be9-4e3a-b571-ffcc4f807e9f'
p4434
sg11
S'nj'
p4435
sg13
S'7:15pm'
p4436
sg15
S'tomorrow'
p4437
sg17
S'2016-03-10'
p4438
sg19
S'nj'
p4439
sg21
S'7:15pm'
p4440
ssI390
(dp4441
g3
S'hamilton'
p4442
sg5
S'MANVILLE 12 PLEX '
p4443
sg95
S'08835'
p4444
sg7
S'Zootopia'
p4445
sg9
S'e34f59d8-6be9-4e3a-b571-ffcc4f807e9f'
p4446
sg11
S'nj'
p4447
sg13
S'9:10pm'
p4448
sg15
S'tomorrow'
p4449
sg17
S'2016-03-10'
p4450
sg19
S'nj'
p4451
sg21
S'9:10pm'
p4452
ssI391
(dp4453
g3
S'hamilton'
p4454
sg5
S'MANVILLE 12 PLEX '
p4455
sg95
S'08835'
p4456
sg7
S'Zootopia'
p4457
sg9
S'e34f59d8-6be9-4e3a-b571-ffcc4f807e9f'
p4458
sg11
S'nj'
p4459
sg13
S'10:30pm'
p4460
sg15
S'tomorrow'
p4461
sg17
S'2016-03-10'
p4462
sg19
S'nj'
p4463
sg21
S'10:30pm'
p4464
ssI392
(dp4465
g3
S'hamilton'
p4466
sg5
S'AMC DINE-IN THEATRES BRIDGEWATER'
p4467
sg95
S'08807'
p4468
sg7
S'Zootopia'
p4469
sg9
S'e34f59d8-6be9-4e3a-b571-ffcc4f807e9f'
p4470
sg11
S'nj'
p4471
sg13
S'12:30pm'
p4472
sg15
S'tomorrow'
p4473
sg17
S'2016-03-10'
p4474
sg19
S'nj'
p4475
sg21
S'12:30pm'
p4476
ssI393
(dp4477
g3
S'hamilton'
p4478
sg5
S'AMC DINE-IN THEATRES BRIDGEWATER'
p4479
sg95
S'08807'
p4480
sg7
S'Zootopia'
p4481
sg9
S'e34f59d8-6be9-4e3a-b571-ffcc4f807e9f'
p4482
sg11
S'nj'
p4483
sg13
S'9:30pm'
p4484
sg15
S'tomorrow'
p4485
sg17
S'2016-03-10'
p4486
sg19
S'nj'
p4487
sg21
S'9:30pm'
p4488
ssI394
(dp4489
g3
S'las vegas'
p4490
sg5
S'Regal Colonnade 14'
p4491
sg7
S'Zootopia'
p4492
sg9
S'140cb755-c345-43a5-b21a-43c00b4a67d1'
p4493
sg599
S'3d'
p4494
sg11
S'nv'
p4495
sg13
S'1:30'
p4496
sg15
S'tomorrow'
p4497
sg17
S'2016-03-10'
p4498
sg19
S'nv'
p4499
sg21
S'1:30pm'
p4500
ss.