(dp1
I0
(dp2
S'city'
p3
S'hamilton'
p4
sS'theater'
p5
S'manville 12 plex'
p6
sS'zip'
p7
S'08835'
p8
sS'critic_rating'
p9
S'good'
p10
sS'date'
p11
S'tomorrow'
p12
sS'state'
p13
S'nj'
p14
sS'starttime'
p15
S'10:30am'
p16
sS'genre'
p17
S'comedy'
p18
sS'moviename'
p19
S'zootopia'
p20
ssI1
(dp21
g3
S'manville'
p22
sg5
g6
sg7
g8
sg9
g10
sg11
g12
sg13
g14
sg15
g16
sg17
g18
sg19
g20
ssI2
(dp23
g3
S'bridgewater'
p24
sg5
g6
sg7
g8
sg9
g10
sg11
g12
sg13
g14
sg15
g16
sg17
g18
sg19
g20
ssI3
(dp25
g3
g4
sg5
S'amc dine-in theatres bridgewater 7'
p26
sg7
g8
sg9
g10
sg11
g12
sg13
g14
sg15
g16
sg17
g18
sg19
g20
ssI4
(dp27
g3
g22
sg5
g26
sg7
g8
sg9
g10
sg11
g12
sg13
g14
sg15
g16
sg17
g18
sg19
g20
ssI5
(dp28
S'city'
p29
S'seattle'
p30
sS'theater'
p31
S'every single theatre'
p32
sS'zip'
p33
S'98004'
p34
sS'state'
p35
S'washington'
p36
sS'other'
p37
S'not available'
p38
sS'mpaa_rating'
p39
S'pg'
p40
sS'date'
p41
S'this weekend'
p42
sS'moviename'
p43
S'kung fu panda 3'
p44
ssI6
(dp45
g29
S'bellevue'
p46
sg31
g32
sg33
g34
sg35
g36
sg37
g38
sg39
g40
sg41
g42
sg43
g44
ssI7
(dp47
g29
g30
sg31
S'bellevue lincoln square cinemas'
p48
sg33
g34
sg35
g36
sg37
g38
sg39
g40
sg41
g42
sg43
g44
ssI8
(dp49
g29
g46
sg31
g48
sg33
g34
sg35
g36
sg37
g38
sg39
g40
sg41
g42
sg43
g44
ssI9
(dp50
g29
g30
sg31
S'regal meridian 16'
p51
sg33
g34
sg35
g36
sg37
g38
sg39
g40
sg41
g42
sg43
g44
ssI10
(dp52
S'city'
p53
S'seattle'
p54
sS'theater'
p55
S'regal meridian 16'
p56
sS'zip'
p57
S'98101'
p58
sS'numberofkids'
p59
S'two'
p60
sS'theater_chain'
p61
S'regal meridian'
p62
sS'state'
p63
S'wa'
p64
sS'other'
p65
S'movie assistant number'
p66
sS'starttime'
p67
S'6:30pm'
p68
sS'date'
p69
S'tonight'
p70
sS'moviename'
p71
S'zootopia'
p72
ssI11
(dp73
g53
S'bellevue'
p74
sg55
g56
sg57
g58
sg59
g60
sg61
g62
sg63
g64
sg65
g66
sg67
g68
sg69
g70
sg71
g72
ssI12
(dp75
g53
g54
sg55
S'bellevue lincoln square cinemas'
p76
sg57
g58
sg59
g60
sg61
g62
sg63
g64
sg65
g66
sg67
g68
sg69
g70
sg71
g72
ssI13
(dp77
g53
g74
sg55
g76
sg57
g58
sg59
g60
sg61
g62
sg63
g64
sg65
g66
sg67
g68
sg69
g70
sg71
g72
ssI14
(dp78
g53
g54
sg55
S'regal meridian'
p79
sg57
g58
sg59
g60
sg61
g62
sg63
g64
sg65
g66
sg67
g68
sg69
g70
sg71
g72
ssI15
(dp80
S'city'
p81
S'birmingham'
p82
sS'theater'
p83
S'carmike summit 16'
p84
sS'state'
p85
S'al'
p86
sS'starttime'
p87
S'around 2pm'
p88
sS'date'
p89
S'today'
p90
sS'moviename'
p91
S'zootopia'
p92
ssI16
(dp93
g81
g82
sg83
S'carmike summit'
p94
sg85
g86
sg87
g88
sg89
g90
sg91
g92
ssI17
(dp95
g81
g82
sg83
g84
sg85
g86
sg87
S'1:30'
p96
sg89
g90
sg91
g92
ssI18
(dp97
g81
g82
sg83
g94
sg85
g86
sg87
g96
sg89
g90
sg91
g92
ssI19
(dp98
g81
g82
sg83
g84
sg85
g86
sg87
S'4:00'
p99
sg89
g90
sg91
g92
ssI20
(dp100
S'date'
p101
S'tomorrow'
p102
sS'city'
p103
S'san francisco'
p104
sS'moviename'
p105
S'How to be single'
p106
sS'theater'
p107
S'century centre 9'
p108
sS'starttime'
p109
S'night'
p110
ssI21
(dp111
g101
g102
sg103
g104
sg105
g106
sg107
S'Redwood City 20'
p112
sg109
g110
ssI22
(dp113
g101
g102
sg103
g104
sg105
g106
sg107
g108
sg109
S'11:05am'
p114
ssI23
(dp115
g101
g102
sg103
g104
sg105
g106
sg107
g112
sg109
g114
ssI24
(dp116
g101
g102
sg103
g104
sg105
g106
sg107
g108
sg109
S'1:45pm'
p117
ssI25
(dp118
S'city'
p119
S'seattle'
p120
sS'theater'
p121
S'many'
p122
sS'other'
p123
S'search theater'
p124
sS'starttime'
p125
S'latest showing'
p126
sS'date'
p127
S'tonight'
p128
sS'moviename'
p129
S'london has fallen'
p130
ssI26
(dp131
g119
g120
sg121
S'regal meridian 16'
p132
sg123
g124
sg125
g126
sg127
g128
sg129
g130
ssI27
(dp133
g119
g120
sg121
g122
sg123
g124
sg125
g126
sg127
g128
sg129
S'whiskey tango foxtrot'
p134
ssI28
(dp135
g119
g120
sg121
g132
sg123
g124
sg125
g126
sg127
g128
sg129
g134
ssI29
(dp136
g119
g120
sg121
g122
sg123
g124
sg125
g126
sg127
g128
sg129
S'zootopia'
p137
ssI30
(dp138
S'date'
p139
S'tomorrow'
p140
sS'city'
p141
S'seattle'
p142
sS'theater'
p143
S'amc pacific place 11'
p144
sS'moviename'
p145
S'deadpool'
p146
sS'starttime'
p147
S'9:00 pm'
p148
ssI31
(dp149
S'city'
p150
S'birmingham'
p151
sS'theater'
p152
S'carmike summit 16'
p153
sS'state'
p154
S'al'
p155
sS'starttime'
p156
S'around 6pm'
p157
sS'date'
p158
S'today'
p159
sS'moviename'
p160
S'deadpool'
p161
ssI32
(dp162
g150
g151
sg152
g153
sg154
g155
sg156
S'7:20'
p163
sg158
g159
sg160
g161
ssI33
(dp164
S'date'
p165
S'tomorrow'
p166
sS'city'
p167
S'seattle'
p168
sS'theater'
p169
S'regal meridian 16'
p170
sS'moviename'
p171
S'zootopia'
p172
sS'starttime'
p173
S'9:10 pm'
p174
ssI34
(dp175
S'date'
p176
S'tomorrow'
p177
sS'city'
p178
S'seattle'
p179
sS'theater'
p180
S'regal meridian 16'
p181
sS'moviename'
p182
S'hail caesar'
p183
sS'starttime'
p184
S'8:45 pm'
p185
ssI35
(dp186
g176
g177
sg178
g179
sg180
g181
sg182
g183
sg184
S'8:45'
p187
ssI36
(dp188
S'city'
p189
S'portland'
p190
sS'theater'
p191
S'regal lloyd center 10'
p192
sS'state'
p193
S'oregon'
p194
sS'starttime'
p195
S'10 pm'
p196
sS'date'
p197
S'friday'
p198
sS'moviename'
p199
S'star wars'
p200
ssI37
(dp201
g189
g190
sg191
g192
sg193
g194
sg195
S'9:50 pm'
p202
sg197
g198
sg199
g200
ssI38
(dp203
S'city'
p204
S'birmingham'
p205
sS'theater'
p206
S'carmike 16'
p207
sS'video_format'
p208
S'3d'
p209
sS'state'
p210
S'al'
p211
sS'starttime'
p212
S'around 3 pm'
p213
sS'date'
p214
S'tomorrow'
p215
sS'genre'
p216
S'kid'
p217
sS'moviename'
p218
S'zootopia'
p219
ssI39
(dp220
g204
g205
sg206
g207
sg208
S'standard'
p221
sg210
g211
sg212
g213
sg214
g215
sg216
g217
sg218
g219
ssI40
(dp222
g204
g205
sg206
g207
sg208
g209
sg210
g211
sg212
S'12pm'
p223
sg214
g215
sg216
g217
sg218
g219
ssI41
(dp224
g204
g205
sg206
g207
sg208
g221
sg210
g211
sg212
g223
sg214
g215
sg216
g217
sg218
g219
ssI42
(dp225
g204
g205
sg206
g207
sg208
g209
sg210
g211
sg212
g213
sg214
g215
sg216
g217
sg218
S' kung fu panda 3'
p226
ssI43
(dp227
S'date'
p228
S'tomorrow'
p229
sS'city'
p230
S'seattle'
p231
sS'theater'
p232
S'amc pacific place 11 theater'
p233
sS'moviename'
p234
S'room'
p235
sS'starttime'
p236
S'9:30 pm'
p237
ssI44
(dp238
S'theater'
p239
S'river east 21'
p240
sS'video_format'
p241
S'2d'
p242
sS'other'
p243
S'cannot book'
p244
sS'starttime'
p245
S'night'
p246
sS'date'
p247
S'saturday'
p248
sS'theater_chain'
p249
S'amc'
p250
sS'moviename'
p251
S'zootopia'
p252
ssI45
(dp253
g239
g240
sg241
S'3d'
p254
sg243
g244
sg245
g246
sg247
g248
sg249
g250
sg251
g252
ssI46
(dp255
g239
g240
sg241
g242
sg243
g244
sg245
g246
sg247
S'tomorrow'
p256
sg249
g250
sg251
g252
ssI47
(dp257
g239
g240
sg241
g254
sg243
g244
sg245
g246
sg247
g256
sg249
g250
sg251
g252
ssI48
(dp258
g239
g240
sg241
g242
sg243
g244
sg245
S'6pm'
p259
sg247
g248
sg249
g250
sg251
g252
ssI49
(dp260
S'date'
p261
S'tomorrow'
p262
sS'city'
p263
S'seattle'
p264
sS'theater'
p265
S'regal meridian 16'
p266
sS'moviename'
p267
S'the witch'
p268
sS'starttime'
p269
S'9:30 pm'
p270
ssI50
(dp271
S'city'
p272
S'royal oak'
p273
sS'theater'
p274
S'emagine theater'
p275
sS'zip'
p276
S'48071'
p277
sS'distanceconstraints'
p278
S'closest'
p279
sS'state'
p280
S'mi'
p281
sS'starttime'
p282
S'10:05am#12:30pm#2:55pm#5:30pm#8:00pm#10:40pm'
p283
sS'date'
p284
S'3/11'
p285
sS'moviename'
p286
S'deadpool'
p287
ssI51
(dp288
g272
S'Royal Oak'
p289
sg274
g275
sg276
g277
sg278
g279
sg280
g281
sg282
g283
sg284
g285
sg286
g287
ssI52
(dp290
g272
S'madison heights'
p291
sg274
g275
sg276
g277
sg278
g279
sg280
g281
sg282
g283
sg284
g285
sg286
g287
ssI53
(dp292
g272
g273
sg274
S'emagine'
p293
sg276
g277
sg278
g279
sg280
g281
sg282
g283
sg284
g285
sg286
g287
ssI54
(dp294
g272
g289
sg274
g293
sg276
g277
sg278
g279
sg280
g281
sg282
g283
sg284
g285
sg286
g287
ssI55
(dp295
S'city'
p296
S'detroit'
p297
sS'other'
p298
S'servicing tickets'
p299
sS'moviename'
p300
S'independce day'
p301
sS'starttime'
p302
S'7pm'
p303
ssI56
(dp304
S'city'
p305
S'des moines'
p306
sS'theater'
p307
S'any'
p308
sS'state'
p309
S'iowa'
p310
sS'mpaa_rating'
p311
S'rated pg'
p312
sS'starttime'
p313
S'around 7pm'
p314
sS'date'
p315
S'now'
p316
sS'moviename'
p317
S'zootopia#kung fu panda 3'
p318
ssI57
(dp319
g305
g306
sg307
S'FLIX BREWHOUSE DES MOINES'
p320
sg309
g310
sg311
g312
sg313
g314
sg315
g316
sg317
g318
ssI58
(dp321
g305
g306
sg307
S'CARMIKE COBBLESTONE 9'
p322
sg309
g310
sg311
g312
sg313
g314
sg315
g316
sg317
g318
ssI59
(dp323
g305
g306
sg307
g308
sg309
g310
sg311
g312
sg313
g314
sg315
S'tomorrow'
p324
sg317
g318
ssI60
(dp325
g305
g306
sg307
g320
sg309
g310
sg311
g312
sg313
g314
sg315
g324
sg317
g318
ssI61
(dp326
S'city'
p327
S'johnstown'
p328
sS'theater'
p329
S'cinemas'
p330
sS'video_format'
p331
S'standard/2D version'
p332
sS'state'
p333
S'pennsylvania'
p334
sS'starttime'
p335
S'earliest showing'
p336
sS'date'
p337
S'tomorrow afternoon'
p338
sS'moviename'
p339
S'zootopia'
p340
ssI62
(dp341
g327
g328
sg329
g330
sg331
S'3d'
p342
sg333
g334
sg335
g336
sg337
g338
sg339
g340
ssI63
(dp343
g327
g328
sg329
g330
sg331
S'standard'
p344
sg333
g334
sg335
g336
sg337
g338
sg339
g340
ssI64
(dp345
g327
g328
sg329
g330
sg331
g332
sg333
g334
sg335
S'12:45pm'
p346
sg337
g338
sg339
g340
ssI65
(dp347
g327
g328
sg329
g330
sg331
g342
sg333
g334
sg335
g346
sg337
g338
sg339
g340
ssI66
(dp348
S'date'
p349
S'tomorrow'
p350
sS'city'
p351
S'seattle'
p352
sS'theater'
p353
S'regal meridian 16'
p354
sS'moviename'
p355
S'the witch'
p356
sS'starttime'
p357
S'9:30 pm'
p358
ssI67
(dp359
S'genre'
p360
S'action'
p361
sS'critic_rating'
p362
S'84 percent'
p363
sS'other'
p364
S'rotten tomatoes'
p365
sS'moviename'
p366
S'Deadpool'
p367
sS'actor'
p368
S'ryan reynolds'
p369
ssI68
(dp370
g360
S'violence'
p371
sg362
g363
sg364
g365
sg366
g367
sg368
g369
ssI69
(dp372
g360
g361
sg362
S'93 of audience'
p373
sg364
g365
sg366
g367
sg368
g369
ssI70
(dp374
g360
g371
sg362
g373
sg364
g365
sg366
g367
sg368
g369
ssI71
(dp375
g360
g361
sg362
g363
sg364
g365
sg366
S'London has fallen'
p376
sg368
g369
ssI72
(dp377
S'city'
p378
S'visalia'
p379
sS'theater'
p380
S'regal visalia stadium 10'
p381
sS'state'
p382
S'california'
p383
sS'starttime'
p384
S'12:35pm'
p385
sS'date'
p386
S'march 12'
p387
sS'moviename'
p388
S'london has fallen'
p389
ssI73
(dp390
g378
g379
sg380
g381
sg382
g383
sg384
S' 4:05pm'
p391
sg386
g387
sg388
g389
ssI74
(dp392
g378
g379
sg380
g381
sg382
g383
sg384
S' 7:05pm'
p393
sg386
g387
sg388
g389
ssI75
(dp394
g378
g379
sg380
g381
sg382
g383
sg384
S' 9:55pm'
p395
sg386
g387
sg388
g389
ssI76
(dp396
g378
g379
sg380
g381
sg382
g383
sg384
S'7:05 pm'
p397
sg386
g387
sg388
g389
ssI77
(dp398
S'distanceconstraints'
p399
S'near the space needle'
p400
sS'other'
p401
S'pub serves good burgers'
p402
ssI78
(dp403
S'city'
p404
S'seattle'
p405
sS'theater'
p406
S'amc pacific place 11'
p407
sS'zip'
p408
S'98101'
p409
sS'distanceconstraints'
p410
S'area'
p411
sS'state'
p412
S'wa'
p413
sS'other'
p414
S'serves seafood'
p415
sS'starttime'
p416
S'night'
p417
sS'date'
p418
S'Friday'
p419
sS'moviename'
p420
S'10 cloverfield lane'
p421
ssI79
(dp422
g404
S'bellevue'
p423
sg406
g407
sg408
g409
sg410
g411
sg412
g413
sg414
g415
sg416
g417
sg418
g419
sg420
g421
ssI80
(dp424
g404
g405
sg406
S'bellevue lincoln square cinemas'
p425
sg408
g409
sg410
g411
sg412
g413
sg414
g415
sg416
g417
sg418
g419
sg420
g421
ssI81
(dp426
g404
g423
sg406
g425
sg408
g409
sg410
g411
sg412
g413
sg414
g415
sg416
g417
sg418
g419
sg420
g421
ssI82
(dp427
g404
g405
sg406
g407
sg408
S'98004'
p428
sg410
g411
sg412
g413
sg414
g415
sg416
g417
sg418
g419
sg420
g421
ssI83
(dp429
S'city'
p430
S'boston'
p431
sS'theater'
p432
S'amc loews boston common 19'
p433
sS'distanceconstraints'
p434
S'nearest'
p435
sS'state'
p436
S'ma'
p437
sS'starttime'
p438
S'8pm'
p439
sS'date'
p440
S'saturday'
p441
sS'moviename'
p442
S'lolo'
p443
ssI84
(dp444
g430
g431
sg432
g433
sg434
g435
sg436
g437
sg438
S'8:20'
p445
sg440
g441
sg442
g443
ssI85
(dp446
g430
g431
sg432
g433
sg434
g435
sg436
g437
sg438
g439
sg440
g441
sg442
S'deadpool'
p447
ssI86
(dp448
g430
g431
sg432
g433
sg434
g435
sg436
g437
sg438
g445
sg440
g441
sg442
g447
ssI87
(dp449
S'city'
p450
S'bellevue'
p451
sS'theater'
p452
S'bellevue lincoln square cinemas'
p453
sS'zip'
p454
S'98004'
p455
sS'distanceconstraints'
p456
S'near 98119'
p457
sS'actor'
p458
S'ryan reynolds'
p459
sS'date'
p460
S'tonight'
p461
sS'state'
p462
S'washington'
p463
sS'starttime'
p464
S'8:15pm'
p465
sS'genre'
p466
S'superhero'
p467
sS'moviename'
p468
S'deadpool'
p469
ssI88
(dp470
g450
g451
sg452
S'amc pacific place 11'
p471
sg454
g455
sg456
g457
sg458
g459
sg460
g461
sg462
g463
sg464
g465
sg466
g467
sg468
g469
ssI89
(dp472
g450
g451
sg452
g453
sg454
g455
sg456
g457
sg458
g459
sg460
g461
sg462
S'wa'
p473
sg464
g465
sg466
g467
sg468
g469
ssI90
(dp474
g450
g451
sg452
g471
sg454
g455
sg456
g457
sg458
g459
sg460
g461
sg462
g473
sg464
g465
sg466
g467
sg468
g469
ssI91
(dp475
S'city'
p476
S'seattle'
p477
sS'theater'
p478
S'amc pacific place 11'
p479
sS'zip'
p480
S'98101'
p481
sS'critic_rating'
p482
S'best'
p483
sS'date'
p484
S'tonight'
p485
sS'state'
p486
S'washington'
p487
sS'other'
p488
S'date'
p489
sS'starttime'
p490
S'between 9 and 10'
p491
sS'genre'
p492
S'romance'
p493
sS'moviename'
p494
S'how to be single'
p495
ssI92
(dp496
g476
g477
sg478
g479
sg480
g481
sg482
g483
sg484
g485
sg486
S'wa'
p497
sg488
g489
sg490
g491
sg492
g493
sg494
g495
ssI93
(dp498
g476
g477
sg478
g479
sg480
g481
sg482
g483
sg484
g485
sg486
g487
sg488
g489
sg490
S'7:20'
p499
sg492
g493
sg494
g495
ssI94
(dp500
g476
g477
sg478
g479
sg480
g481
sg482
g483
sg484
g485
sg486
g497
sg488
g489
sg490
g499
sg492
g493
sg494
g495
ssI95
(dp501
g476
g477
sg478
g479
sg480
g481
sg482
g483
sg484
g485
sg486
g487
sg488
g489
sg490
S'10:20'
p502
sg492
g493
sg494
g495
ssI96
(dp503
S'city'
p504
S'carbondale'
p505
sS'theater'
p506
S'amc showplace carbondale 8'
p507
sS'date'
p508
S'tuesday'
p509
sS'state'
p510
S'illinois'
p511
sS'other'
p512
S'scary'
p513
sS'starttime'
p514
S'night'
p515
sS'genre'
p516
S'thriller'
p517
sS'moviename'
p518
S'the witch#the other side of the door#the boy'
p519
ssI97
(dp520
g504
g505
sg506
g507
sg508
g509
sg510
g511
sg512
g513
sg514
S'after 7pm'
p521
sg516
g517
sg518
g519
ssI98
(dp522
g504
g505
sg506
g507
sg508
g509
sg510
g511
sg512
g513
sg514
S'4:40 pm'
p523
sg516
g517
sg518
g519
ssI99
(dp524
g504
g505
sg506
g507
sg508
g509
sg510
g511
sg512
g513
sg514
S'before dinner'
p525
sg516
g517
sg518
g519
ssI100
(dp526
g504
g505
sg506
g507
sg508
g509
sg510
g511
sg512
g513
sg514
g515
sg516
g517
sg518
S'the other side of the door'
p527
ssI101
(dp528
S'date'
p529
S'tomorrow'
p530
sS'city'
p531
S'seattle'
p532
sS'theater'
p533
S'amc lowes oak tree'
p534
sS'moviename'
p535
S'triple 9'
p536
sS'starttime'
p537
S'7:10 pm'
p538
ssI102
(dp539
g529
g530
sg531
g532
sg533
S'amc lowes oak tree 6'
p540
sg535
g536
sg537
g538
ssI103
(dp541
S'date'
p542
S'tomorrow'
p543
sS'city'
p544
S'seattle'
p545
sS'theater'
p546
S'regal meridian 16'
p547
sS'moviename'
p548
S'zootopia'
p549
sS'starttime'
p550
S'9:10 pm'
p551
ssI104
(dp552
S'moviename'
p553
S'deadpool'
p554
sS'theater'
p555
S'royal oak emagine theater'
p556
sS'starttime'
p557
S'betwenn 8-10 pm'
p558
ssI105
(dp559
S'city'
p560
S'birmingham'
p561
sS'theater'
p562
S'carmike summit 16'
p563
sS'distanceconstraints'
p564
S'closest time'
p565
sS'state'
p566
S'al'
p567
sS'starttime'
p568
S'4 pm'
p569
sS'date'
p570
S'today'
p571
sS'moviename'
p572
S'deadpool'
p573
ssI106
(dp574
g560
g561
sg562
g563
sg564
g565
sg566
g567
sg568
S'4:20'
p575
sg570
g571
sg572
g573
ssI107
(dp576
g560
g561
sg562
g563
sg564
g565
sg566
g567
sg568
S'4:20pm'
p577
sg570
g571
sg572
g573
ssI108
(dp578
S'date'
p579
S'tonight'
p580
sS'city'
p581
S'los angeles'
p582
sS'moviename'
p583
S'The Witch'
p584
sS'theater'
p585
S'Regal LA LIVE Stadium 14'
p586
sS'starttime'
p587
S'from noon to 4pm'
p588
ssI109
(dp589
g579
g580
sg581
g582
sg583
g584
sg585
S'regal la live stadium'
p590
sg587
g588
ssI110
(dp591
g579
g580
sg581
g582
sg583
g584
sg585
g586
sg587
S'8:30pm'
p592
ssI111
(dp593
g579
g580
sg581
g582
sg583
g584
sg585
g590
sg587
g592
ssI112
(dp594
g579
g580
sg581
g582
sg583
g584
sg585
g586
sg587
S'11:00pm'
p595
ssI113
(dp596
S'date'
p597
S'tomorrow'
p598
sS'city'
p599
S'seattle'
p600
sS'theater'
p601
S'regal meridian 16'
p602
sS'moviename'
p603
S'the big short'
p604
sS'starttime'
p605
S'8:45 pm'
p606
ssI114
(dp607
S'distanceconstraints'
p608
S'space needle'
p609
sS'other'
p610
S'restaurant'
p611
sS'theater'
p612
S'Big Picture'
p613
ssI115
(dp614
g608
g609
sg610
S'beer'
p615
sg612
g613
ssI116
(dp616
g608
g609
sg610
g611
sg612
S'Cinerama'
p617
ssI117
(dp618
g608
g609
sg610
g615
sg612
g617
ssI118
(dp619
g608
g609
sg610
g611
sg612
S'Central Cinema'
p620
ssI119
(dp621
S'date'
p622
S'tomorrow'
p623
sS'city'
p624
S'seattle'
p625
sS'theater'
p626
S'regal meridian 16'
p627
sS'moviename'
p628
S'the big short'
p629
sS'starttime'
p630
S'8:45 pm'
p631
ssI120
(dp632
S'city'
p633
S'detroit'
p634
sS'date'
p635
S'tonight'
p636
sS'mpaa_rating'
p637
S'pg13'
p638
sS'starttime'
p639
S'around 7pm'
p640
sS'genre'
p641
S'action'
p642
sS'moviename'
p643
S'gods of egypt'
p644
ssI121
(dp645
g633
g634
sg635
g636
sg637
S'pg-13'
p646
sg639
g640
sg641
g642
sg643
g644
ssI122
(dp647
g633
g634
sg635
g636
sg637
g638
sg639
g640
sg641
g642
sg643
S'star wars'
p648
ssI123
(dp649
g633
g634
sg635
g636
sg637
g646
sg639
g640
sg641
g642
sg643
g648
ssI124
(dp650
S'date'
p651
S'tomorrow'
p652
sS'city'
p653
S'seattle'
p654
sS'theater'
p655
S'regal meridian 16'
p656
sS'moviename'
p657
S'zootopia'
p658
sS'starttime'
p659
S'9:10 pm'
p660
ssI125
(dp661
S'city'
p662
S'stony brook'
p663
sS'numberofkids'
p664
S'1'
sS'theater_chain'
p665
S'amc loews stony brook 17'
p666
sS'state'
p667
S'ny'
p668
sS'starttime'
p669
S' Matinee'
p670
sS'date'
p671
S'saturday'
p672
sS'moviename'
p673
S' Young Messiah'
p674
ssI126
(dp675
g662
g663
sg664
S'1'
sg665
g666
sg667
g668
sg669
S'11:05am'
p676
sg671
g672
sg673
g674
ssI127
(dp677
g662
g663
sg664
S'1'
sg665
g666
sg667
g668
sg669
S'1:45pm'
p678
sg671
g672
sg673
g674
ssI128
(dp679
g662
g663
sg664
S'1'
sg665
g666
sg667
g668
sg669
g670
sg671
g672
sg673
S'The Young Messiah'
p680
ssI129
(dp681
g662
g663
sg664
S'1'
sg665
g666
sg667
g668
sg669
g676
sg671
g672
sg673
g680
ssI130
(dp682
S'date'
p683
S'next friday'
p684
sS'theater'
p685
S'century rowland plaza'
p686
sS'moviename'
p687
S'eddie the eagle'
p688
sS'starttime'
p689
S'4pm to 7pm'
p690
sS'zip'
p691
S'94952'
p692
ssI131
(dp693
g683
g684
sg685
S'the century rowland plaza'
p694
sg687
g688
sg689
g690
sg691
g692
ssI132
(dp695
g683
g684
sg685
g686
sg687
g688
sg689
S'4:20pm'
p696
sg691
g692
ssI133
(dp697
g683
g684
sg685
g694
sg687
g688
sg689
g696
sg691
g692
ssI134
(dp698
g683
g684
sg685
g686
sg687
g688
sg689
S'6:55pm'
p699
sg691
g692
ssI135
(dp700
S'date'
p701
S'tomorrow'
p702
sS'moviename'
p703
S'risen'
p704
sS'theater'
p705
S'regency commerce 14'
p706
sS'starttime'
p707
S'11:50am'
p708
ssI136
(dp709
g701
g702
sg703
g704
sg705
g706
sg707
S'2:30pm'
p710
ssI137
(dp711
g701
g702
sg703
g704
sg705
g706
sg707
S'5:10'
p712
ssI138
(dp713
g701
g702
sg703
g704
sg705
g706
sg707
S'7:50'
p714
ssI139
(dp715
g701
g702
sg703
g704
sg705
g706
sg707
S'10:25'
p716
ssI140
(dp717
S'date'
p718
S'tomorrow'
p719
sS'city'
p720
S'seattle'
p721
sS'theater'
p722
S'regal meridian 16'
p723
sS'moviename'
p724
S'zoolander 2'
p725
sS'starttime'
p726
S'9:25 pm'
p727
ssI141
(dp728
S'date'
p729
S'tomorrow'
p730
sS'city'
p731
S'seattle'
p732
sS'theater'
p733
S'amc pacific place 11 theater'
p734
sS'moviename'
p735
S'deadpool'
p736
sS'starttime'
p737
S'9:00 pm'
p738
ssI142
(dp739
S'city'
p740
S'seattle'
p741
sS'theater'
p742
S'many'
p743
sS'distanceconstraints'
p744
S'east side'
p745
sS'starttime'
p746
S'around 2pm'
p747
sS'date'
p748
S'saturday'
p749
sS'moviename'
p750
S'zootopia'
p751
ssI143
(dp752
g740
g741
sg742
S'bellevue lincoln square cinemas'
p753
sg744
g745
sg746
g747
sg748
g749
sg750
g751
ssI144
(dp754
g740
g741
sg742
S'bellevue lincoln square'
p755
sg744
g745
sg746
g747
sg748
g749
sg750
g751
ssI145
(dp756
g740
g741
sg742
g743
sg744
g745
sg746
S'2:35 pm'
p757
sg748
g749
sg750
g751
ssI146
(dp758
g740
g741
sg742
g753
sg744
g745
sg746
g757
sg748
g749
sg750
g751
ssI147
(dp759
S'date'
p760
S'tomorrow'
p761
sS'city'
p762
S'seattle'
p763
sS'theater'
p764
S'regal meridian 16'
p765
sS'moviename'
p766
S'the witch'
p767
sS'starttime'
p768
S'9:30 pm'
p769
ssI148
(dp770
S'city'
p771
S'tampa'
p772
sS'theater'
p773
S'amc west shore 14 210 Westshore Plaza'
p774
sS'video_format'
p775
S'3d'
p776
sS'state'
p777
S'fl'
p778
sS'starttime'
p779
S'afternoon'
p780
sS'date'
p781
S'saturday'
p782
sS'moviename'
p783
S'zootopia'
p784
ssI149
(dp785
g771
g772
sg773
g774
sg775
S'standard'
p786
sg777
g778
sg779
g780
sg781
g782
sg783
g784
ssI150
(dp787
g771
g772
sg773
g774
sg775
g776
sg777
g778
sg779
S'10:00am'
p788
sg781
g782
sg783
g784
ssI151
(dp789
g771
g772
sg773
g774
sg775
g786
sg777
g778
sg779
g788
sg781
g782
sg783
g784
ssI152
(dp790
g771
g772
sg773
g774
sg775
g776
sg777
g778
sg779
S'12:45pm'
p791
sg781
g782
sg783
g784
ssI153
(dp792
S'city'
p793
S'seattle'
p794
sS'theater'
p795
S'bellevue lincoln square cinemas'
p796
sS'zip'
p797
S'98004'
p798
sS'distanceconstraints'
p799
S'downtown'
p800
sS'critic_rating'
p801
S'good place'
p802
sS'state'
p803
S'wa'
p804
sS'other'
p805
S'restaurant'
p806
sS'starttime'
p807
S'10:00am'
p808
sS'date'
p809
S'weekend'
p810
sS'moviename'
p811
S'zootopia'
p812
ssI154
(dp813
g793
S'bellevue'
p814
sg795
g796
sg797
g798
sg799
g800
sg801
g802
sg803
g804
sg805
g806
sg807
g808
sg809
g810
sg811
g812
ssI155
(dp815
g793
g794
sg795
S'pacific science center imax theaters'
p816
sg797
g798
sg799
g800
sg801
g802
sg803
g804
sg805
g806
sg807
g808
sg809
g810
sg811
g812
ssI156
(dp817
g793
g814
sg795
g816
sg797
g798
sg799
g800
sg801
g802
sg803
g804
sg805
g806
sg807
g808
sg809
g810
sg811
g812
ssI157
(dp818
g793
g794
sg795
g796
sg797
S'98109'
p819
sg799
g800
sg801
g802
sg803
g804
sg805
g806
sg807
g808
sg809
g810
sg811
g812
ssI158
(dp820
S'city'
p821
S'birmingham'
p822
sS'theater'
p823
S'carmike summit 16'
p824
sS'zip'
p825
S'35243'
p826
sS'critic_rating'
p827
S'most scene'
p828
sS'date'
p829
S'saturday'
p830
sS'state'
p831
S'al'
p832
sS'mpaa_rating'
p833
S'pg'
p834
sS'starttime'
p835
S'10:00am'
p836
sS'genre'
p837
S'action'
p838
sS'moviename'
p839
S'zootopia'
p840
ssI159
(dp841
g821
S'hoover'
p842
sg823
g824
sg825
g826
sg827
g828
sg829
g830
sg831
g832
sg833
g834
sg835
g836
sg837
g838
sg839
g840
ssI160
(dp843
g821
g822
sg823
S'carmike patton creek'
p844
sg825
g826
sg827
g828
sg829
g830
sg831
g832
sg833
g834
sg835
g836
sg837
g838
sg839
g840
ssI161
(dp845
g821
g842
sg823
g844
sg825
g826
sg827
g828
sg829
g830
sg831
g832
sg833
g834
sg835
g836
sg837
g838
sg839
g840
ssI162
(dp846
g821
g822
sg823
g824
sg825
S'35244'
p847
sg827
g828
sg829
g830
sg831
g832
sg833
g834
sg835
g836
sg837
g838
sg839
g840
ssI163
(dp848
S'genre'
p849
S'drama'
p850
sS'city'
p851
S'seattle'
p852
sS'moviename'
p853
S'eddie the eagle'
p854
sS'theater'
p855
S'regal meridian sundance cinemas'
p856
ssI164
(dp857
g849
g850
sg851
g852
sg853
S'the big short'
p858
sg855
g856
ssI165
(dp859
g849
g850
sg851
g852
sg853
g854
sg855
S'regal thornton place'
p860
ssI166
(dp861
g849
g850
sg851
g852
sg853
g858
sg855
g860
ssI167
(dp862
S'moviename'
p863
S'Avengers'
p864
ssI168
(dp865
g863
S'Finding Dory'
p866
ssI169
(dp867
S'city'
p868
S'Sacramento'
p869
sS'theater'
p870
S'REGAL NATOMAS MARKETPLACE STADIUM 16 & RPX'
p871
sS'distanceconstraints'
p872
S'close to 95833'
p873
sS'video_format'
p874
S'3d'
p875
sS'state'
p876
S'ca'
p877
sS'starttime'
p878
S'morning'
p879
sS'date'
p880
S'tomorrow'
p881
sS'moviename'
p882
S'zoology'
p883
ssI170
(dp884
g868
g869
sg870
S'Regal Natomas Marketplace'
p885
sg872
g873
sg874
g875
sg876
g877
sg878
g879
sg880
g881
sg882
g883
ssI171
(dp886
g868
g869
sg870
g871
sg872
g873
sg874
S'standard'
p887
sg876
g877
sg878
g879
sg880
g881
sg882
g883
ssI172
(dp888
g868
g869
sg870
g885
sg872
g873
sg874
g887
sg876
g877
sg878
g879
sg880
g881
sg882
g883
ssI173
(dp889
g868
g869
sg870
g871
sg872
g873
sg874
S'IMAX'
p890
sg876
g877
sg878
g879
sg880
g881
sg882
g883
ssI174
(dp891
S'date'
p892
S'tonight'
p893
sS'city'
p894
S'seattle'
p895
sS'moviename'
p896
S'deadpool'
p897
sS'theater'
p898
S'amc pacific place 11'
p899
sS'starttime'
p900
S'10pm'
p901
ssI175
(dp902
g892
S'tomorrow'
p903
sg894
g895
sg896
g897
sg898
g899
sg900
g901
ssI176
(dp904
g892
g893
sg894
g895
sg896
g897
sg898
g899
sg900
S'10:00 pm'
p905
ssI177
(dp906
g892
g903
sg894
g895
sg896
g897
sg898
g899
sg900
g905
ssI178
(dp907
S'date'
p908
S'march 24th'
p909
sS'other'
p910
S'mexican restaurant'
p911
sS'moviename'
p912
S'batman'
p913
ssI179
(dp914
g908
S'openingnight'
p915
sg910
g911
sg912
g913
ssI180
(dp916
g908
S' a different day'
p917
sg910
g911
sg912
g913
ssI181
(dp918
g908
g909
sg910
g911
sg912
S'batman vs superman'
p919
ssI182
(dp920
g908
g915
sg910
g911
sg912
g919
ssI183
(dp921
S'date'
p922
S'tomorrow'
p923
sS'city'
p924
S'seattle'
p925
sS'theater'
p926
S'amc lowes oak tree 6'
p927
sS'moviename'
p928
S'race'
p929
sS'starttime'
p930
S'4:50 pm'
p931
ssI184
(dp932
S'city'
p933
S'hamilton'
p934
sS'theater'
p935
S'amc hamilton 24'
p936
sS'theater_chain'
p937
S'amc hamilton 24'
p938
sS'state'
p939
S'nj'
p940
sS'starttime'
p941
S'7pm'
p942
sS'date'
p943
S'tomorrow'
p944
sS'moviename'
p945
S'deadpool'
p946
ssI185
(dp947
g933
g934
sg935
g936
sg937
g938
sg939
g940
sg941
S'7:05'
p948
sg943
g944
sg945
g946
ssI186
(dp949
S'date'
p950
S'tomorrow'
p951
sS'city'
p952
S'seattle'
p953
sS'theater'
p954
S'amc lowes oak tree 6'
p955
sS'moviename'
p956
S'hail caesar'
p957
sS'starttime'
p958
S'7:15 pm'
p959
ssI187
(dp960
S'city'
p961
S'birmingham'
p962
sS'theater'
p963
S'carmike summit 16'
p964
sS'video_format'
p965
S'3d'
p966
sS'state'
p967
S'al'
p968
sS'starttime'
p969
S'around 4pm'
p970
sS'date'
p971
S'today'
p972
sS'moviename'
p973
S'zootopia'
p974
ssI188
(dp975
g961
g962
sg963
g964
sg965
S'standard'
p976
sg967
g968
sg969
g970
sg971
g972
sg973
g974
ssI189
(dp977
g961
g962
sg963
g964
sg965
g966
sg967
g968
sg969
S'4 PM'
p978
sg971
g972
sg973
g974
ssI190
(dp979
g961
g962
sg963
g964
sg965
g976
sg967
g968
sg969
g978
sg971
g972
sg973
g974
ssI191
(dp980
S'city'
p981
S'seattle'
p982
sS'theater'
p983
S'regal meridan 16'
p984
sS'numberofkids'
p985
S'no'
p986
sS'video_format'
p987
S'regular'
p988
sS'state'
p989
S'wa'
p990
sS'starttime'
p991
S'night'
p992
sS'date'
p993
S'tomorrow'
p994
sS'moviename'
p995
S'zootopia'
p996
ssI192
(dp997
g981
g982
sg983
S'bellevue lincoln square cinemas'
p998
sg985
g986
sg987
g988
sg989
g990
sg991
g992
sg993
g994
sg995
g996
ssI193
(dp999
g981
g982
sg983
S'pacific science center imax theaters'
p1000
sg985
g986
sg987
g988
sg989
g990
sg991
g992
sg993
g994
sg995
g996
ssI194
(dp1001
g981
g982
sg983
g984
sg985
g986
sg987
S'3d'
p1002
sg989
g990
sg991
g992
sg993
g994
sg995
g996
ssI195
(dp1003
g981
g982
sg983
g998
sg985
g986
sg987
g1002
sg989
g990
sg991
g992
sg993
g994
sg995
g996
ssI196
(dp1004
S'city'
p1005
S'seattle'
p1006
sS'theater'
p1007
S'elmwood palace 20'
p1008
sS'zip'
p1009
S'70070'
p1010
sS'critic_rating'
p1011
S'number 1'
p1012
sS'theater_chain'
p1013
S'amc'
p1014
sS'starttime'
p1015
S'5pm'
p1016
sS'date'
p1017
S'tomorrow'
p1018
sS'genre'
p1019
S'funny'
p1020
sS'moviename'
p1021
S'zootopia'
p1022
ssI197
(dp1023
g1005
g1006
sg1007
g1008
sg1009
g1010
sg1011
g1012
sg1013
g1014
sg1015
S'5:00 pm'
p1024
sg1017
g1018
sg1019
g1020
sg1021
g1022
ssI198
(dp1025
g1005
g1006
sg1007
g1008
sg1009
g1010
sg1011
g1012
sg1013
g1014
sg1015
g1016
sg1017
g1018
sg1019
S'comedy'
p1026
sg1021
g1022
ssI199
(dp1027
g1005
g1006
sg1007
g1008
sg1009
g1010
sg1011
g1012
sg1013
g1014
sg1015
g1024
sg1017
g1018
sg1019
g1026
sg1021
g1022
ssI200
(dp1028
S'city'
p1029
S'nashville'
p1030
sS'theater'
p1031
S'regal hollywood stadium 27'
p1032
sS'state'
p1033
S'tn'
p1034
sS'starttime'
p1035
S'around 8 pm'
p1036
sS'date'
p1037
S'tomorrow evening'
p1038
sS'moviename'
p1039
S'revenant'
p1040
ssI201
(dp1041
g1029
g1030
sg1031
g1032
sg1033
g1034
sg1035
S'7:50pm'
p1042
sg1037
g1038
sg1039
g1040
ssI202
(dp1043
S'theater_chain'
p1044
S'amc pacific place 11'
p1045
sS'city'
p1046
S'Seattle'
p1047
sS'other'
p1048
S'best restaurant'
p1049
sS'date'
p1050
S'tomorrow'
p1051
sS'starttime'
p1052
S'7:00 pm'
p1053
ssI203
(dp1054
g1044
g1045
sg1046
S'seattle'
p1055
sg1048
g1049
sg1050
g1051
sg1052
g1053
ssI204
(dp1056
S'city'
p1057
S'st louis'
p1058
sS'theater'
p1059
S'chase park plaza cinemas'
p1060
sS'numberofkids'
p1061
S'2'
sS'critic_rating'
p1062
S'4.5/5'
p1063
sS'date'
p1064
S'thursday'
p1065
sS'mpaa_rating'
p1066
S'pg'
p1067
sS'starttime'
p1068
S'afternoon'
p1069
sS'genre'
p1070
S'kids'
p1071
sS'moviename'
p1072
S'zootopia'
p1073
ssI205
(dp1074
g1057
g1058
sg1059
g1060
sg1061
S'2'
sg1062
g1063
sg1064
g1065
sg1066
g1067
sg1068
S'11:00am'
p1075
sg1070
g1071
sg1072
g1073
ssI206
(dp1076
g1057
g1058
sg1059
g1060
sg1061
S'2'
sg1062
g1063
sg1064
g1065
sg1066
g1067
sg1068
S'1:30pm'
p1077
sg1070
g1071
sg1072
g1073
ssI207
(dp1078
g1057
g1058
sg1059
g1060
sg1061
S'2'
sg1062
g1063
sg1064
g1065
sg1066
g1067
sg1068
S'4pm'
p1079
sg1070
g1071
sg1072
g1073
ssI208
(dp1080
g1057
g1058
sg1059
g1060
sg1061
S'2'
sg1062
g1063
sg1064
g1065
sg1066
g1067
sg1068
S'130pm'
p1081
sg1070
g1071
sg1072
g1073
ssI209
(dp1082
S'city'
p1083
S'whittier village stadium cinemas'
p1084
sS'zip'
p1085
S'90601'
p1086
sS'distanceconstraints'
p1087
S'closest'
p1088
sS'critic_rating'
p1089
S'top rated'
p1090
sS'date'
p1091
S'next saturday'
p1092
sS'starttime'
p1093
S'closest to noon'
p1094
sS'genre'
p1095
S'action'
p1096
sS'moviename'
p1097
S'london has fallen'
p1098
ssI210
(dp1099
g1083
g1084
sg1085
g1086
sg1087
g1088
sg1089
g1090
sg1091
S'March 12th'
p1100
sg1093
g1094
sg1095
g1096
sg1097
g1098
ssI211
(dp1101
g1083
g1084
sg1085
g1086
sg1087
g1088
sg1089
g1090
sg1091
g1092
sg1093
S'1:30pm'
p1102
sg1095
g1096
sg1097
g1098
ssI212
(dp1103
g1083
g1084
sg1085
g1086
sg1087
g1088
sg1089
g1090
sg1091
g1100
sg1093
g1102
sg1095
g1096
sg1097
g1098
ssI213
(dp1104
S'date'
p1105
S'tomorrow'
p1106
sS'city'
p1107
S'seattle'
p1108
sS'theater'
p1109
S'regal meridian 16'
p1110
sS'moviename'
p1111
S'zoolander 2'
p1112
sS'starttime'
p1113
S'9:25 pm'
p1114
ssI214
(dp1115
S'city'
p1116
S'seattle'
p1117
sS'theater'
p1118
S'regal lloyd center century eastport 16'
p1119
sS'state'
p1120
S'oregon'
p1121
sS'other'
p1122
S'japanese restaurant'
p1123
sS'starttime'
p1124
S'late showing'
p1125
sS'date'
p1126
S'tonight'
p1127
sS'moviename'
p1128
S'star wars the force awakens'
p1129
ssI215
(dp1130
g1116
S'southeast portland'
p1131
sg1118
g1119
sg1120
g1121
sg1122
g1123
sg1124
g1125
sg1126
g1127
sg1128
g1129
ssI216
(dp1132
g1116
S'portland'
p1133
sg1118
g1119
sg1120
g1121
sg1122
g1123
sg1124
g1125
sg1126
g1127
sg1128
g1129
ssI217
(dp1134
g1116
g1117
sg1118
S'regal movies on tv stadium 16'
p1135
sg1120
g1121
sg1122
g1123
sg1124
g1125
sg1126
g1127
sg1128
g1129
ssI218
(dp1136
g1116
g1131
sg1118
g1135
sg1120
g1121
sg1122
g1123
sg1124
g1125
sg1126
g1127
sg1128
g1129
ssI219
(dp1137
S'city'
p1138
S'seattle'
p1139
sS'theater'
p1140
S'regal meridian 16'
p1141
sS'zip'
p1142
S'98101'
p1143
sS'video_format'
p1144
S'2d'
p1145
sS'state'
p1146
S'wa'
p1147
sS'starttime'
p1148
S'4:10&&7:00&&9:50pm'
p1149
sS'date'
p1150
S'tonight'
p1151
sS'moviename'
p1152
S'zootopia'
p1153
ssI220
(dp1154
g1138
S'bellevue'
p1155
sg1140
g1141
sg1142
g1143
sg1144
g1145
sg1146
g1147
sg1148
g1149
sg1150
g1151
sg1152
g1153
ssI221
(dp1156
g1138
g1139
sg1140
S'bellevue lincoln square cinemas'
p1157
sg1142
g1143
sg1144
g1145
sg1146
g1147
sg1148
g1149
sg1150
g1151
sg1152
g1153
ssI222
(dp1158
g1138
g1155
sg1140
g1157
sg1142
g1143
sg1144
g1145
sg1146
g1147
sg1148
g1149
sg1150
g1151
sg1152
g1153
ssI223
(dp1159
g1138
g1139
sg1140
g1141
sg1142
S'98004'
p1160
sg1144
g1145
sg1146
g1147
sg1148
g1149
sg1150
g1151
sg1152
g1153
ssI224
(dp1161
S'date'
p1162
S'tonight'
p1163
sS'city'
p1164
S'seattle'
p1165
sS'moviename'
p1166
S'deadpool'
p1167
sS'theater'
p1168
S'amc pacific place 11'
p1169
sS'starttime'
p1170
S'10pm'
p1171
ssI225
(dp1172
g1162
S'tomorrow'
p1173
sg1164
g1165
sg1166
g1167
sg1168
g1169
sg1170
g1171
ssI226
(dp1174
g1162
g1163
sg1164
g1165
sg1166
g1167
sg1168
g1169
sg1170
S'10:00 pm'
p1175
ssI227
(dp1176
g1162
g1173
sg1164
g1165
sg1166
g1167
sg1168
g1169
sg1170
g1175
ssI228
(dp1177
S'distanceconstraints'
p1178
S'near space needle'
p1179
sS'other'
p1180
S'pub'
p1181
ssI229
(dp1182
S'city'
p1183
S'birmingham'
p1184
sS'theater'
p1185
S'carmike summit 16'
p1186
sS'state'
p1187
S'al'
p1188
sS'starttime'
p1189
S'2pm'
p1190
sS'date'
p1191
S'saturday'
p1192
sS'moviename'
p1193
S'deadpool'
p1194
ssI230
(dp1195
g1183
g1184
sg1185
g1186
sg1187
g1188
sg1189
S'2:20 pm'
p1196
sg1191
g1192
sg1193
g1194
ssI231
(dp1197
S'city'
p1198
S'seattle'
p1199
sS'theater'
p1200
S'bellevue lincoln square cinemas'
p1201
sS'zip'
p1202
S'98004'
p1203
sS'distanceconstraints'
p1204
S'downtown'
p1205
sS'critic_rating'
p1206
S'good'
p1207
sS'state'
p1208
S'wa'
p1209
sS'other'
p1210
S'restaurant'
p1211
sS'mpaa_rating'
p1212
S'best'
p1213
sS'starttime'
p1214
S'10:00am'
p1215
sS'date'
p1216
S'last weekend'
p1217
sS'moviename'
p1218
S'zootopia'
p1219
ssI232
(dp1220
g1198
S'bellevue'
p1221
sg1200
g1201
sg1202
g1203
sg1204
g1205
sg1206
g1207
sg1208
g1209
sg1210
g1211
sg1212
g1213
sg1214
g1215
sg1216
g1217
sg1218
g1219
ssI233
(dp1222
g1198
g1199
sg1200
S'pacific science center imax theaters'
p1223
sg1202
g1203
sg1204
g1205
sg1206
g1207
sg1208
g1209
sg1210
g1211
sg1212
g1213
sg1214
g1215
sg1216
g1217
sg1218
g1219
ssI234
(dp1224
g1198
g1221
sg1200
g1223
sg1202
g1203
sg1204
g1205
sg1206
g1207
sg1208
g1209
sg1210
g1211
sg1212
g1213
sg1214
g1215
sg1216
g1217
sg1218
g1219
ssI235
(dp1225
g1198
g1199
sg1200
g1201
sg1202
S'98109'
p1226
sg1204
g1205
sg1206
g1207
sg1208
g1209
sg1210
g1211
sg1212
g1213
sg1214
g1215
sg1216
g1217
sg1218
g1219
ssI236
(dp1227
S'city'
p1228
S'miami'
p1229
sS'theater'
p1230
S'Regal South Beach'
p1231
sS'distanceconstraints'
p1232
S'south beach'
p1233
sS'state'
p1234
S'florida'
p1235
sS'starttime'
p1236
S'around 9pm'
p1237
sS'date'
p1238
S'tonight'
p1239
sS'moviename'
p1240
S'whiskey tango foxtrot'
p1241
ssI237
(dp1242
g1228
g1229
sg1230
S'Cinepolis USA'
p1243
sg1232
g1233
sg1234
g1235
sg1236
g1237
sg1238
g1239
sg1240
g1241
ssI238
(dp1244
g1228
g1229
sg1230
S'Cobb Dolphin Cinemas'
p1245
sg1232
g1233
sg1234
g1235
sg1236
g1237
sg1238
g1239
sg1240
g1241
ssI239
(dp1246
g1228
g1229
sg1230
S'cobb dolphin cinemas'
p1247
sg1232
g1233
sg1234
g1235
sg1236
g1237
sg1238
g1239
sg1240
g1241
ssI240
(dp1248
g1228
g1229
sg1230
g1231
sg1232
g1233
sg1234
g1235
sg1236
S'9pm'
p1249
sg1238
g1239
sg1240
g1241
ssI241
(dp1250
S'city'
p1251
S'seattle'
p1252
sS'theater'
p1253
S'amc southcenter 16'
p1254
sS'theater_chain'
p1255
S'amc'
p1256
sS'other'
p1257
S'number 1'
p1258
sS'starttime'
p1259
S'9:30 pm'
p1260
sS'date'
p1261
S'this weekend'
p1262
sS'genre'
p1263
S'action'
p1264
sS'moviename'
p1265
S'london has fallen'
p1266
ssI242
(dp1267
g1251
g1252
sg1253
g1254
sg1255
S'regency'
p1268
sg1257
g1258
sg1259
g1260
sg1261
g1262
sg1263
g1264
sg1265
g1266
ssI243
(dp1269
g1251
g1252
sg1253
g1254
sg1255
g1256
sg1257
g1258
sg1259
g1260
sg1261
S'this week'
p1270
sg1263
g1264
sg1265
g1266
ssI244
(dp1271
g1251
g1252
sg1253
g1254
sg1255
g1268
sg1257
g1258
sg1259
g1260
sg1261
g1270
sg1263
g1264
sg1265
g1266
ssI245
(dp1272
g1251
g1252
sg1253
g1254
sg1255
g1256
sg1257
g1258
sg1259
g1260
sg1261
S'wednesday'
p1273
sg1263
g1264
sg1265
g1266
ssI246
(dp1274
S'genre'
p1275
S'scary'
p1276
sS'city'
p1277
S'chicago'
p1278
sS'state'
p1279
S'il'
p1280
sS'moviename'
p1281
S'the other side of the door'
p1282
ssI247
(dp1283
g1275
g1276
sg1277
g1278
sg1279
g1280
sg1281
S'the witch'
p1284
ssI248
(dp1285
S'city'
p1286
S'nyc'
p1287
sS'theater'
p1288
S'ua kaufman astoria stadium 14'
p1289
sS'zip'
p1290
S'10035'
p1291
sS'date'
p1292
S'today'
p1293
sS'starttime'
p1294
S'7:00pm'
p1295
sS'genre'
p1296
S'horror'
p1297
sS'moviename'
p1298
S'TheWitch'
p1299
ssI249
(dp1300
g1286
g1287
sg1288
g1289
sg1290
g1291
sg1292
g1293
sg1294
S'8:40pm'
p1301
sg1296
g1297
sg1298
g1299
ssI250
(dp1302
g1286
g1287
sg1288
g1289
sg1290
g1291
sg1292
g1293
sg1294
g1295
sg1296
g1297
sg1298
S'The Other Side of The Door'
p1303
ssI251
(dp1304
g1286
g1287
sg1288
g1289
sg1290
g1291
sg1292
g1293
sg1294
g1301
sg1296
g1297
sg1298
g1303
ssI252
(dp1305
g1286
g1287
sg1288
g1289
sg1290
g1291
sg1292
g1293
sg1294
g1295
sg1296
g1297
sg1298
S'the other side of the door'
p1306
ssI253
(dp1307
S'city'
p1308
S'sacramento'
p1309
sS'theater'
p1310
S'regal theater'
p1311
sS'video_format'
p1312
S'standard'
p1313
sS'starttime'
p1314
S'around 7 pm'
p1315
sS'date'
p1316
S'tomorrow'
p1317
sS'moviename'
p1318
S'gods of egypt'
p1319
ssI254
(dp1320
g1308
g1309
sg1310
S'the Holiday 6'
p1321
sg1312
g1313
sg1314
g1315
sg1316
g1317
sg1318
g1319
ssI255
(dp1322
g1308
g1309
sg1310
S' the Stadium 5'
p1323
sg1312
g1313
sg1314
g1315
sg1316
g1317
sg1318
g1319
ssI256
(dp1324
g1308
g1309
sg1310
S'the Natomas Marketplace Stadium'
p1325
sg1312
g1313
sg1314
g1315
sg1316
g1317
sg1318
g1319
ssI257
(dp1326
g1308
g1309
sg1310
S'Natomas Marketplace Stadium'
p1327
sg1312
g1313
sg1314
g1315
sg1316
g1317
sg1318
g1319
ssI258
(dp1328
S'city'
p1329
S'johnstown'
p1330
sS'theater'
p1331
S'richland cinemas'
p1332
sS'critic_rating'
p1333
S'good'
p1334
sS'theater_chain'
p1335
S'amc loews waterfront 22'
p1336
sS'date'
p1337
S'now'
p1338
sS'state'
p1339
S'pa'
p1340
sS'starttime'
p1341
S'latest showing'
p1342
sS'genre'
p1343
S'comedy'
p1344
sS'moviename'
p1345
S'deadpool'
p1346
ssI259
(dp1347
g1329
S'pittsburgh'
p1348
sg1331
g1332
sg1333
g1334
sg1335
g1336
sg1337
g1338
sg1339
g1340
sg1341
g1342
sg1343
g1344
sg1345
g1346
ssI260
(dp1349
g1329
g1330
sg1331
S'this theater'
p1350
sg1333
g1334
sg1335
g1336
sg1337
g1338
sg1339
g1340
sg1341
g1342
sg1343
g1344
sg1345
g1346
ssI261
(dp1351
g1329
g1348
sg1331
g1350
sg1333
g1334
sg1335
g1336
sg1337
g1338
sg1339
g1340
sg1341
g1342
sg1343
g1344
sg1345
g1346
ssI262
(dp1352
g1329
g1330
sg1331
S'amc loews waterfront 22'
p1353
sg1333
g1334
sg1335
g1336
sg1337
g1338
sg1339
g1340
sg1341
g1342
sg1343
g1344
sg1345
g1346
ssI263
(dp1354
S'city'
p1355
S'atlanta'
p1356
sS'theater'
p1357
S'amc phipps plaza 14'
p1358
sS'zip'
p1359
S'30326'
p1360
sS'distanceconstraints'
p1361
S'near'
p1362
sS'date'
p1363
S'03\\/15\\/2016'
p1364
sS'state'
p1365
S'ga'
p1366
sS'other'
p1367
S'switch cities'
p1368
sS'starttime'
p1369
S'8pm'
p1370
sS'genre'
p1371
S'horror'
p1372
sS'moviename'
p1373
S'the witch'
p1374
ssI264
(dp1375
g1355
S'south barrington'
p1376
sg1357
g1358
sg1359
g1360
sg1361
g1362
sg1363
g1364
sg1365
g1366
sg1367
g1368
sg1369
g1370
sg1371
g1372
sg1373
g1374
ssI265
(dp1377
g1355
g1356
sg1357
S'AMC SOUTH BARRINGTON 30'
p1378
sg1359
g1360
sg1361
g1362
sg1363
g1364
sg1365
g1366
sg1367
g1368
sg1369
g1370
sg1371
g1372
sg1373
g1374
ssI266
(dp1379
g1355
g1376
sg1357
g1378
sg1359
g1360
sg1361
g1362
sg1363
g1364
sg1365
g1366
sg1367
g1368
sg1369
g1370
sg1371
g1372
sg1373
g1374
ssI267
(dp1380
g1355
g1356
sg1357
g1358
sg1359
g1360
sg1361
S'south barrington'
p1381
sg1363
g1364
sg1365
g1366
sg1367
g1368
sg1369
g1370
sg1371
g1372
sg1373
g1374
ssI268
(dp1382
S'city'
p1383
S'los angeles'
p1384
sS'theater'
p1385
S'regal la live stadium 14'
p1386
sS'zip'
p1387
S'90015'
p1388
sS'distanceconstraints'
p1389
S'nearest'
p1390
sS'state'
p1391
S'ca'
p1392
sS'starttime'
p1393
S'11:45am'
p1394
sS'date'
p1395
S'tomorrow'
p1396
sS'moviename'
p1397
S'10 cloverfield lane'
p1398
ssI269
(dp1399
g1383
g1384
sg1385
S'pacific theatres at the grove'
p1400
sg1387
g1388
sg1389
g1390
sg1391
g1392
sg1393
g1394
sg1395
g1396
sg1397
g1398
ssI270
(dp1401
g1383
g1384
sg1385
S'regal la stadium 14'
p1402
sg1387
g1388
sg1389
g1390
sg1391
g1392
sg1393
g1394
sg1395
g1396
sg1397
g1398
ssI271
(dp1403
g1383
g1384
sg1385
S'regal la'
p1404
sg1387
g1388
sg1389
g1390
sg1391
g1392
sg1393
g1394
sg1395
g1396
sg1397
g1398
ssI272
(dp1405
g1383
g1384
sg1385
g1386
sg1387
S'90036'
p1406
sg1389
g1390
sg1391
g1392
sg1393
g1394
sg1395
g1396
sg1397
g1398
ssI273
(dp1407
S'city'
p1408
S'seattle'
p1409
sS'theater'
p1410
S'regal meridian 16'
p1411
sS'distanceconstraints'
p1412
S'near me'
p1413
sS'critic_rating'
p1414
S'good'
p1415
sS'video_format'
p1416
S'3d'
p1417
sS'state'
p1418
S'wa'
p1419
sS'other'
p1420
S'restaurant'
p1421
sS'starttime'
p1422
S'around 8 pm'
p1423
sS'date'
p1424
S'tomorrow'
p1425
sS'moviename'
p1426
S'zootopia'
p1427
ssI274
(dp1428
g1408
g1409
sg1410
S'bellevue lincoln square cinemas'
p1429
sg1412
g1413
sg1414
g1415
sg1416
g1417
sg1418
g1419
sg1420
g1421
sg1422
g1423
sg1424
g1425
sg1426
g1427
ssI275
(dp1430
g1408
g1409
sg1410
S'varsity theater'
p1431
sg1412
g1413
sg1414
g1415
sg1416
g1417
sg1418
g1419
sg1420
g1421
sg1422
g1423
sg1424
g1425
sg1426
g1427
ssI276
(dp1432
g1408
g1409
sg1410
g1411
sg1412
g1413
sg1414
g1415
sg1416
S'regular'
p1433
sg1418
g1419
sg1420
g1421
sg1422
g1423
sg1424
g1425
sg1426
g1427
ssI277
(dp1434
g1408
g1409
sg1410
g1429
sg1412
g1413
sg1414
g1415
sg1416
g1433
sg1418
g1419
sg1420
g1421
sg1422
g1423
sg1424
g1425
sg1426
g1427
ssI278
(dp1435
S'city'
p1436
S'seattle'
p1437
sS'theater'
p1438
S'theaters all over'
p1439
sS'zip'
p1440
S'98101'
p1441
sS'distanceconstraints'
p1442
S'south side'
p1443
sS'video_format'
p1444
S'2d'
p1445
sS'state'
p1446
S'wa'
p1447
sS'starttime'
p1448
S'around 6 pm'
p1449
sS'date'
p1450
S'this evening'
p1451
sS'moviename'
p1452
S'zootopia'
p1453
ssI279
(dp1454
g1436
S'over seattle'
p1455
sg1438
g1439
sg1440
g1441
sg1442
g1443
sg1444
g1445
sg1446
g1447
sg1448
g1449
sg1450
g1451
sg1452
g1453
ssI280
(dp1456
g1436
S'bellevue'
p1457
sg1438
g1439
sg1440
g1441
sg1442
g1443
sg1444
g1445
sg1446
g1447
sg1448
g1449
sg1450
g1451
sg1452
g1453
ssI281
(dp1458
g1436
g1437
sg1438
S'regal meridian 16'
p1459
sg1440
g1441
sg1442
g1443
sg1444
g1445
sg1446
g1447
sg1448
g1449
sg1450
g1451
sg1452
g1453
ssI282
(dp1460
g1436
g1455
sg1438
g1459
sg1440
g1441
sg1442
g1443
sg1444
g1445
sg1446
g1447
sg1448
g1449
sg1450
g1451
sg1452
g1453
ssI283
(dp1461
S'date'
p1462
S'tonight'
p1463
sS'city'
p1464
S'dallas'
p1465
sS'theater'
p1466
S'alamo draft house'
p1467
sS'moviename'
p1468
S'deadpool'
p1469
sS'starttime'
p1470
S'5pm'
p1471
ssI284
(dp1472
g1462
g1463
sg1464
g1465
sg1466
S'alamo drafthouse'
p1473
sg1468
g1469
sg1470
g1471
ssI285
(dp1474
g1462
g1463
sg1464
g1465
sg1466
g1467
sg1468
g1469
sg1470
S'7:55pm'
p1475
ssI286
(dp1476
g1462
g1463
sg1464
g1465
sg1466
g1473
sg1468
g1469
sg1470
g1475
ssI287
(dp1477
g1462
g1463
sg1464
g1465
sg1466
g1467
sg1468
g1469
sg1470
S'10:15pm'
p1478
ssI288
(dp1479
S'date'
p1480
S'tonight'
p1481
sS'city'
p1482
S'st louis park'
p1483
sS'state'
p1484
S'mn'
p1485
sS'other'
p1486
S'unable to book movies'
p1487
sS'moviename'
p1488
S'deadpool'
p1489
ssI289
(dp1490
g1480
g1481
sg1482
g1483
sg1484
g1485
sg1486
S'I cannot understand your reply'
p1491
sg1488
g1489
ssI290
(dp1492
S'date'
p1493
S'tomorrow'
p1494
sS'city'
p1495
S'seattle'
p1496
sS'theater'
p1497
S'regal meridian 16'
p1498
sS'moviename'
p1499
S'zoolander 2'
p1500
sS'starttime'
p1501
S'9:25 pm'
p1502
ssI291
(dp1503
S'date'
p1504
S'tomorrow'
p1505
sS'moviename'
p1506
S'risen'
p1507
sS'theater'
p1508
S'regency commerce 14'
p1509
sS'starttime'
p1510
S'11:50am'
p1511
ssI292
(dp1512
g1504
g1505
sg1506
g1507
sg1508
g1509
sg1510
S'2:30pm'
p1513
ssI293
(dp1514
g1504
g1505
sg1506
g1507
sg1508
g1509
sg1510
S'7:50'
p1515
ssI294
(dp1516
g1504
g1505
sg1506
g1507
sg1508
g1509
sg1510
S'10:25'
p1517
ssI295
(dp1518
g1504
g1505
sg1506
g1507
sg1508
g1509
sg1510
S'2:30'
p1519
ssI296
(dp1520
S'other'
p1521
S'purchase tickets'
p1522
ssI297
(dp1523
g1521
S'look up date'
p1524
ssI298
(dp1525
g1521
S'increased functionality'
p1526
ssI299
(dp1527
S'city'
p1528
S'portland'
p1529
sS'theater'
p1530
S'Living Room Theaters Regal Lloyd Center 10'
p1531
sS'state'
p1532
S'oregon'
p1533
sS'starttime'
p1534
S'12:05pm'
p1535
sS'date'
p1536
S'this friday'
p1537
sS'moviename'
p1538
S'star wars'
p1539
ssI300
(dp1540
g1528
g1529
sg1530
S'century Eastport 16'
p1541
sg1532
g1533
sg1534
g1535
sg1536
g1537
sg1538
g1539
ssI301
(dp1542
g1528
g1529
sg1530
S'regal lloyd center 10'
p1543
sg1532
g1533
sg1534
g1535
sg1536
g1537
sg1538
g1539
ssI302
(dp1544
g1528
g1529
sg1530
g1531
sg1532
g1533
sg1534
S'6:25pm'
p1545
sg1536
g1537
sg1538
g1539
ssI303
(dp1546
g1528
g1529
sg1530
g1541
sg1532
g1533
sg1534
g1545
sg1536
g1537
sg1538
g1539
ssI304
(dp1547
S'city'
p1548
S'portland'
p1549
sS'theater'
p1550
S'regal pioneer place'
p1551
sS'video_format'
p1552
S'3d'
p1553
sS'state'
p1554
S'oregon'
p1555
sS'other'
p1556
S'functionality'
p1557
sS'starttime'
p1558
S'after 5 pm'
p1559
sS'date'
p1560
S'friday'
p1561
sS'moviename'
p1562
S'zootopia'
p1563
ssI305
(dp1564
g1548
g1549
sg1550
S'regal lloyd center 10'
p1565
sg1552
g1553
sg1554
g1555
sg1556
g1557
sg1558
g1559
sg1560
g1561
sg1562
g1563
ssI306
(dp1566
g1548
g1549
sg1550
g1551
sg1552
S' standard'
p1567
sg1554
g1555
sg1556
g1557
sg1558
g1559
sg1560
g1561
sg1562
g1563
ssI307
(dp1568
g1548
g1549
sg1550
g1565
sg1552
g1567
sg1554
g1555
sg1556
g1557
sg1558
g1559
sg1560
g1561
sg1562
g1563
ssI308
(dp1569
g1548
g1549
sg1550
g1551
sg1552
S'standard'
p1570
sg1554
g1555
sg1556
g1557
sg1558
g1559
sg1560
g1561
sg1562
g1563
ssI309
(dp1571
S'city'
p1572
S'seattle'
p1573
sS'theater'
p1574
S'regal meridian 16'
p1575
sS'zip'
p1576
S'98101'
p1577
sS'critic_rating'
p1578
S'top 4'
p1579
sS'state'
p1580
S'wa'
p1581
sS'starttime'
p1582
S'night around 8pm'
p1583
sS'date'
p1584
S'tomorrow'
p1585
sS'moviename'
p1586
S'zootopia'
p1587
ssI310
(dp1588
g1572
S'bellevue'
p1589
sg1574
g1575
sg1576
g1577
sg1578
g1579
sg1580
g1581
sg1582
g1583
sg1584
g1585
sg1586
g1587
ssI311
(dp1590
g1572
g1573
sg1574
S'bellevue lincoln square cinemas'
p1591
sg1576
g1577
sg1578
g1579
sg1580
g1581
sg1582
g1583
sg1584
g1585
sg1586
g1587
ssI312
(dp1592
g1572
g1589
sg1574
g1591
sg1576
g1577
sg1578
g1579
sg1580
g1581
sg1582
g1583
sg1584
g1585
sg1586
g1587
ssI313
(dp1593
g1572
g1573
sg1574
g1575
sg1576
S'98004'
p1594
sg1578
g1579
sg1580
g1581
sg1582
g1583
sg1584
g1585
sg1586
g1587
ssI314
(dp1595
S'city'
p1596
S'seattle'
p1597
sS'theater'
p1598
S'regal meridian 16'
p1599
sS'other'
p1600
S'name'
p1601
sS'starttime'
p1602
S'8:40pm'
p1603
sS'date'
p1604
S'tonight'
p1605
sS'moviename'
p1606
S'zootopia'
p1607
ssI315
(dp1608
g1596
g1597
sg1598
g1599
sg1600
S'Master User'
p1609
sg1602
g1603
sg1604
g1605
sg1606
g1607
ssI316
(dp1610
g1596
g1597
sg1598
g1599
sg1600
g1601
sg1602
S'8:40'
p1611
sg1604
g1605
sg1606
g1607
ssI317
(dp1612
g1596
g1597
sg1598
g1599
sg1600
g1609
sg1602
g1611
sg1604
g1605
sg1606
g1607
ssI318
(dp1613
g1596
g1597
sg1598
g1599
sg1600
g1601
sg1602
g1603
sg1604
g1605
sg1606
S'Zootopia'
p1614
ssI319
(dp1615
S'city'
p1616
S'portland'
p1617
sS'theater'
p1618
S'regal lloyd center 10 & IMAX'
p1619
sS'zip'
p1620
S'97232'
p1621
sS'price'
p1622
S'$20'
p1623
sS'state'
p1624
S'oregon'
p1625
sS'starttime'
p1626
S'12:05pm'
p1627
sS'date'
p1628
S'friday'
p1629
sS'moviename'
p1630
S'star wars'
p1631
ssI320
(dp1632
g1616
S'Portland'
p1633
sg1618
g1619
sg1620
g1621
sg1622
g1623
sg1624
g1625
sg1626
g1627
sg1628
g1629
sg1630
g1631
ssI321
(dp1634
g1616
g1617
sg1618
S'CENTURY 16 EASTPORT PLAZA'
p1635
sg1620
g1621
sg1622
g1623
sg1624
g1625
sg1626
g1627
sg1628
g1629
sg1630
g1631
ssI322
(dp1636
g1616
g1633
sg1618
g1635
sg1620
g1621
sg1622
g1623
sg1624
g1625
sg1626
g1627
sg1628
g1629
sg1630
g1631
ssI323
(dp1637
g1616
g1617
sg1618
S'century 16 EASTPORT PLAZA'
p1638
sg1620
g1621
sg1622
g1623
sg1624
g1625
sg1626
g1627
sg1628
g1629
sg1630
g1631
ssI324
(dp1639
S'date'
p1640
S'tomorrow'
p1641
sS'city'
p1642
S'seattle'
p1643
sS'theater'
p1644
S'regal meridian 16'
p1645
sS'moviename'
p1646
S'zootopia'
p1647
sS'starttime'
p1648
S'9:10 pm'
p1649
ssI325
(dp1650
S'city'
p1651
S'seattle'
p1652
sS'theater'
p1653
S'regal meridian 16'
p1654
sS'other'
p1655
S'name'
p1656
sS'starttime'
p1657
S'8:40pm tonight'
p1658
sS'date'
p1659
S'tonight'
p1660
sS'moviename'
p1661
S'zootopia'
p1662
ssI326
(dp1663
g1651
g1652
sg1653
g1654
sg1655
S'master user'
p1664
sg1657
g1658
sg1659
g1660
sg1661
g1662
ssI327
(dp1665
g1651
g1652
sg1653
g1654
sg1655
g1656
sg1657
S'8:40'
p1666
sg1659
g1660
sg1661
g1662
ssI328
(dp1667
g1651
g1652
sg1653
g1654
sg1655
g1664
sg1657
g1666
sg1659
g1660
sg1661
g1662
ssI329
(dp1668
S'date'
p1669
S'tomorrow'
p1670
sS'city'
p1671
S'seattle'
p1672
sS'theater'
p1673
S'regal meridian 16'
p1674
sS'moviename'
p1675
S'hail caesar'
p1676
sS'starttime'
p1677
S'8:45 pm'
p1678
ssI330
(dp1679
S'city'
p1680
S'Monroe'
p1681
sS'theater'
p1682
S'regal barkley village stadium 16'
p1683
sS'zip'
p1684
S'98272'
p1685
sS'distanceconstraints'
p1686
S'near me'
p1687
sS'state'
p1688
S'wa'
p1689
sS'starttime'
p1690
S'around 8pm'
p1691
sS'date'
p1692
S'tonight'
p1693
sS'moviename'
p1694
S'kung fu panda 3'
p1695
ssI331
(dp1696
g1680
g1681
sg1682
S'amc loews cascade mall'
p1697
sg1684
g1685
sg1686
g1687
sg1688
g1689
sg1690
g1691
sg1692
g1693
sg1694
g1695
ssI332
(dp1698
g1680
g1681
sg1682
S'regal marysville 14'
p1699
sg1684
g1685
sg1686
g1687
sg1688
g1689
sg1690
g1691
sg1692
g1693
sg1694
g1695
ssI333
(dp1700
g1680
g1681
sg1682
g1683
sg1684
g1685
sg1686
g1687
sg1688
g1689
sg1690
S'9:10'
p1701
sg1692
g1693
sg1694
g1695
ssI334
(dp1702
g1680
g1681
sg1682
g1697
sg1684
g1685
sg1686
g1687
sg1688
g1689
sg1690
g1701
sg1692
g1693
sg1694
g1695
ssI335
(dp1703
S'city'
p1704
S'cary'
p1705
sS'theater'
p1706
S'park west 14'
p1707
sS'video_format'
p1708
S'3d'
p1709
sS'state'
p1710
S'north carolina'
p1711
sS'mpaa_rating'
p1712
S'appropriate for the whole family'
p1713
sS'starttime'
p1714
S'around 6pm'
p1715
sS'date'
p1716
S'saturday'
p1717
sS'moviename'
p1718
S'zootopia'
p1719
ssI336
(dp1720
g1704
g1705
sg1706
S'fangandgo'
p1721
sg1708
g1709
sg1710
g1711
sg1712
g1713
sg1714
g1715
sg1716
g1717
sg1718
g1719
ssI337
(dp1722
g1704
g1705
sg1706
S'Frank Theatres Parkside Town Commons Stadium 11'
p1723
sg1708
g1709
sg1710
g1711
sg1712
g1713
sg1714
g1715
sg1716
g1717
sg1718
g1719
ssI338
(dp1724
g1704
g1705
sg1706
S'Frank Theatres'
p1725
sg1708
g1709
sg1710
g1711
sg1712
g1713
sg1714
g1715
sg1716
g1717
sg1718
g1719
ssI339
(dp1726
g1704
g1705
sg1706
g1707
sg1708
g1709
sg1710
g1711
sg1712
S'pg'
p1727
sg1714
g1715
sg1716
g1717
sg1718
g1719
ssI340
(dp1728
S'city'
p1729
S'seattle'
p1730
sS'theater'
p1731
S'regal meridian 16'
p1732
sS'other'
p1733
S'name'
p1734
sS'starttime'
p1735
S'8:45 pm'
p1736
sS'date'
p1737
S'tomorrow'
p1738
sS'moviename'
p1739
S'hail caesar'
p1740
ssI341
(dp1741
S'city'
p1742
S'birmingham'
p1743
sS'theater'
p1744
S'carmike summit 16'
p1745
sS'zip'
p1746
S'35243'
p1747
sS'date'
p1748
S'today'
p1749
sS'state'
p1750
S'al'
p1751
sS'starttime'
p1752
S'around 2pm'
p1753
sS'genre'
p1754
S'action'
p1755
sS'moviename'
p1756
S'deadpool'
p1757
ssI342
(dp1758
g1742
g1743
sg1744
S'carmike summit'
p1759
sg1746
g1747
sg1748
g1749
sg1750
g1751
sg1752
g1753
sg1754
g1755
sg1756
g1757
ssI343
(dp1760
g1742
g1743
sg1744
g1745
sg1746
g1747
sg1748
g1749
sg1750
g1751
sg1752
S'2:20PM'
p1761
sg1754
g1755
sg1756
g1757
ssI344
(dp1762
g1742
g1743
sg1744
g1759
sg1746
g1747
sg1748
g1749
sg1750
g1751
sg1752
g1761
sg1754
g1755
sg1756
g1757
ssI345
(dp1763
g1742
g1743
sg1744
g1745
sg1746
g1747
sg1748
g1749
sg1750
g1751
sg1752
S'2:20'
p1764
sg1754
g1755
sg1756
g1757
ssI346
(dp1765
S'city'
p1766
S'whittier'
p1767
sS'theater'
p1768
S'whittier village stadium cinemas'
p1769
sS'zip'
p1770
S'90602'
p1771
sS'state'
p1772
S'ca'
p1773
sS'starttime'
p1774
S'between noon and 4pm'
p1775
sS'date'
p1776
S'next sunday'
p1777
sS'moviename'
p1778
S'london has fallen'
p1779
ssI347
(dp1780
g1766
g1767
sg1768
g1769
sg1770
g1771
sg1772
g1773
sg1774
S'1:30pm'
p1781
sg1776
g1777
sg1778
g1779
ssI348
(dp1782
g1766
g1767
sg1768
g1769
sg1770
g1771
sg1772
g1773
sg1774
g1775
sg1776
S'3/13'
p1783
sg1778
g1779
ssI349
(dp1784
g1766
g1767
sg1768
g1769
sg1770
g1771
sg1772
g1773
sg1774
g1781
sg1776
g1783
sg1778
g1779
ssI350
(dp1785
S'theater'
p1786
S'cinemar downey'
p1787
sS'zip'
p1788
S'90601'
p1789
sS'other'
p1790
S'two'
p1791
sS'starttime'
p1792
S'early'
p1793
sS'date'
p1794
S'tomorrow'
p1795
sS'moviename'
p1796
S'the witch'
p1797
ssI351
(dp1798
g1786
S'amc theaters puente hills'
p1799
sg1788
g1789
sg1790
g1791
sg1792
g1793
sg1794
g1795
sg1796
g1797
ssI352
(dp1800
g1786
g1787
sg1788
g1789
sg1790
g1791
sg1792
S'10:35'
p1801
sg1794
g1795
sg1796
g1797
ssI353
(dp1802
g1786
g1799
sg1788
g1789
sg1790
g1791
sg1792
g1801
sg1794
g1795
sg1796
g1797
ssI354
(dp1803
g1786
g1787
sg1788
g1789
sg1790
g1791
sg1792
S'11:40 am'
p1804
sg1794
g1795
sg1796
g1797
ssI355
(dp1805
S'city'
p1806
S'sparta'
p1807
sS'theater'
p1808
S"wehrenberg o'fallon 15 cine"
p1809
sS'zip'
p1810
S'62269'
p1811
sS'date'
p1812
S'tomorrow'
p1813
sS'state'
p1814
S'illinois'
p1815
sS'other'
p1816
S'another preference'
p1817
sS'starttime'
p1818
S'afternoon'
p1819
sS'genre'
p1820
S'romantic comedies'
p1821
sS'moviename'
p1822
S'zoolander 2'
p1823
ssI356
(dp1824
g1806
S'Shiloh'
p1825
sg1808
g1809
sg1810
g1811
sg1812
g1813
sg1814
g1815
sg1816
g1817
sg1818
g1819
sg1820
g1821
sg1822
g1823
ssI357
(dp1826
g1806
S'Belleville'
p1827
sg1808
g1809
sg1810
g1811
sg1812
g1813
sg1814
g1815
sg1816
g1817
sg1818
g1819
sg1820
g1821
sg1822
g1823
ssI358
(dp1828
g1806
S"o'fallon"
p1829
sg1808
g1809
sg1810
g1811
sg1812
g1813
sg1814
g1815
sg1816
g1817
sg1818
g1819
sg1820
g1821
sg1822
g1823
ssI359
(dp1830
g1806
S'fairview heights'
p1831
sg1808
g1809
sg1810
g1811
sg1812
g1813
sg1814
g1815
sg1816
g1817
sg1818
g1819
sg1820
g1821
sg1822
g1823
ssI360
(dp1832
S'date'
p1833
S'tomorrow'
p1834
sS'city'
p1835
S'seattle'
p1836
sS'theater'
p1837
S'regal meridian 16'
p1838
sS'moviename'
p1839
S'zootopia'
p1840
sS'starttime'
p1841
S'9:10 pm'
p1842
ssI361
(dp1843
S'date'
p1844
S'tomorrow night'
p1845
sS'city'
p1846
S'seattle'
p1847
sS'moviename'
p1848
S'zootopia'
p1849
ssI362
(dp1850
S'city'
p1851
S'seattle'
p1852
sS'theater'
p1853
S'amc pacific place 11'
p1854
sS'zip'
p1855
S'98101'
p1856
sS'theater_chain'
p1857
S'amc'
p1858
sS'state'
p1859
S'wa'
p1860
sS'starttime'
p1861
S'6:10pm'
p1862
sS'date'
p1863
S'tonight'
p1864
sS'moviename'
p1865
S'deadpool'
p1866
ssI363
(dp1867
g1851
S'bellevue'
p1868
sg1853
g1854
sg1855
g1856
sg1857
g1858
sg1859
g1860
sg1861
g1862
sg1863
g1864
sg1865
g1866
ssI364
(dp1869
g1851
g1852
sg1853
S'bellevue lincoln square cinemas'
p1870
sg1855
g1856
sg1857
g1858
sg1859
g1860
sg1861
g1862
sg1863
g1864
sg1865
g1866
ssI365
(dp1871
g1851
g1868
sg1853
g1870
sg1855
g1856
sg1857
g1858
sg1859
g1860
sg1861
g1862
sg1863
g1864
sg1865
g1866
ssI366
(dp1872
g1851
g1852
sg1853
S'pacific place 11'
p1873
sg1855
g1856
sg1857
g1858
sg1859
g1860
sg1861
g1862
sg1863
g1864
sg1865
g1866
ssI367
(dp1874
S'other'
p1875
S'purchase tickets'
p1876
sS'moviename'
p1877
S'first'
p1878
ssI368
(dp1879
S'city'
p1880
S'birmingham'
p1881
sS'theater'
p1882
S'carmike summit 16'
p1883
sS'video_format'
p1884
S'3d'
p1885
sS'state'
p1886
S'al'
p1887
sS'mpaa_rating'
p1888
S'pg'
p1889
sS'starttime'
p1890
S'2 pm'
p1891
sS'date'
p1892
S'saturday'
p1893
sS'genre'
p1894
S'family friendly'
p1895
sS'moviename'
p1896
S'zootopia'
p1897
ssI369
(dp1898
g1880
g1881
sg1882
g1883
sg1884
S'standard'
p1899
sg1886
g1887
sg1888
g1889
sg1890
g1891
sg1892
g1893
sg1894
g1895
sg1896
g1897
ssI370
(dp1900
g1880
g1881
sg1882
g1883
sg1884
g1885
sg1886
S'alabama'
p1901
sg1888
g1889
sg1890
g1891
sg1892
g1893
sg1894
g1895
sg1896
g1897
ssI371
(dp1902
g1880
g1881
sg1882
g1883
sg1884
g1899
sg1886
g1901
sg1888
g1889
sg1890
g1891
sg1892
g1893
sg1894
g1895
sg1896
g1897
ssI372
(dp1903
g1880
g1881
sg1882
g1883
sg1884
g1885
sg1886
g1887
sg1888
g1889
sg1890
S'1:45pm'
p1904
sg1892
g1893
sg1894
g1895
sg1896
g1897
ssI373
(dp1905
S'city'
p1906
S'seattle'
p1907
sS'theater'
p1908
S'bellevue lincoln square cinemas'
p1909
sS'distanceconstraints'
p1910
S'east side'
p1911
sS'starttime'
p1912
S'around 2pm'
p1913
sS'date'
p1914
S'saturday'
p1915
sS'moviename'
p1916
S'zootopia'
p1917
ssI374
(dp1918
g1906
g1907
sg1908
S'bellevue lincoln square'
p1919
sg1910
g1911
sg1912
g1913
sg1914
g1915
sg1916
g1917
ssI375
(dp1920
g1906
g1907
sg1908
g1909
sg1910
g1911
sg1912
S'2:35 pm'
p1921
sg1914
g1915
sg1916
g1917
ssI376
(dp1922
g1906
g1907
sg1908
g1919
sg1910
g1911
sg1912
g1921
sg1914
g1915
sg1916
g1917
ssI377
(dp1923
g1906
g1907
sg1908
g1909
sg1910
g1911
sg1912
S'2:35'
p1924
sg1914
g1915
sg1916
g1917
ssI378
(dp1925
S'city'
p1926
S'seattle'
p1927
sS'theater'
p1928
S'regal meridian 16'
p1929
sS'zip'
p1930
S'98004'
p1931
sS'video_format'
p1932
S'2d'
p1933
sS'state'
p1934
S'wa'
p1935
sS'starttime'
p1936
S'4:10'
p1937
sS'date'
p1938
S'tonight'
p1939
sS'moviename'
p1940
S'zootopia'
p1941
ssI379
(dp1942
g1926
S'bellevue'
p1943
sg1928
g1929
sg1930
g1931
sg1932
g1933
sg1934
g1935
sg1936
g1937
sg1938
g1939
sg1940
g1941
ssI380
(dp1944
g1926
g1927
sg1928
S'bellevue lincoln square cinemas'
p1945
sg1930
g1931
sg1932
g1933
sg1934
g1935
sg1936
g1937
sg1938
g1939
sg1940
g1941
ssI381
(dp1946
g1926
g1943
sg1928
g1945
sg1930
g1931
sg1932
g1933
sg1934
g1935
sg1936
g1937
sg1938
g1939
sg1940
g1941
ssI382
(dp1947
g1926
g1927
sg1928
g1929
sg1930
g1931
sg1932
S'3d'
p1948
sg1934
g1935
sg1936
g1937
sg1938
g1939
sg1940
g1941
ssI383
(dp1949
S'city'
p1950
S'albany'
p1951
sS'state'
p1952
S'ny'
p1953
sS'moviename'
p1954
S'whiskey tango foxtrot'
p1955
sS'theater'
p1956
S'any'
p1957
sS'starttime'
p1958
S'soonest'
p1959
ssI384
(dp1960
g1950
g1951
sg1952
g1953
sg1954
g1955
sg1956
S'regal clifton park stadium'
p1961
sg1958
g1959
ssI385
(dp1962
g1950
g1951
sg1952
g1953
sg1954
g1955
sg1956
g1957
sg1958
S'12:40pm'
p1963
ssI386
(dp1964
g1950
g1951
sg1952
g1953
sg1954
g1955
sg1956
g1961
sg1958
g1963
ssI387
(dp1965
S'city'
p1966
S'portland'
p1967
sS'theater'
p1968
S'century eastport 16'
p1969
sS'state'
p1970
S'oregon'
p1971
sS'other'
p1972
S'Fandango'
p1973
sS'starttime'
p1974
S'12:20pm'
p1975
sS'date'
p1976
S'friday'
p1977
sS'moviename'
p1978
S'star wars'
p1979
ssI388
(dp1980
g1966
g1967
sg1968
g1969
sg1970
g1971
sg1972
g1973
sg1974
S'3:40'
p1981
sg1976
g1977
sg1978
g1979
ssI389
(dp1982
g1966
g1967
sg1968
g1969
sg1970
g1971
sg1972
g1973
sg1974
S'6:50'
p1983
sg1976
g1977
sg1978
g1979
ssI390
(dp1984
g1966
g1967
sg1968
g1969
sg1970
g1971
sg1972
g1973
sg1974
S'10:00'
p1985
sg1976
g1977
sg1978
g1979
ssI391
(dp1986
g1966
g1967
sg1968
g1969
sg1970
g1971
sg1972
g1973
sg1974
S'10 o clock'
p1987
sg1976
g1977
sg1978
g1979
ssI392
(dp1988
S'genre'
p1989
S'action'
p1990
sS'critic_rating'
p1991
S'great reviews all around with a 84 percent on rotten tomatoes and 93 of audience members recommending it'
p1992
sS'moviename'
p1993
S'deadpool'
p1994
sS'actor'
p1995
S'ryan reynolds'
p1996
ssI393
(dp1997
g1989
g1990
sg1991
g1992
sg1993
S'london has fallen'
p1998
sg1995
g1996
ssI394
(dp1999
g1989
g1990
sg1991
g1992
sg1993
S'the revenant'
p2000
sg1995
g1996
ssI395
(dp2001
S'city'
p2002
S'houma'
p2003
sS'theater'
p2004
S'amc houma palace 10'
p2005
sS'genre'
p2006
S'comedy'
p2007
sS'state'
p2008
S'louisiana'
p2009
sS'starttime'
p2010
S'night'
p2011
sS'date'
p2012
S'this week'
p2013
sS'moviename'
p2014
S''
ssI396
(dp2015
g2002
S'la'
p2016
sg2004
g2005
sg2006
g2007
sg2008
g2009
sg2010
g2011
sg2012
g2013
sg2014
S''
ssI397
(dp2017
g2002
g2003
sg2004
g2005
sg2006
S'adult comedy'
p2018
sg2008
g2009
sg2010
g2011
sg2012
g2013
sg2014
S''
ssI398
(dp2019
g2002
g2016
sg2004
g2005
sg2006
g2018
sg2008
g2009
sg2010
g2011
sg2012
g2013
sg2014
S''
ssI399
(dp2020
g2002
g2003
sg2004
g2005
sg2006
g2007
sg2008
g2009
sg2010
S'2:15pm'
p2021
sg2012
g2013
sg2014
S''
ssI400
(dp2022
S'city'
p2023
S'la'
p2024
sS'theater'
p2025
S'regal la stadium 14'
p2026
sS'date'
p2027
S'tomorrow'
p2028
sS'state'
p2029
S'ca'
p2030
sS'starttime'
p2031
S'night'
p2032
sS'genre'
p2033
S'action'
p2034
sS'moviename'
p2035
S'london has fallen'
p2036
ssI401
(dp2037
g2023
S'los angeles'
p2038
sg2025
g2026
sg2027
g2028
sg2029
g2030
sg2031
g2032
sg2033
g2034
sg2035
g2036
ssI402
(dp2039
g2023
g2024
sg2025
S'olympic blvd'
p2040
sg2027
g2028
sg2029
g2030
sg2031
g2032
sg2033
g2034
sg2035
g2036
ssI403
(dp2041
g2023
g2038
sg2025
g2040
sg2027
g2028
sg2029
g2030
sg2031
g2032
sg2033
g2034
sg2035
g2036
ssI404
(dp2042
g2023
g2024
sg2025
g2026
sg2027
g2028
sg2029
g2030
sg2031
S'10 cloverfield lane'
p2043
sg2033
g2034
sg2035
g2036
ssI405
(dp2044
S'distanceconstraints'
p2045
S'local theater'
p2046
sS'theater_chain'
p2047
S'century'
p2048
sS'state'
p2049
S'illinois'
p2050
sS'price'
p2051
S'$10'
p2052
sS'city'
p2053
S'evanston'
p2054
ssI406
(dp2055
S'city'
p2056
S'Seattle'
p2057
sS'theater'
p2058
S'Regal Meridan 16 Bellevue Lincoln Square Cinemas'
p2059
sS'video_format'
p2060
S'regular'
p2061
sS'state'
p2062
S'WA'
p2063
sS'starttime'
p2064
S'roughly every hour'
p2065
sS'date'
p2066
S'tomorrow night'
p2067
sS'moviename'
p2068
S'zootopia'
p2069
ssI407
(dp2070
g2056
g2057
sg2058
S'Pacific Science Center IMAX Theaters'
p2071
sg2060
g2061
sg2062
g2063
sg2064
g2065
sg2066
g2067
sg2068
g2069
ssI408
(dp2072
g2056
g2057
sg2058
S'regal meridan 16'
p2073
sg2060
g2061
sg2062
g2063
sg2064
g2065
sg2066
g2067
sg2068
g2069
ssI409
(dp2074
g2056
g2057
sg2058
g2059
sg2060
S'3d'
p2075
sg2062
g2063
sg2064
g2065
sg2066
g2067
sg2068
g2069
ssI410
(dp2076
g2056
g2057
sg2058
g2071
sg2060
g2075
sg2062
g2063
sg2064
g2065
sg2066
g2067
sg2068
g2069
ssI411
(dp2077
S'date'
p2078
S'today'
p2079
ssI412
(dp2080
S'city'
p2081
S'royal oak'
p2082
sS'theater'
p2083
S'any'
p2084
sS'zip'
p2085
S'32289'
p2086
sS'distanceconstraints'
p2087
S'closest theater to you'
p2088
sS'theater_chain'
p2089
S'amc star john r 15'
p2090
sS'state'
p2091
S'mi'
p2092
sS'other'
p2093
S'new release'
p2094
sS'starttime'
p2095
S'7:00'
p2096
sS'date'
p2097
S'tonight'
p2098
sS'moviename'
p2099
S'10 cloverfield lane'
p2100
ssI413
(dp2101
g2081
S'madison heights'
p2102
sg2083
g2084
sg2085
g2086
sg2087
g2088
sg2089
g2090
sg2091
g2092
sg2093
g2094
sg2095
g2096
sg2097
g2098
sg2099
g2100
ssI414
(dp2103
g2081
S'Southfield'
p2104
sg2083
g2084
sg2085
g2086
sg2087
g2088
sg2089
g2090
sg2091
g2092
sg2093
g2094
sg2095
g2096
sg2097
g2098
sg2099
g2100
ssI415
(dp2105
g2081
g2082
sg2083
S'box office window'
p2106
sg2085
g2086
sg2087
g2088
sg2089
g2090
sg2091
g2092
sg2093
g2094
sg2095
g2096
sg2097
g2098
sg2099
g2100
ssI416
(dp2107
g2081
g2102
sg2083
g2106
sg2085
g2086
sg2087
g2088
sg2089
g2090
sg2091
g2092
sg2093
g2094
sg2095
g2096
sg2097
g2098
sg2099
g2100
ssI417
(dp2108
S'city'
p2109
S'carbondale'
p2110
sS'theater'
p2111
S'amc showplace carbondale'
p2112
sS'date'
p2113
S'this week'
p2114
sS'state'
p2115
S'illinois'
p2116
sS'starttime'
p2117
S'afternoon'
p2118
sS'genre'
p2119
S'action'
p2120
sS'moviename'
p2121
S'london has fallen'
p2122
ssI418
(dp2123
g2109
g2110
sg2111
S'Main Street Carbondale'
p2124
sg2113
g2114
sg2115
g2116
sg2117
g2118
sg2119
g2120
sg2121
g2122
ssI419
(dp2125
g2109
g2110
sg2111
S'AMC UNIVERSITY PLACE 8'
p2126
sg2113
g2114
sg2115
g2116
sg2117
g2118
sg2119
g2120
sg2121
g2122
ssI420
(dp2127
g2109
g2110
sg2111
g2112
sg2113
S'tomorrow'
p2128
sg2115
g2116
sg2117
g2118
sg2119
g2120
sg2121
g2122
ssI421
(dp2129
g2109
g2110
sg2111
g2124
sg2113
g2128
sg2115
g2116
sg2117
g2118
sg2119
g2120
sg2121
g2122
ssI422
(dp2130
S'city'
p2131
S'monroe'
p2132
sS'theater'
p2133
S'regal barkley village stadium 16'
p2134
sS'zip'
p2135
S'98272'
p2136
sS'distanceconstraints'
p2137
S'near'
p2138
sS'state'
p2139
S'wa'
p2140
sS'starttime'
p2141
S'around 8pm'
p2142
sS'date'
p2143
S'tonight'
p2144
sS'moviename'
p2145
S'kung fu panda 3'
p2146
ssI423
(dp2147
g2131
g2132
sg2133
S'amc loews cascade mall'
p2148
sg2135
g2136
sg2137
g2138
sg2139
g2140
sg2141
g2142
sg2143
g2144
sg2145
g2146
ssI424
(dp2149
g2131
g2132
sg2133
S'regal marysville 14'
p2150
sg2135
g2136
sg2137
g2138
sg2139
g2140
sg2141
g2142
sg2143
g2144
sg2145
g2146
ssI425
(dp2151
g2131
g2132
sg2133
g2134
sg2135
g2136
sg2137
g2138
sg2139
g2140
sg2141
S'9:10'
p2152
sg2143
g2144
sg2145
g2146
ssI426
(dp2153
g2131
g2132
sg2133
g2148
sg2135
g2136
sg2137
g2138
sg2139
g2140
sg2141
g2152
sg2143
g2144
sg2145
g2146
ssI427
(dp2154
S'moviename'
p2155
S'london has fallen'
p2156
ssI428
(dp2157
S'city'
p2158
S'seattle'
p2159
sS'theater'
p2160
S'amc pacific place 11 600 pine s'
p2161
sS'zip'
p2162
S'98101'
p2163
sS'distanceconstraints'
p2164
S' seattle area'
p2165
sS'state'
p2166
S'wa'
p2167
sS'other'
p2168
S'place that serves seafood'
p2169
sS'starttime'
p2170
S'after dinner'
p2171
sS'date'
p2172
S'friday'
p2173
sS'moviename'
p2174
S'10 cloverfield lane'
p2175
ssI429
(dp2176
g2158
S'bellevue'
p2177
sg2160
g2161
sg2162
g2163
sg2164
g2165
sg2166
g2167
sg2168
g2169
sg2170
g2171
sg2172
g2173
sg2174
g2175
ssI430
(dp2178
g2158
g2159
sg2160
S'bellevue lincoln square cinemas'
p2179
sg2162
g2163
sg2164
g2165
sg2166
g2167
sg2168
g2169
sg2170
g2171
sg2172
g2173
sg2174
g2175
ssI431
(dp2180
g2158
g2177
sg2160
g2179
sg2162
g2163
sg2164
g2165
sg2166
g2167
sg2168
g2169
sg2170
g2171
sg2172
g2173
sg2174
g2175
ssI432
(dp2181
g2158
g2159
sg2160
g2161
sg2162
S'98004'
p2182
sg2164
g2165
sg2166
g2167
sg2168
g2169
sg2170
g2171
sg2172
g2173
sg2174
g2175
ssI433
(dp2183
S'city'
p2184
S'birmingham'
p2185
sS'theater'
p2186
S'carmike summit 16'
p2187
sS'critic_rating'
p2188
S'6'
sS'date'
p2189
S'friday'
p2190
sS'state'
p2191
S'al'
p2192
sS'other'
p2193
S'imdb'
p2194
sS'starttime'
p2195
S'matinee'
p2196
sS'genre'
p2197
S'action'
p2198
sS'moviename'
p2199
S'deadpool'
p2200
ssI434
(dp2201
g2184
g2185
sg2186
g2187
sg2188
S'5'
sg2189
g2190
sg2191
g2192
sg2193
g2194
sg2195
g2196
sg2197
g2198
sg2199
g2200
ssI435
(dp2202
g2184
g2185
sg2186
g2187
sg2188
S'6'
sg2189
S'saturday'
p2203
sg2191
g2192
sg2193
g2194
sg2195
g2196
sg2197
g2198
sg2199
g2200
ssI436
(dp2204
g2184
g2185
sg2186
g2187
sg2188
S'5'
sg2189
g2203
sg2191
g2192
sg2193
g2194
sg2195
g2196
sg2197
g2198
sg2199
g2200
ssI437
(dp2205
g2184
g2185
sg2186
g2187
sg2188
S'6'
sg2189
g2190
sg2191
g2192
sg2193
g2194
sg2195
S'evening'
p2206
sg2197
g2198
sg2199
g2200
ssI438
(dp2207
S'genre'
p2208
S'drama'
p2209
sS'city'
p2210
S'seattle'
p2211
sS'moviename'
p2212
S'eddie the eagle'
p2213
sS'theater'
p2214
S'regal meridian sundance cinemas'
p2215
ssI439
(dp2216
g2208
g2209
sg2210
g2211
sg2212
S'big short'
p2217
sg2214
g2215
ssI440
(dp2218
g2208
g2209
sg2210
g2211
sg2212
S'the big short'
p2219
sg2214
g2215
ssI441
(dp2220
g2208
g2209
sg2210
g2211
sg2212
g2213
sg2214
S'regal thornton place'
p2221
ssI442
(dp2222
g2208
g2209
sg2210
g2211
sg2212
g2217
sg2214
g2221
ssI443
(dp2223
S'city'
p2224
S'Long Island'
p2225
sS'state'
p2226
S'NY'
p2227
sS'moviename'
p2228
S'Deadpool'
p2229
sS'theater'
p2230
S'loews stony brook 17'
p2231
sS'starttime'
p2232
S'tonight'
p2233
ssI444
(dp2234
g2224
g2225
sg2226
g2227
sg2228
g2229
sg2230
S'amc loews stony brook'
p2235
sg2232
g2233
ssI445
(dp2236
g2224
g2225
sg2226
g2227
sg2228
g2229
sg2230
g2231
sg2232
S'7:30 pm'
p2237
ssI446
(dp2238
g2224
g2225
sg2226
g2227
sg2228
g2229
sg2230
g2235
sg2232
g2237
ssI447
(dp2239
g2224
g2225
sg2226
g2227
sg2228
g2229
sg2230
g2231
sg2232
S'8:15 pm'
p2240
ssI448
(dp2241
S'city'
p2242
S'portland'
p2243
sS'theater'
p2244
S'regal fox tower stadium 10'
p2245
sS'state'
p2246
S'oregon'
p2247
sS'starttime'
p2248
S'after 6 pm'
p2249
sS'date'
p2250
S'saturday'
p2251
sS'moviename'
p2252
S'whiskey tango foxtrot'
p2253
ssI449
(dp2254
g2242
g2243
sg2244
g2245
sg2246
g2247
sg2248
S'6:45'
p2255
sg2250
g2251
sg2252
g2253
ssI450
(dp2256
S'other'
p2257
S'favorite part'
p2258
sS'moviename'
p2259
S'deadpool'
p2260
ssI451
(dp2261
g2257
S'worth watching'
p2262
sg2259
g2260
ssI452
(dp2263
S'city'
p2264
S'des moines'
p2265
sS'theater'
p2266
S'any'
p2267
sS'state'
p2268
S'iowa'
p2269
sS'mpaa_rating'
p2270
S'pg'
p2271
sS'starttime'
p2272
S' around 7pm'
p2273
sS'date'
p2274
S'tomorrow'
p2275
sS'moviename'
p2276
S'zootopia'
p2277
ssI453
(dp2278
g2264
g2265
sg2266
S'flix brewhouse des moines'
p2279
sg2268
g2269
sg2270
g2271
sg2272
g2273
sg2274
g2275
sg2276
g2277
ssI454
(dp2280
g2264
g2265
sg2266
S'carmike cobblestone 9'
p2281
sg2268
g2269
sg2270
g2271
sg2272
g2273
sg2274
g2275
sg2276
g2277
ssI455
(dp2282
g2264
g2265
sg2266
g2267
sg2268
g2269
sg2270
g2271
sg2272
g2273
sg2274
g2275
sg2276
S'kung fu panda 3'
p2283
ssI456
(dp2284
g2264
g2265
sg2266
g2279
sg2268
g2269
sg2270
g2271
sg2272
g2273
sg2274
g2275
sg2276
g2283
ssI457
(dp2285
S'city'
p2286
S'northern san francisco'
p2287
sS'theater'
p2288
S'amc van ness 14'
p2289
sS'distanceconstraints'
p2290
S'northern part of the city'
p2291
sS'video_format'
p2292
S'standard'
p2293
sS'state'
p2294
S'ca'
p2295
sS'starttime'
p2296
S'afternoon'
p2297
sS'date'
p2298
S'tomorrow'
p2299
sS'moviename'
p2300
S'zootopia'
p2301
ssI458
(dp2302
g2286
S'94109'
p2303
sg2288
g2289
sg2290
g2291
sg2292
g2293
sg2294
g2295
sg2296
g2297
sg2298
g2299
sg2300
g2301
ssI459
(dp2304
g2286
g2287
sg2288
S'AMC Van Ness'
p2305
sg2290
g2291
sg2292
g2293
sg2294
g2295
sg2296
g2297
sg2298
g2299
sg2300
g2301
ssI460
(dp2306
g2286
g2303
sg2288
g2305
sg2290
g2291
sg2292
g2293
sg2294
g2295
sg2296
g2297
sg2298
g2299
sg2300
g2301
ssI461
(dp2307
g2286
g2287
sg2288
S'amc van ness'
p2308
sg2290
g2291
sg2292
g2293
sg2294
g2295
sg2296
g2297
sg2298
g2299
sg2300
g2301
ssI462
(dp2309
S'date'
p2310
S'tomorrow'
p2311
sS'city'
p2312
S'seattle'
p2313
sS'theater'
p2314
S'amc lowes oak tree 6'
p2315
sS'moviename'
p2316
S'risen'
p2317
sS'starttime'
p2318
S'4:25 pm'
p2319
ssI463
(dp2320
S'date'
p2321
S'march 11th'
p2322
sS'city'
p2323
S'seattle'
p2324
sS'moviename'
p2325
S'whiskey tango foxtrot'
p2326
sS'theater'
p2327
S'SIFF Cinema Uptown'
p2328
sS'starttime'
p2329
S'7'
ssI464
(dp2330
g2321
S'tomorrow'
p2331
sg2323
g2324
sg2325
g2326
sg2327
g2328
sg2329
S'7'
ssI465
(dp2332
g2321
g2322
sg2323
g2324
sg2325
g2326
sg2327
S'Ark Lodge Cinemas'
p2333
sg2329
S'7'
ssI466
(dp2334
g2321
g2331
sg2323
g2324
sg2325
g2326
sg2327
g2333
sg2329
S'7'
ssI467
(dp2335
g2321
g2322
sg2323
g2324
sg2325
g2326
sg2327
S'Regal Crossroads'
p2336
sg2329
S'7'
ssI468
(dp2337
S'city'
p2338
S'seattle'
p2339
sS'theater'
p2340
S'pacific place 11 theater'
p2341
sS'date'
p2342
S'tomorrow'
p2343
sS'other'
p2344
S'name'
p2345
sS'starttime'
p2346
S'9:30 pm'
p2347
sS'theater_chain'
p2348
S'amc'
p2349
sS'moviename'
p2350
S'room'
p2351
ssI469
(dp2352
S'city'
p2353
S'st'
p2354
sS'theater'
p2355
S'wehrenberg ronnies 20#imax 5320'
p2356
sS'zip'
p2357
S'63126'
p2358
sS'distanceconstraints'
p2359
S'near here'
p2360
sS'critic_rating'
p2361
S'nice'
p2362
sS'state'
p2363
S'mo'
p2364
sS'other'
p2365
S'subtitiles'
p2366
sS'starttime'
p2367
S'7:20'
p2368
sS'genre'
p2369
S'romantic'
p2370
sS'moviename'
p2371
S'how to be single'
p2372
ssI470
(dp2373
g2353
S'louis'
p2374
sg2355
g2356
sg2357
g2358
sg2359
g2360
sg2361
g2362
sg2363
g2364
sg2365
g2366
sg2367
g2368
sg2369
g2370
sg2371
g2372
ssI471
(dp2375
g2353
S'sappington'
p2376
sg2355
g2356
sg2357
g2358
sg2359
g2360
sg2361
g2362
sg2363
g2364
sg2365
g2366
sg2367
g2368
sg2369
g2370
sg2371
g2372
ssI472
(dp2377
g2353
g2354
sg2355
S'blvd'
p2378
sg2357
g2358
sg2359
g2360
sg2361
g2362
sg2363
g2364
sg2365
g2366
sg2367
g2368
sg2369
g2370
sg2371
g2372
ssI473
(dp2379
g2353
g2374
sg2355
g2378
sg2357
g2358
sg2359
g2360
sg2361
g2362
sg2363
g2364
sg2365
g2366
sg2367
g2368
sg2369
g2370
sg2371
g2372
ssI474
(dp2380
S'city'
p2381
S'seattle'
p2382
sS'theater'
p2383
S'amc pacific place 11'
p2384
sS'zip'
p2385
S'98101'
p2386
sS'state'
p2387
S'wa'
p2388
sS'date'
p2389
S'21-mar'
p2390
sS'moviename'
p2391
S'deadpool'
p2392
ssI475
(dp2393
g2381
S'bellevue'
p2394
sg2383
g2384
sg2385
g2386
sg2387
g2388
sg2389
g2390
sg2391
g2392
ssI476
(dp2395
g2381
g2382
sg2383
S'bellevue lincoln square cinemas'
p2396
sg2385
g2386
sg2387
g2388
sg2389
g2390
sg2391
g2392
ssI477
(dp2397
g2381
g2394
sg2383
g2396
sg2385
g2386
sg2387
g2388
sg2389
g2390
sg2391
g2392
ssI478
(dp2398
g2381
g2382
sg2383
S'big picture seattle'
p2399
sg2385
g2386
sg2387
g2388
sg2389
g2390
sg2391
g2392
ssI479
(dp2400
S'city'
p2401
S'norfolk'
p2402
sS'theater'
p2403
S'regal macarthur center stadium 18'
p2404
sS'state'
p2405
S'virginia'
p2406
sS'starttime'
p2407
S'7pm'
p2408
sS'date'
p2409
S'march 12th'
p2410
sS'moviename'
p2411
S'london has fallen'
p2412
ssI480
(dp2413
g2401
g2402
sg2403
S'RPX CINEMARK 18'
p2414
sg2405
g2406
sg2407
g2408
sg2409
g2410
sg2411
g2412
ssI481
(dp2415
g2401
g2402
sg2403
S'regal'
p2416
sg2405
g2406
sg2407
g2408
sg2409
g2410
sg2411
g2412
ssI482
(dp2417
g2401
g2402
sg2403
g2404
sg2405
g2406
sg2407
S'7:10'
p2418
sg2409
g2410
sg2411
g2412
ssI483
(dp2419
g2401
g2402
sg2403
g2414
sg2405
g2406
sg2407
g2418
sg2409
g2410
sg2411
g2412
ssI484
(dp2420
S'date'
p2421
S'tonight'
p2422
sS'city'
p2423
S'seattle'
p2424
sS'other'
p2425
S'many many theaters'
p2426
sS'theater'
p2427
S'regal meridian 16'
p2428
sS'moviename'
p2429
S'London Has Fallen#Whiskey Tango Foxtrot#Zootopia#Eddie The Eagle#Gods of Egypt#Triple 9#The Witch#Where to Invade Next#Zoolander 2#Hail Caesar#Kung Fu Panda 3#Star Wars#The Big Short#The Danish Girl#more'
p2430
ssI485
(dp2431
g2421
g2422
sg2423
g2424
sg2425
S'different selection of movies'
p2432
sg2427
g2428
sg2429
g2430
ssI486
(dp2433
g2421
g2422
sg2423
g2424
sg2425
S'search for a theater'
p2434
sg2427
g2428
sg2429
g2430
ssI487
(dp2435
g2421
g2422
sg2423
g2424
sg2425
S'latest showing'
p2436
sg2427
g2428
sg2429
g2430
ssI488
(dp2437
g2421
g2422
sg2423
g2424
sg2425
g2426
sg2427
g2428
sg2429
S'zoolander 2'
p2438
ssI489
(dp2439
S'city'
p2440
S'st louis'
p2441
sS'theater'
p2442
S'chase park plaza cinemas'
p2443
sS'numberofkids'
p2444
S'2'
sS'critic_rating'
p2445
S'good'
p2446
sS'genre'
p2447
S'kids'
p2448
sS'mpaa_rating'
p2449
S'pg'
p2450
sS'starttime'
p2451
S'afternoon'
p2452
sS'date'
p2453
S'thursday'
p2454
sS'moviename'
p2455
S'zootopia'
p2456
ssI490
(dp2457
g2440
g2441
sg2442
S'chase park plaza'
p2458
sg2444
S'2'
sg2445
g2446
sg2447
g2448
sg2449
g2450
sg2451
g2452
sg2453
g2454
sg2455
g2456
ssI491
(dp2459
g2440
g2441
sg2442
g2443
sg2444
S'2'
sg2445
S'4 5/5 star rating'
p2460
sg2447
g2448
sg2449
g2450
sg2451
g2452
sg2453
g2454
sg2455
g2456
ssI492
(dp2461
g2440
g2441
sg2442
g2458
sg2444
S'2'
sg2445
g2460
sg2447
g2448
sg2449
g2450
sg2451
g2452
sg2453
g2454
sg2455
g2456
ssI493
(dp2462
g2440
g2441
sg2442
g2443
sg2444
S'2'
sg2445
g2446
sg2447
g2448
sg2449
g2450
sg2451
S'11:00am'
p2463
sg2453
g2454
sg2455
g2456
ssI494
(dp2464
S'city'
p2465
S'seattle'
p2466
sS'other'
p2467
S'Italian restaurant'
p2468
ssI495
(dp2469
S'city'
p2470
S'seattle'
p2471
sS'theater'
p2472
S'amc lowes oak tree 6'
p2473
sS'other'
p2474
S'restaurant'
p2475
sS'starttime'
p2476
S'7:25 pm'
p2477
sS'date'
p2478
S'tomorrow'
p2479
sS'moviename'
p2480
S'spotlight'
p2481
ssI496
(dp2482
g2470
g2471
sg2472
g2473
sg2474
S'restaurant booking service'
p2483
sg2476
g2477
sg2478
g2479
sg2480
g2481
ssI497
(dp2484
S'city'
p2485
S'los angeles'
p2486
sS'theater'
p2487
S'regal live stadium 14'
p2488
sS'zip'
p2489
S'90015'
p2490
sS'state'
p2491
S'CA'
p2492
sS'starttime'
p2493
S'8pm'
p2494
sS'date'
p2495
S'tomorrow'
p2496
sS'moviename'
p2497
S'deadpool'
p2498
ssI498
(dp2499
g2485
S'Los Angeles'
p2500
sg2487
g2488
sg2489
g2490
sg2491
g2492
sg2493
g2494
sg2495
g2496
sg2497
g2498
ssI499
(dp2501
g2485
g2486
sg2487
g2488
sg2489
g2490
sg2491
g2492
sg2493
S'8 pm'
p2502
sg2495
g2496
sg2497
g2498
ssI500
(dp2503
g2485
g2500
sg2487
g2488
sg2489
g2490
sg2491
g2492
sg2493
g2502
sg2495
g2496
sg2497
g2498
ssI501
(dp2504
g2485
g2486
sg2487
g2488
sg2489
g2490
sg2491
g2492
sg2493
g2494
sg2495
S'today'
p2505
sg2497
g2498
ssI502
(dp2506
S'city'
p2507
S'portland'
p2508
sS'theater'
p2509
S'regal lloyd center 10 & IMAX'
p2510
sS'state'
p2511
S'oregon'
p2512
sS'starttime'
p2513
S'any time'
p2514
sS'date'
p2515
S'this weekend'
p2516
sS'moviename'
p2517
S'batman moviename'
p2518
ssI503
(dp2519
g2507
g2508
sg2509
S'Century Eastport 16'
p2520
sg2511
g2512
sg2513
g2514
sg2515
g2516
sg2517
g2518
ssI504
(dp2521
g2507
g2508
sg2509
S'Century Clackmas Town Center'
p2522
sg2511
g2512
sg2513
g2514
sg2515
g2516
sg2517
g2518
ssI505
(dp2523
g2507
g2508
sg2509
S'XD'
p2524
sg2511
g2512
sg2513
g2514
sg2515
g2516
sg2517
g2518
ssI506
(dp2525
g2507
g2508
sg2509
S'century Eastport 16'
p2526
sg2511
g2512
sg2513
g2514
sg2515
g2516
sg2517
g2518
ssI507
(dp2527
S'city'
p2528
S'seattle'
p2529
sS'theater'
p2530
S'theaters all across seattle'
p2531
sS'zip'
p2532
S'98101'
p2533
sS'distanceconstraints'
p2534
S'near me'
p2535
sS'video_format'
p2536
S'3d'
p2537
sS'state'
p2538
S'wa'
p2539
sS'other'
p2540
S'online ticketing'
p2541
sS'starttime'
p2542
S'matinee'
p2543
sS'date'
p2544
S'tomorrow'
p2545
sS'moviename'
p2546
S'zootopia'
p2547
ssI508
(dp2548
g2528
g2529
sg2530
S'Regal Meridian 16'
p2549
sg2532
g2533
sg2534
g2535
sg2536
g2537
sg2538
g2539
sg2540
g2541
sg2542
g2543
sg2544
g2545
sg2546
g2547
ssI509
(dp2550
g2528
g2529
sg2530
S'Pacific Science Center'
p2551
sg2532
g2533
sg2534
g2535
sg2536
g2537
sg2538
g2539
sg2540
g2541
sg2542
g2543
sg2544
g2545
sg2546
g2547
ssI510
(dp2552
g2528
g2529
sg2530
S'Admiral Theater'
p2553
sg2532
g2533
sg2534
g2535
sg2536
g2537
sg2538
g2539
sg2540
g2541
sg2542
g2543
sg2544
g2545
sg2546
g2547
ssI511
(dp2554
g2528
g2529
sg2530
S'pacific science center'
p2555
sg2532
g2533
sg2534
g2535
sg2536
g2537
sg2538
g2539
sg2540
g2541
sg2542
g2543
sg2544
g2545
sg2546
g2547
ssI512
(dp2556
S'city'
p2557
S'bellevue'
p2558
sS'theater'
p2559
S'bellevue lincoln square cinemas'
p2560
sS'zip'
p2561
S'98004'
p2562
sS'distanceconstraints'
p2563
S'near'
p2564
sS'actor'
p2565
S'ryan reynolds'
p2566
sS'date'
p2567
S'tonight'
p2568
sS'state'
p2569
S'washington'
p2570
sS'other'
p2571
S"I can't remember"
p2572
sS'starttime'
p2573
S'8:15pm'
p2574
sS'genre'
p2575
S'superhero movie'
p2576
sS'moviename'
p2577
S'deadpool'
p2578
ssI513
(dp2579
g2557
g2558
sg2559
S'amc'
p2580
sg2561
g2562
sg2563
g2564
sg2565
g2566
sg2567
g2568
sg2569
g2570
sg2571
g2572
sg2573
g2574
sg2575
g2576
sg2577
g2578
ssI514
(dp2581
g2557
g2558
sg2559
g2560
sg2561
S'98119'
p2582
sg2563
g2564
sg2565
g2566
sg2567
g2568
sg2569
g2570
sg2571
g2572
sg2573
g2574
sg2575
g2576
sg2577
g2578
ssI515
(dp2583
g2557
g2558
sg2559
g2580
sg2561
g2582
sg2563
g2564
sg2565
g2566
sg2567
g2568
sg2569
g2570
sg2571
g2572
sg2573
g2574
sg2575
g2576
sg2577
g2578
ssI516
(dp2584
g2557
g2558
sg2559
g2560
sg2561
g2562
sg2563
g2564
sg2565
g2566
sg2567
g2568
sg2569
S'wa'
p2585
sg2571
g2572
sg2573
g2574
sg2575
g2576
sg2577
g2578
ssI517
(dp2586
S'distanceconstraints'
p2587
S'near me'
p2588
sS'city'
p2589
S'campcreek area'
p2590
sS'date'
p2591
S'coming saturday'
p2592
ssI518
(dp2593
S'city'
p2594
S'bellevue'
p2595
sS'theater'
p2596
S'regal thornton place stadium'
p2597
sS'video_format'
p2598
S'3d'
p2599
sS'state'
p2600
S'washington'
p2601
sS'starttime'
p2602
S'between 5pm and 6pm'
p2603
sS'date'
p2604
S'saturday'
p2605
sS'moviename'
p2606
S'kung fu panda 3'
p2607
ssI519
(dp2608
g2594
g2595
sg2596
g2597
sg2598
g2599
sg2600
g2601
sg2602
S'between 5 and 6pm'
p2609
sg2604
g2605
sg2606
g2607
ssI520
(dp2610
g2594
g2595
sg2596
g2597
sg2598
g2599
sg2600
g2601
sg2602
S'6:10pm'
p2611
sg2604
g2605
sg2606
g2607
ssI521
(dp2612
S'date'
p2613
S'tomorrow'
p2614
sS'city'
p2615
S'detroit'
p2616
sS'moviename'
p2617
S'deadpool'
p2618
sS'theater'
p2619
S'amc star fairlane 21'
p2620
sS'starttime'
p2621
S'7pm'
p2622
ssI522
(dp2623
g2613
g2614
sg2615
g2616
sg2617
g2618
sg2619
g2620
sg2621
S'7:05'
p2624
ssI523
(dp2625
S'date'
p2626
S'tomorrow'
p2627
sS'moviename'
p2628
S'creed'
p2629
sS'theater'
p2630
S'regency academy 6'
p2631
sS'starttime'
p2632
S'around noon'
p2633
ssI524
(dp2634
g2626
g2627
sg2628
g2629
sg2630
g2631
sg2632
S'1:00pm'
p2635
ssI525
(dp2636
S'city'
p2637
S'los angeles'
p2638
sS'theater'
p2639
S'Regal LA Live Stadium 14'
p2640
sS'video_format'
p2641
S'3d'
p2642
sS'starttime'
p2643
S'8pm'
p2644
sS'date'
p2645
S'tomorrow'
p2646
sS'moviename'
p2647
S'zootopia'
p2648
ssI526
(dp2649
g2637
g2638
sg2639
g2640
sg2641
S'standard'
p2650
sg2643
g2644
sg2645
g2646
sg2647
g2648
ssI527
(dp2651
g2637
g2638
sg2639
g2640
sg2641
g2642
sg2643
S'7:10pm'
p2652
sg2645
g2646
sg2647
g2648
ssI528
(dp2653
g2637
g2638
sg2639
g2640
sg2641
g2650
sg2643
g2652
sg2645
g2646
sg2647
g2648
ssI529
(dp2654
S'theater_chain'
p2655
S'amc lowes oak tree 6'
p2656
sS'city'
p2657
S'seattle'
p2658
sS'date'
p2659
S'tomorrow'
p2660
sS'moviename'
p2661
S'risen'
p2662
sS'starttime'
p2663
S'4:25 pm'
p2664
ssI530
(dp2665
S'city'
p2666
S'arlington'
p2667
sS'theater'
p2668
S'cinemark tinseltown 9'
p2669
sS'actor'
p2670
S'ryan reynolds'
p2671
sS'state'
p2672
S'texas'
p2673
sS'starttime'
p2674
S'10:05'
p2675
sS'date'
p2676
S'tonight'
p2677
sS'moviename'
p2678
S'deadpool'
p2679
ssI531
(dp2680
S'date'
p2681
S'tomorrow'
p2682
sS'city'
p2683
S'seattle'
p2684
sS'theater'
p2685
S'amc pacific place 11 theater'
p2686
sS'moviename'
p2687
S'room'
p2688
sS'starttime'
p2689
S'9:30 pm'
p2690
ssI532
(dp2691
S'city'
p2692
S'seattle'
p2693
sS'other'
p2694
S'name'
p2695
sS'moviename'
p2696
S'whiskey tango foxtrot'
p2697
sS'theater'
p2698
S'regal meridian 16'
p2699
sS'starttime'
p2700
S'soonest upcoming showing'
p2701
ssI533
(dp2702
g2692
g2693
sg2694
g2695
sg2696
g2697
sg2698
g2699
sg2700
S'9:00pm'
p2703
ssI534
(dp2704
S'city'
p2705
S'seattle'
p2706
sS'theater'
p2707
S'regal meridian 16'
p2708
sS'zip'
p2709
S'98101'
p2710
sS'theater_chain'
p2711
S'amc loews oak tree 6'
p2712
sS'date'
p2713
S'tomorrow'
p2714
sS'state'
p2715
S'wa'
p2716
sS'other'
p2717
S'large number of movies'
p2718
sS'starttime'
p2719
S'7pm'
p2720
sS'genre'
p2721
S'comedy'
p2722
sS'moviename'
p2723
S'risen race spotlight'
p2724
ssI535
(dp2725
g2705
g2706
sg2707
S'AMC LOEWS OAK TREE 6 10006 aurora'
p2726
sg2709
g2710
sg2711
g2712
sg2713
g2714
sg2715
g2716
sg2717
g2718
sg2719
g2720
sg2721
g2722
sg2723
g2724
ssI536
(dp2727
g2705
g2706
sg2707
g2708
sg2709
S'98133'
p2728
sg2711
g2712
sg2713
g2714
sg2715
g2716
sg2717
g2718
sg2719
g2720
sg2721
g2722
sg2723
g2724
ssI537
(dp2729
g2705
g2706
sg2707
g2726
sg2709
g2728
sg2711
g2712
sg2713
g2714
sg2715
g2716
sg2717
g2718
sg2719
g2720
sg2721
g2722
sg2723
g2724
ssI538
(dp2730
g2705
g2706
sg2707
g2708
sg2709
g2710
sg2711
g2712
sg2713
g2714
sg2715
g2716
sg2717
g2718
sg2719
g2720
sg2721
S'drama'
p2731
sg2723
g2724
ssI539
(dp2732
S'city'
p2733
S'birmingham'
p2734
sS'theater'
p2735
S'carmike summit 16'
p2736
sS'state'
p2737
S'al'
p2738
sS'starttime'
p2739
S'around 2pm'
p2740
sS'date'
p2741
S'today'
p2742
sS'moviename'
p2743
S'london had fallen'
p2744
ssI540
(dp2745
g2733
g2734
sg2735
g2736
sg2737
g2738
sg2739
S'1:35 pm'
p2746
sg2741
g2742
sg2743
g2744
ssI541
(dp2747
S'city'
p2748
S'seattle'
p2749
sS'theater'
p2750
S'regal meridian 16'
p2751
sS'zip'
p2752
S'98101'
p2753
sS'critic_rating'
p2754
S'top'
p2755
sS'state'
p2756
S'wa'
p2757
sS'other'
p2758
S'rotten tomatoes'
p2759
sS'starttime'
p2760
S'night around 8pm'
p2761
sS'date'
p2762
S'tomorrow'
p2763
sS'moviename'
p2764
S'zootopia'
p2765
ssI542
(dp2766
g2748
S'bellevue'
p2767
sg2750
g2751
sg2752
g2753
sg2754
g2755
sg2756
g2757
sg2758
g2759
sg2760
g2761
sg2762
g2763
sg2764
g2765
ssI543
(dp2768
g2748
g2749
sg2750
S'bellevue lincoln square cinemas'
p2769
sg2752
g2753
sg2754
g2755
sg2756
g2757
sg2758
g2759
sg2760
g2761
sg2762
g2763
sg2764
g2765
ssI544
(dp2770
g2748
g2767
sg2750
g2769
sg2752
g2753
sg2754
g2755
sg2756
g2757
sg2758
g2759
sg2760
g2761
sg2762
g2763
sg2764
g2765
ssI545
(dp2771
g2748
g2749
sg2750
g2751
sg2752
S'98004'
p2772
sg2754
g2755
sg2756
g2757
sg2758
g2759
sg2760
g2761
sg2762
g2763
sg2764
g2765
ssI546
(dp2773
S'date'
p2774
S'tomorrow'
p2775
sS'city'
p2776
S'seattle'
p2777
sS'theater'
p2778
S'amc lowes oak tree 6'
p2779
sS'moviename'
p2780
S'room'
p2781
sS'starttime'
p2782
S'4:50 pm'
p2783
ssI547
(dp2784
S'city'
p2785
S'seattle'
p2786
sS'theater'
p2787
S'regal meridian 16'
p2788
sS'distanceconstraints'
p2789
S'near my location'
p2790
sS'critic_rating'
p2791
S'number 1'
p2792
sS'date'
p2793
S'tonight'
p2794
sS'state'
p2795
S'washington'
p2796
sS'genre'
p2797
S'comedy'
p2798
sS'moviename'
p2799
S'zootopia'
p2800
ssI548
(dp2801
g2785
g2786
sg2787
g2788
sg2789
S'safeco field'
p2802
sg2791
g2792
sg2793
g2794
sg2795
g2796
sg2797
g2798
sg2799
g2800
ssI549
(dp2803
g2785
g2786
sg2787
g2788
sg2789
g2790
sg2791
g2792
sg2793
g2794
sg2795
g2796
sg2797
S'comedies'
p2804
sg2799
g2800
ssI550
(dp2805
g2785
g2786
sg2787
g2788
sg2789
g2802
sg2791
g2792
sg2793
g2794
sg2795
g2796
sg2797
g2804
sg2799
g2800
ssI551
(dp2806
g2785
g2786
sg2787
g2788
sg2789
g2790
sg2791
g2792
sg2793
g2794
sg2795
g2796
sg2797
g2798
sg2799
S'Whiskey Tango Foxtrot'
p2807
ssI552
(dp2808
S'city'
p2809
S'philadelphia'
p2810
sS'theater'
p2811
S'The Pearl Theatre'
p2812
sS'zip'
p2813
S'19101'
p2814
sS'distanceconstraints'
p2815
S'near'
p2816
sS'state'
p2817
S'pa'
p2818
sS'starttime'
p2819
S'1:30pm'
p2820
sS'date'
p2821
S'tomorrow'
p2822
sS'moviename'
p2823
S'deadpool'
p2824
ssI553
(dp2825
g2809
g2810
sg2811
g2812
sg2813
S'19121'
p2826
sg2815
g2816
sg2817
g2818
sg2819
g2820
sg2821
g2822
sg2823
g2824
ssI554
(dp2827
g2809
g2810
sg2811
g2812
sg2813
g2814
sg2815
g2816
sg2817
g2818
sg2819
S'4:30'
p2828
sg2821
g2822
sg2823
g2824
ssI555
(dp2829
g2809
g2810
sg2811
g2812
sg2813
g2826
sg2815
g2816
sg2817
g2818
sg2819
g2828
sg2821
g2822
sg2823
g2824
ssI556
(dp2830
g2809
g2810
sg2811
g2812
sg2813
g2814
sg2815
g2816
sg2817
g2818
sg2819
S'7:30pm'
p2831
sg2821
g2822
sg2823
g2824
ssI557
(dp2832
S'city'
p2833
S'princeton'
p2834
sS'theater'
p2835
S'amc marketfair 10'
p2836
sS'date'
p2837
S'tomorrow'
p2838
sS'state'
p2839
S'nj'
p2840
sS'starttime'
p2841
S'7pm'
p2842
sS'genre'
p2843
S'dramas'
p2844
sS'moviename'
p2845
S'eddie the eagle'
p2846
ssI558
(dp2847
g2833
g2834
sg2835
g2836
sg2837
g2838
sg2839
g2840
sg2841
S'6:45pm'
p2848
sg2843
g2844
sg2845
g2846
ssI559
(dp2849
g2833
g2834
sg2835
g2836
sg2837
g2838
sg2839
g2840
sg2841
g2842
sg2843
g2844
sg2845
S'race and risen'
p2850
ssI560
(dp2851
g2833
g2834
sg2835
g2836
sg2837
g2838
sg2839
g2840
sg2841
g2848
sg2843
g2844
sg2845
g2850
ssI561
(dp2852
S'city'
p2853
S'birmingham'
p2854
sS'theater'
p2855
S'carmike summit 16'
p2856
sS'state'
p2857
S'al'
p2858
sS'starttime'
p2859
S'around 5pm'
p2860
sS'date'
p2861
S'tomorrow'
p2862
sS'moviename'
p2863
S'deadpool'
p2864
ssI562
(dp2865
g2853
g2854
sg2855
g2856
sg2857
g2858
sg2859
S'4:20pm'
p2866
sg2861
g2862
sg2863
g2864
ssI563
(dp2867
g2853
g2854
sg2855
g2856
sg2857
g2858
sg2859
S'7:20pm'
p2868
sg2861
g2862
sg2863
g2864
ssI564
(dp2869
S'city'
p2870
S'carbondale'
p2871
sS'theater'
p2872
S'amc showplace carbondale 8'
p2873
sS'zip'
p2874
S'62901'
p2875
sS'critic_rating'
p2876
S'good'
p2877
sS'date'
p2878
S'tomorrow'
p2879
sS'state'
p2880
S'illinois'
p2881
sS'starttime'
p2882
S'afternoon'
p2883
sS'genre'
p2884
S'action'
p2885
sS'moviename'
p2886
S'london has fallen'
p2887
ssI565
(dp2888
g2870
g2871
sg2872
S'amc university place'
p2889
sg2874
g2875
sg2876
g2877
sg2878
g2879
sg2880
g2881
sg2882
g2883
sg2884
g2885
sg2886
g2887
ssI566
(dp2890
g2870
g2871
sg2872
g2873
sg2874
g2875
sg2876
g2877
sg2878
g2879
sg2880
S'il'
p2891
sg2882
g2883
sg2884
g2885
sg2886
g2887
ssI567
(dp2892
g2870
g2871
sg2872
g2889
sg2874
g2875
sg2876
g2877
sg2878
g2879
sg2880
g2891
sg2882
g2883
sg2884
g2885
sg2886
g2887
ssI568
(dp2893
g2870
g2871
sg2872
g2873
sg2874
g2875
sg2876
g2877
sg2878
g2879
sg2880
g2881
sg2882
S'2:30pm'
p2894
sg2884
g2885
sg2886
g2887
ssI569
(dp2895
S'city'
p2896
S'birmingham'
p2897
sS'theater'
p2898
S'carmike summit 16'
p2899
sS'zip'
p2900
S'35243'
p2901
sS'critic_rating'
p2902
S'popular'
p2903
sS'date'
p2904
S'last weekend'
p2905
sS'state'
p2906
S'al'
p2907
sS'other'
p2908
S'search theaters'
p2909
sS'mpaa_rating'
p2910
S'pg'
p2911
sS'starttime'
p2912
S'10:00am'
p2913
sS'genre'
p2914
S'action'
p2915
sS'moviename'
p2916
S'zootopia'
p2917
ssI570
(dp2918
g2896
S'hoover'
p2919
sg2898
g2899
sg2900
g2901
sg2902
g2903
sg2904
g2905
sg2906
g2907
sg2908
g2909
sg2910
g2911
sg2912
g2913
sg2914
g2915
sg2916
g2917
ssI571
(dp2920
g2896
g2897
sg2898
S'carmike patton creek'
p2921
sg2900
g2901
sg2902
g2903
sg2904
g2905
sg2906
g2907
sg2908
g2909
sg2910
g2911
sg2912
g2913
sg2914
g2915
sg2916
g2917
ssI572
(dp2922
g2896
g2919
sg2898
g2921
sg2900
g2901
sg2902
g2903
sg2904
g2905
sg2906
g2907
sg2908
g2909
sg2910
g2911
sg2912
g2913
sg2914
g2915
sg2916
g2917
ssI573
(dp2923
g2896
g2897
sg2898
g2899
sg2900
S'35244'
p2924
sg2902
g2903
sg2904
g2905
sg2906
g2907
sg2908
g2909
sg2910
g2911
sg2912
g2913
sg2914
g2915
sg2916
g2917
ssI574
(dp2925
S'city'
p2926
S'birmingham'
p2927
sS'theater'
p2928
S'carmike summit 16'
p2929
sS'critic_rating'
p2930
S'good'
p2931
sS'genre'
p2932
S'action'
p2933
sS'state'
p2934
S'alabama'
p2935
sS'starttime'
p2936
S'2:00 pm'
p2937
sS'date'
p2938
S'this saturday'
p2939
sS'moviename'
p2940
S'london has fallen'
p2941
ssI575
(dp2942
g2926
g2927
sg2928
g2929
sg2930
g2931
sg2932
g2933
sg2934
g2935
sg2936
S'1:35pm'
p2943
sg2938
g2939
sg2940
g2941
ssI576
(dp2944
g2926
g2927
sg2928
g2929
sg2930
g2931
sg2932
g2933
sg2934
g2935
sg2936
g2937
sg2938
g2939
sg2940
S'gods of egypt'
p2945
ssI577
(dp2946
g2926
g2927
sg2928
g2929
sg2930
g2931
sg2932
g2933
sg2934
g2935
sg2936
g2943
sg2938
g2939
sg2940
g2945
ssI578
(dp2947
g2926
g2927
sg2928
g2929
sg2930
g2931
sg2932
g2933
sg2934
g2935
sg2936
g2937
sg2938
g2939
sg2940
S'deadpool'
p2948
ssI579
(dp2949
S'date'
p2950
S'tomorrow'
p2951
sS'city'
p2952
S'seattle'
p2953
sS'theater'
p2954
S'regal meridian 16'
p2955
sS'moviename'
p2956
S'The big short'
p2957
sS'starttime'
p2958
S'8:45 pm'
p2959
ssI580
(dp2960
S'city'
p2961
S'seattle'
p2962
sS'theater'
p2963
S'regal meridian 16'
p2964
sS'zip'
p2965
S'98126'
p2966
sS'distanceconstraints'
p2967
S'closest'
p2968
sS'state'
p2969
S'wa'
p2970
sS'other'
p2971
S'cheapest'
p2972
sS'starttime'
p2973
S'2:00pm'
p2974
sS'date'
p2975
S'today'
p2976
sS'moviename'
p2977
S'zoolander 2'
p2978
ssI581
(dp2979
g2961
g2962
sg2963
g2964
sg2965
S'98101'
p2980
sg2967
g2968
sg2969
g2970
sg2971
g2972
sg2973
g2974
sg2975
g2976
sg2977
g2978
ssI582
(dp2981
g2961
g2962
sg2963
g2964
sg2965
g2966
sg2967
g2968
sg2969
g2970
sg2971
S'do not know'
p2982
sg2973
g2974
sg2975
g2976
sg2977
g2978
ssI583
(dp2983
g2961
g2962
sg2963
g2964
sg2965
g2980
sg2967
g2968
sg2969
g2970
sg2971
g2982
sg2973
g2974
sg2975
g2976
sg2977
g2978
ssI584
(dp2984
g2961
g2962
sg2963
g2964
sg2965
g2966
sg2967
g2968
sg2969
g2970
sg2971
g2972
sg2973
S'4:30pm'
p2985
sg2975
g2976
sg2977
g2978
ssI585
(dp2986
S'theater'
p2987
S'amc pacific place'
p2988
sS'zip'
p2989
S'98119'
p2990
sS'theater_chain'
p2991
S'amc pacific place 11'
p2992
sS'starttime'
p2993
S'around 8pm'
p2994
sS'date'
p2995
S'friday'
p2996
sS'moviename'
p2997
S'deadpool'
p2998
ssI586
(dp2999
g2987
g2988
sg2989
g2990
sg2991
g2992
sg2993
S'8:10PM'
p3000
sg2995
g2996
sg2997
g2998
ssI587
(dp3001
S'city'
p3002
S'buford'
p3003
sS'theater'
p3004
S'mall of georgia movie theater'
p3005
sS'actress'
p3006
S'tina fey'
p3007
sS'genre'
p3008
S'comedy'
p3009
sS'state'
p3010
S'georgia'
p3011
sS'other'
p3012
S'date night'
p3013
sS'mpaa_rating'
p3014
S'r'
sS'starttime'
p3015
S'10:40pm'
p3016
sS'date'
p3017
S'friday'
p3018
sS'moviename'
p3019
S'zootopia'
p3020
ssI588
(dp3021
g3002
g3003
sg3004
g3005
sg3006
g3007
sg3008
S'animated'
p3022
sg3010
g3011
sg3012
g3013
sg3014
S'r'
sg3015
g3016
sg3017
g3018
sg3019
g3020
ssI589
(dp3023
g3002
g3003
sg3004
g3005
sg3006
g3007
sg3008
g3009
sg3010
g3011
sg3012
S'disney'
p3024
sg3014
S'r'
sg3015
g3016
sg3017
g3018
sg3019
g3020
ssI590
(dp3025
g3002
g3003
sg3004
g3005
sg3006
g3007
sg3008
g3022
sg3010
g3011
sg3012
g3024
sg3014
S'r'
sg3015
g3016
sg3017
g3018
sg3019
g3020
ssI591
(dp3026
g3002
g3003
sg3004
g3005
sg3006
g3007
sg3008
g3009
sg3010
g3011
sg3012
g3013
sg3014
S'r'
sg3015
g3016
sg3017
g3018
sg3019
S'Whiskey Tango Foxtrot'
p3027
ssI592
(dp3028
S'city'
p3029
S'seattle'
p3030
sS'theater'
p3031
S'regal meridian 16'
p3032
sS'distanceconstraints'
p3033
S'north side'
p3034
sS'starttime'
p3035
S'evening around 6pm'
p3036
sS'date'
p3037
S'tomorrow'
p3038
sS'moviename'
p3039
S'zootopia'
p3040
ssI593
(dp3041
g3029
g3030
sg3031
S'regal thornton place'
p3042
sg3033
g3034
sg3035
g3036
sg3037
g3038
sg3039
g3040
ssI594
(dp3043
g3029
g3030
sg3031
g3032
sg3033
g3034
sg3035
S'5:20'
p3044
sg3037
g3038
sg3039
g3040
ssI595
(dp3045
g3029
g3030
sg3031
g3042
sg3033
g3034
sg3035
g3044
sg3037
g3038
sg3039
g3040
ssI596
(dp3046
g3029
g3030
sg3031
g3032
sg3033
g3034
sg3035
S'6:30 pm'
p3047
sg3037
g3038
sg3039
g3040
ssI597
(dp3048
S'city'
p3049
S'Fresno'
p3050
sS'theater'
p3051
S'current'
p3052
sS'date'
p3053
S'march 12'
p3054
sS'state'
p3055
S'california'
p3056
sS'starttime'
p3057
S'a lot'
p3058
sS'genre'
p3059
S'action'
p3060
sS'moviename'
p3061
S'deadpool'
p3062
ssI598
(dp3063
g3049
g3050
sg3051
S'Visalia'
p3064
sg3053
g3054
sg3055
g3056
sg3057
g3058
sg3059
g3060
sg3061
g3062
ssI599
(dp3065
g3049
g3050
sg3051
S'regal visalia stadium 10'
p3066
sg3053
g3054
sg3055
g3056
sg3057
g3058
sg3059
g3060
sg3061
g3062
ssI600
(dp3067
g3049
g3050
sg3051
g3052
sg3053
S'weekend'
p3068
sg3055
g3056
sg3057
g3058
sg3059
g3060
sg3061
g3062
ssI601
(dp3069
g3049
g3050
sg3051
g3064
sg3053
g3068
sg3055
g3056
sg3057
g3058
sg3059
g3060
sg3061
g3062
ssI602
(dp3070
S'city'
p3071
S'seattle'
p3072
sS'other'
p3073
S'name'
p3074
sS'moviename'
p3075
S'whiskey tango foxtrot'
p3076
sS'theater'
p3077
S'regal meridian 16'
p3078
sS'starttime'
p3079
S'sonnest'
p3080
ssI603
(dp3081
g3071
g3072
sg3073
g3074
sg3075
g3076
sg3077
g3078
sg3079
S'9:00pm'
p3082
ssI604
(dp3083
S'city'
p3084
S'las vegas'
p3085
sS'theater'
p3086
S'regal colonnade 14'
p3087
sS'video_format'
p3088
S'3d#standard'
p3089
sS'starttime'
p3090
S'matinee'
p3091
sS'date'
p3092
S'tomorrow'
p3093
sS'moviename'
p3094
S'zootopia'
p3095
ssI605
(dp3096
g3084
g3085
sg3086
g3087
sg3088
S'3d'
p3097
sg3090
g3091
sg3092
g3093
sg3094
g3095
ssI606
(dp3098
g3084
g3085
sg3086
g3087
sg3088
g3089
sg3090
S'1:30pm'
p3099
sg3092
g3093
sg3094
g3095
ssI607
(dp3100
g3084
g3085
sg3086
g3087
sg3088
g3097
sg3090
g3099
sg3092
g3093
sg3094
g3095
ssI608
(dp3101
g3084
g3085
sg3086
g3087
sg3088
g3089
sg3090
S'1:30'
p3102
sg3092
g3093
sg3094
g3095
ssI609
(dp3103
S'city'
p3104
S'seattle'
p3105
sS'theater'
p3106
S'regal meridian 16'
p3107
sS'state'
p3108
S'virginia'
p3109
sS'other'
p3110
S'Fandango'
p3111
sS'starttime'
p3112
S'9:30 pm'
p3113
sS'date'
p3114
S'march 15th'
p3115
sS'moviename'
p3116
S'zoolander 2'
p3117
ssI610
(dp3118
g3104
S'waynesboro'
p3119
sg3106
g3107
sg3108
g3109
sg3110
g3111
sg3112
g3113
sg3114
g3115
sg3116
g3117
ssI611
(dp3120
g3104
S'norfolk'
p3121
sg3106
g3107
sg3108
g3109
sg3110
g3111
sg3112
g3113
sg3114
g3115
sg3116
g3117
ssI612
(dp3122
g3104
g3105
sg3106
S'zeus'
p3123
sg3108
g3109
sg3110
g3111
sg3112
g3113
sg3114
g3115
sg3116
g3117
ssI613
(dp3124
g3104
g3119
sg3106
g3123
sg3108
g3109
sg3110
g3111
sg3112
g3113
sg3114
g3115
sg3116
g3117
ssI614
(dp3125
S'city'
p3126
S'la'
p3127
sS'theater'
p3128
S'creed'
p3129
sS'distanceconstraints'
p3130
S'downtown'
p3131
sS'video_format'
p3132
S'3d'
p3133
sS'starttime'
p3134
S'7pm'
p3135
sS'date'
p3136
S'tomorrow'
p3137
sS'moviename'
p3138
S'creed'
p3139
ssI615
(dp3140
g3126
g3127
sg3128
S'pacific sherman oaks 5'
p3141
sg3130
g3131
sg3132
g3133
sg3134
g3135
sg3136
g3137
sg3138
g3139
ssI616
(dp3142
g3126
g3127
sg3128
S'amc la mirada 7'
p3143
sg3130
g3131
sg3132
g3133
sg3134
g3135
sg3136
g3137
sg3138
g3139
ssI617
(dp3144
g3126
g3127
sg3128
S'AMC La Mirada'
p3145
sg3130
g3131
sg3132
g3133
sg3134
g3135
sg3136
g3137
sg3138
g3139
ssI618
(dp3146
g3126
g3127
sg3128
S'amc'
p3147
sg3130
g3131
sg3132
g3133
sg3134
g3135
sg3136
g3137
sg3138
g3139
ssI619
(dp3148
S'city'
p3149
S'birmingham'
p3150
sS'theater'
p3151
S'carmike summit 16'
p3152
sS'zip'
p3153
S'35246'
p3154
sS'state'
p3155
S'al'
p3156
sS'starttime'
p3157
S'2pm'
p3158
sS'date'
p3159
S'today'
p3160
sS'moviename'
p3161
S'zootopia'
p3162
ssI620
(dp3163
g3149
g3150
sg3151
S'15'
p3164
sg3153
g3154
sg3155
g3156
sg3157
g3158
sg3159
g3160
sg3161
g3162
ssI621
(dp3165
g3149
g3150
sg3151
g3152
sg3153
S'35242'
p3166
sg3155
g3156
sg3157
g3158
sg3159
g3160
sg3161
g3162
ssI622
(dp3167
g3149
g3150
sg3151
g3164
sg3153
g3166
sg3155
g3156
sg3157
g3158
sg3159
g3160
sg3161
g3162
ssI623
(dp3168
g3149
g3150
sg3151
g3152
sg3153
g3154
sg3155
g3156
sg3157
S'1:30'
p3169
sg3159
g3160
sg3161
g3162
ssI624
(dp3170
S'city'
p3171
S'seattle'
p3172
sS'theater'
p3173
S'regal meridian 16'
p3174
sS'other'
p3175
S'name'
p3176
sS'starttime'
p3177
S'9:00 pm'
p3178
sS'date'
p3179
S'tomorrow'
p3180
sS'moviename'
p3181
S'spotlight'
p3182
ssI625
(dp3183
S'theater'
p3184
S'buford georgia'
p3185
sS'actor'
p3186
S'tina fey'
p3187
sS'genre'
p3188
S'comedy'
p3189
sS'mpaa_rating'
p3190
S'r'
sS'starttime'
p3191
S'night'
p3192
sS'date'
p3193
S'this friday'
p3194
sS'moviename'
p3195
S'zootopia'
p3196
ssI626
(dp3197
g3184
S'Whiskey Tango Foxtrot'
p3198
sg3186
g3187
sg3188
g3189
sg3190
S'r'
sg3191
g3192
sg3193
g3194
sg3195
g3196
ssI627
(dp3199
g3184
S'mall of georgia'
p3200
sg3186
g3187
sg3188
g3189
sg3190
S'r'
sg3191
g3192
sg3193
g3194
sg3195
g3196
ssI628
(dp3201
g3184
g3185
sg3186
g3187
sg3188
S'animated'
p3202
sg3190
S'r'
sg3191
g3192
sg3193
g3194
sg3195
g3196
ssI629
(dp3203
g3184
g3198
sg3186
g3187
sg3188
g3202
sg3190
S'r'
sg3191
g3192
sg3193
g3194
sg3195
g3196
ssI630
(dp3204
S'date'
p3205
S'june 17 2016'
p3206
sS'theater'
p3207
S''
sS'moviename'
p3208
S'avengers'
p3209
ssI631
(dp3210
g3205
g3206
sg3207
S'finding dory'
p3211
sg3208
g3209
ssI632
(dp3212
g3205
g3206
sg3207
S''
sg3208
S'finding dory'
p3213
ssI633
(dp3214
g3205
g3206
sg3207
g3211
sg3208
g3213
ssI634
(dp3215
S'date'
p3216
S'tomorrow'
p3217
sS'city'
p3218
S'seattle'
p3219
sS'theater'
p3220
S'regal meridian 16'
p3221
sS'moviename'
p3222
S'spotlight'
p3223
sS'starttime'
p3224
S'9:00 pm'
p3225
ssI635
(dp3226
S'date'
p3227
S'tomorrow'
p3228
sS'city'
p3229
S'seattle'
p3230
sS'theater'
p3231
S'regal meridian 16'
p3232
sS'moviename'
p3233
S'hail caesar'
p3234
sS'starttime'
p3235
S'8:45 pm'
p3236
ssI636
(dp3237
g3227
g3228
sg3229
g3230
sg3231
g3232
sg3233
g3234
sg3235
S'8:45'
p3238
ssI637
(dp3239
S'city'
p3240
S'birmingham'
p3241
sS'theater'
p3242
S'carmike 16'
p3243
sS'state'
p3244
S'al'
p3245
sS'starttime'
p3246
S'2pm'
p3247
sS'date'
p3248
S'today'
p3249
sS'moviename'
p3250
S'zootopia'
p3251
ssI638
(dp3252
g3240
g3241
sg3242
S'carmike the summit 16'
p3253
sg3244
g3245
sg3246
g3247
sg3248
g3249
sg3250
g3251
ssI639
(dp3254
g3240
g3241
sg3242
g3243
sg3244
g3245
sg3246
S'1:30pm'
p3255
sg3248
g3249
sg3250
g3251
ssI640
(dp3256
g3240
g3241
sg3242
g3253
sg3244
g3245
sg3246
g3255
sg3248
g3249
sg3250
g3251
ssI641
(dp3257
S'city'
p3258
S'seattle'
p3259
sS'theater'
p3260
S'amc pacific place 11'
p3261
sS'zip'
p3262
S'98101'
p3263
sS'state'
p3264
S'wa'
p3265
sS'starttime'
p3266
S'6:10pm'
p3267
sS'date'
p3268
S'tonight'
p3269
sS'moviename'
p3270
S'deadpool'
p3271
ssI642
(dp3272
g3258
S'bellevue'
p3273
sg3260
g3261
sg3262
g3263
sg3264
g3265
sg3266
g3267
sg3268
g3269
sg3270
g3271
ssI643
(dp3274
g3258
g3259
sg3260
S'bellevue lincoln square cinemas'
p3275
sg3262
g3263
sg3264
g3265
sg3266
g3267
sg3268
g3269
sg3270
g3271
ssI644
(dp3276
g3258
g3273
sg3260
g3275
sg3262
g3263
sg3264
g3265
sg3266
g3267
sg3268
g3269
sg3270
g3271
ssI645
(dp3277
g3258
g3259
sg3260
g3261
sg3262
S'98004'
p3278
sg3264
g3265
sg3266
g3267
sg3268
g3269
sg3270
g3271
ssI646
(dp3279
S'city'
p3280
S'Clear Lake'
p3281
sS'theater'
p3282
S'lake theater'
p3283
sS'state'
p3284
S'IA'
p3285
sS'starttime'
p3286
S'7 pm'
p3287
sS'date'
p3288
S'tomorrow'
p3289
sS'moviename'
p3290
S'deadpool'
p3291
ssI647
(dp3292
g3280
g3281
sg3282
S'Mason city IA cinema west'
p3293
sg3284
g3285
sg3286
g3287
sg3288
g3289
sg3290
g3291
ssI648
(dp3294
g3280
g3281
sg3282
S'cinema west'
p3295
sg3284
g3285
sg3286
g3287
sg3288
g3289
sg3290
g3291
ssI649
(dp3296
g3280
g3281
sg3282
g3283
sg3284
g3285
sg3286
S'7pm'
p3297
sg3288
g3289
sg3290
g3291
ssI650
(dp3298
g3280
g3281
sg3282
g3293
sg3284
g3285
sg3286
g3297
sg3288
g3289
sg3290
g3291
ssI651
(dp3299
S'city'
p3300
S'du quoin'
p3301
sS'distanceconstraints'
p3302
S'vicinity'
p3303
sS'moviename'
p3304
S'star wars'
p3305
sS'theater_chain'
p3306
S'amc showplace carbondale 8'
p3307
sS'state'
p3308
S'illinois'
p3309
sS'starttime'
p3310
S'anytime after 6pm'
p3311
sS'date'
p3312
S'Friday the 11th'
p3313
sS'genre'
p3314
S'thriller science fiction'
p3315
ssI652
(dp3316
g3300
S'carbondale'
p3317
sg3302
g3303
sg3304
g3305
sg3306
g3307
sg3308
g3309
sg3310
g3311
sg3312
g3313
sg3314
g3315
ssI653
(dp3318
g3300
S'Du Quoin'
p3319
sg3302
g3303
sg3304
g3305
sg3306
g3307
sg3308
g3309
sg3310
g3311
sg3312
g3313
sg3314
g3315
ssI654
(dp3320
g3300
g3301
sg3302
g3303
sg3304
g3305
sg3306
g3307
sg3308
S'il'
p3321
sg3310
g3311
sg3312
g3313
sg3314
g3315
ssI655
(dp3322
g3300
g3317
sg3302
g3303
sg3304
g3305
sg3306
g3307
sg3308
g3321
sg3310
g3311
sg3312
g3313
sg3314
g3315
ssI656
(dp3323
S'city'
p3324
S'san francisco'
p3325
sS'theater'
p3326
S'carmike 12'
p3327
sS'state'
p3328
S'pennsylvania'
p3329
sS'starttime'
p3330
S'around 6pm'
p3331
sS'date'
p3332
S'wednesday'
p3333
sS'moviename'
p3334
S'whiskey tango foxtrot'
p3335
ssI657
(dp3336
g3324
S'altoona'
p3337
sg3326
g3327
sg3328
g3329
sg3330
g3331
sg3332
g3333
sg3334
g3335
ssI658
(dp3338
g3324
g3325
sg3326
g3327
sg3328
g3329
sg3330
S'5pm'
p3339
sg3332
g3333
sg3334
g3335
ssI659
(dp3340
g3324
g3337
sg3326
g3327
sg3328
g3329
sg3330
g3339
sg3332
g3333
sg3334
g3335
ssI660
(dp3341
g3324
g3325
sg3326
g3327
sg3328
g3329
sg3330
S'7:40pm'
p3342
sg3332
g3333
sg3334
g3335
ssI661
(dp3343
S'theater_chain'
p3344
S'amc pacific place 11'
p3345
sS'city'
p3346
S'seattle'
p3347
sS'other'
p3348
S'restaurant'
p3349
sS'date'
p3350
S'tomorrow'
p3351
sS'starttime'
p3352
S'7:00 pm'
p3353
ssI662
(dp3354
S'date'
p3355
S'tomorrow'
p3356
sS'city'
p3357
S'seattle'
p3358
sS'theater'
p3359
S'regal meridian 16'
p3360
sS'moviename'
p3361
S'hail caesar'
p3362
sS'starttime'
p3363
S'8:45 pm'
p3364
ssI663
(dp3365
S'city'
p3366
S'portland'
p3367
sS'theater'
p3368
S'Living Room Theaters Century Eastport 16'
p3369
sS'state'
p3370
S'oregon'
p3371
sS'starttime'
p3372
S'between 8 and 10 pm'
p3373
sS'date'
p3374
S'friday'
p3375
sS'moviename'
p3376
S'star wars'
p3377
ssI664
(dp3378
g3366
g3367
sg3368
S'Century Clackamas Town Center'
p3379
sg3370
g3371
sg3372
g3373
sg3374
g3375
sg3376
g3377
ssI665
(dp3380
g3366
g3367
sg3368
S'XD'
p3381
sg3370
g3371
sg3372
g3373
sg3374
g3375
sg3376
g3377
ssI666
(dp3382
g3366
g3367
sg3368
S'Living Room Theaters'
p3383
sg3370
g3371
sg3372
g3373
sg3374
g3375
sg3376
g3377
ssI667
(dp3384
g3366
g3367
sg3368
g3369
sg3370
g3371
sg3372
S'9:25pm'
p3385
sg3374
g3375
sg3376
g3377
ssI668
(dp3386
S'city'
p3387
S'seattle'
p3388
sS'theater'
p3389
S'regal meridian 16'
p3390
sS'zip'
p3391
S'98126'
p3392
sS'distanceconstraints'
p3393
S'closest'
p3394
sS'price'
p3395
S'cheapest'
p3396
sS'state'
p3397
S'wa'
p3398
sS'other'
p3399
S'search by movie or movie theater'
p3400
sS'starttime'
p3401
S'2:00pm'
p3402
sS'date'
p3403
S'today'
p3404
sS'moviename'
p3405
S'zoolander 2'
p3406
ssI669
(dp3407
g3387
g3388
sg3389
g3390
sg3391
S'98101'
p3408
sg3393
g3394
sg3395
g3396
sg3397
g3398
sg3399
g3400
sg3401
g3402
sg3403
g3404
sg3405
g3406
ssI670
(dp3409
g3387
g3388
sg3389
g3390
sg3391
g3392
sg3393
g3394
sg3395
g3396
sg3397
g3398
sg3399
g3400
sg3401
S'4:30pm'
p3410
sg3403
g3404
sg3405
g3406
ssI671
(dp3411
g3387
g3388
sg3389
g3390
sg3391
g3408
sg3393
g3394
sg3395
g3396
sg3397
g3398
sg3399
g3400
sg3401
g3410
sg3403
g3404
sg3405
g3406
ssI672
(dp3412
g3387
g3388
sg3389
g3390
sg3391
g3392
sg3393
g3394
sg3395
g3396
sg3397
g3398
sg3399
g3400
sg3401
S'7:00pm'
p3413
sg3403
g3404
sg3405
g3406
ssI673
(dp3414
S'city'
p3415
S'los angeles'
p3416
sS'theater'
p3417
S'regal la live stadium 14'
p3418
sS'distanceconstraints'
p3419
S'around the city'
p3420
sS'theater_chain'
p3421
S'amc'
p3422
sS'starttime'
p3423
S'8 pm'
p3424
sS'date'
p3425
S'tonight'
p3426
sS'moviename'
p3427
S'deadpool'
p3428
ssI674
(dp3429
g3415
g3416
sg3417
g3418
sg3419
g3420
sg3421
g3422
sg3423
S'12:00pm'
p3430
sg3425
g3426
sg3427
g3428
ssI675
(dp3431
g3415
g3416
sg3417
g3418
sg3419
g3420
sg3421
g3422
sg3423
S'1:00pm'
p3432
sg3425
g3426
sg3427
g3428
ssI676
(dp3433
g3415
g3416
sg3417
g3418
sg3419
g3420
sg3421
g3422
sg3423
S'3:00pm'
p3434
sg3425
g3426
sg3427
g3428
ssI677
(dp3435
g3415
g3416
sg3417
g3418
sg3419
g3420
sg3421
g3422
sg3423
S'6:00pm'
p3436
sg3425
g3426
sg3427
g3428
ssI678
(dp3437
S'date'
p3438
S'weekend'
p3439
ssI679
(dp3440
S'city'
p3441
S'orlando'
p3442
sS'theater'
p3443
S'amc west oaks 14'
p3444
sS'distanceconstraints'
p3445
S'far away from disney'
p3446
sS'video_format'
p3447
S'standard'
p3448
sS'state'
p3449
S'fl'
p3450
sS'starttime'
p3451
S'around 6 pm'
p3452
sS'date'
p3453
S'tomorrow'
p3454
sS'moviename'
p3455
S'kung fu panda 3'
p3456
ssI680
(dp3457
g3441
g3442
sg3443
g3444
sg3445
g3446
sg3447
S'3d'
p3458
sg3449
g3450
sg3451
g3452
sg3453
g3454
sg3455
g3456
ssI681
(dp3459
g3441
g3442
sg3443
g3444
sg3445
g3446
sg3447
g3448
sg3449
g3450
sg3451
S'1:30pm'
p3460
sg3453
g3454
sg3455
g3456
ssI682
(dp3461
g3441
g3442
sg3443
g3444
sg3445
g3446
sg3447
g3458
sg3449
g3450
sg3451
g3460
sg3453
g3454
sg3455
g3456
ssI683
(dp3462
g3441
g3442
sg3443
g3444
sg3445
g3446
sg3447
g3448
sg3449
g3450
sg3451
S'1:30 pm'
p3463
sg3453
g3454
sg3455
g3456
ssI684
(dp3464
S'date'
p3465
S'tomorrow'
p3466
sS'city'
p3467
S'regency academy 6 theater'
p3468
sS'moviename'
p3469
S'creed'
p3470
sS'theater'
p3471
S'regency academy'
p3472
sS'starttime'
p3473
S'around noon'
p3474
ssI685
(dp3475
g3465
g3466
sg3467
g3468
sg3469
g3470
sg3471
g3472
sg3473
S'1:00pm'
p3476
ssI686
(dp3477
S'city'
p3478
S'seattle'
p3479
sS'theater'
p3480
S'regal meridian 16'
p3481
sS'other'
p3482
S'indian restaurant'
p3483
sS'starttime'
p3484
S'9:20 pm'
p3485
sS'date'
p3486
S'tomorrow'
p3487
sS'moviename'
p3488
S'london has fallen'
p3489
ssI687
(dp3490
g3478
g3479
sg3480
g3481
sg3482
S' movie purchasing service'
p3491
sg3484
g3485
sg3486
g3487
sg3488
g3489
ssI688
(dp3492
g3478
g3479
sg3480
g3481
sg3482
S'name'
p3493
sg3484
g3485
sg3486
g3487
sg3488
g3489
ssI689
(dp3494
S'date'
p3495
S'tomorrow'
p3496
sS'city'
p3497
S'seattle'
p3498
sS'theater'
p3499
S'regal meridian 16'
p3500
sS'moviename'
p3501
S'spotlight'
p3502
sS'starttime'
p3503
S'9:00 pm'
p3504
ssI690
(dp3505
S'city'
p3506
S'baltimore'
p3507
sS'theater'
p3508
S'cinemakr egyptian 24'
p3509
sS'video_format'
p3510
S'3d'
p3511
sS'state'
p3512
S'maryland'
p3513
sS'starttime'
p3514
S'3:20pm'
p3515
sS'date'
p3516
S'friday'
p3517
sS'moviename'
p3518
S'zootopia'
p3519
ssI691
(dp3520
g3506
g3507
sg3508
g3509
sg3510
g3511
sg3512
g3513
sg3514
S'9:45pm'
p3521
sg3516
g3517
sg3518
g3519
ssI692
(dp3522
g3506
g3507
sg3508
g3509
sg3510
g3511
sg3512
g3513
sg3514
g3515
sg3516
S'3/11'
p3523
sg3518
g3519
ssI693
(dp3524
g3506
g3507
sg3508
g3509
sg3510
g3511
sg3512
g3513
sg3514
g3521
sg3516
g3523
sg3518
g3519
ssI694
(dp3525
g3506
g3507
sg3508
g3509
sg3510
g3511
sg3512
g3513
sg3514
g3515
sg3516
g3517
sg3518
S'gods of egypt'
p3526
ssI695
(dp3527
S'city'
p3528
S'seattle'
p3529
sS'theater'
p3530
S'amc lowes oak tree 6'
p3531
sS'other'
p3532
S'restaurant'
p3533
sS'starttime'
p3534
S'7:25 pm'
p3535
sS'date'
p3536
S'tomorrow'
p3537
sS'moviename'
p3538
S'spotlight'
p3539
ssI696
(dp3540
g3528
g3529
sg3530
g3531
sg3532
S'movie ticket buying service'
p3541
sg3534
g3535
sg3536
g3537
sg3538
g3539
ssI697
(dp3542
g3528
g3529
sg3530
g3531
sg3532
S'restaurant booking service'
p3543
sg3534
g3535
sg3536
g3537
sg3538
g3539
ssI698
(dp3544
S'date'
p3545
S'tomorrow night'
p3546
sS'city'
p3547
S'los angeles'
p3548
sS'moviename'
p3549
S'deadpool'
p3550
sS'theater'
p3551
S'pacific theatres'
p3552
sS'starttime'
p3553
S'8:05'
p3554
ssI699
(dp3555
g3545
S'tomorrow'
p3556
sg3547
g3548
sg3549
g3550
sg3551
g3552
sg3553
g3554
ssI700
(dp3557
g3545
S'friday'
p3558
sg3547
g3548
sg3549
g3550
sg3551
g3552
sg3553
g3554
ssI701
(dp3559
g3545
g3546
sg3547
g3548
sg3549
g3550
sg3551
S'pacific theater'
p3560
sg3553
g3554
ssI702
(dp3561
g3545
g3556
sg3547
g3548
sg3549
g3550
sg3551
g3560
sg3553
g3554
ssI703
(dp3562
S'theater'
p3563
S'cinemar downey'
p3564
sS'zip'
p3565
S'90601'
p3566
sS'distanceconstraints'
p3567
S'closest'
p3568
sS'other'
p3569
S'early in the day'
p3570
sS'starttime'
p3571
S'early'
p3572
sS'date'
p3573
S'tomorrow'
p3574
sS'moviename'
p3575
S'the witch'
p3576
ssI704
(dp3577
g3563
S'amc theaters puente hills'
p3578
sg3565
g3566
sg3567
g3568
sg3569
g3570
sg3571
g3572
sg3573
g3574
sg3575
g3576
ssI705
(dp3579
g3563
g3564
sg3565
g3566
sg3567
g3568
sg3569
S'two'
p3580
sg3571
g3572
sg3573
g3574
sg3575
g3576
ssI706
(dp3581
g3563
g3578
sg3565
g3566
sg3567
g3568
sg3569
g3580
sg3571
g3572
sg3573
g3574
sg3575
g3576
ssI707
(dp3582
g3563
g3564
sg3565
g3566
sg3567
g3568
sg3569
g3570
sg3571
S'10:35'
p3583
sg3573
g3574
sg3575
g3576
ssI708
(dp3584
S'city'
p3585
S'johnstown'
p3586
sS'theater'
p3587
S'Richland Cinemas'
p3588
sS'state'
p3589
S'pennsylvania'
p3590
sS'starttime'
p3591
S'between 8 and 9pm'
p3592
sS'date'
p3593
S'tomorrow'
p3594
sS'moviename'
p3595
S'deadpool'
p3596
ssI709
(dp3597
g3585
g3586
sg3587
S'richland cinemas'
p3598
sg3589
g3590
sg3591
g3592
sg3593
g3594
sg3595
g3596
ssI710
(dp3599
g3585
g3586
sg3587
g3588
sg3589
g3590
sg3591
S'7:20pm'
p3600
sg3593
g3594
sg3595
g3596
ssI711
(dp3601
g3585
g3586
sg3587
g3598
sg3589
g3590
sg3591
g3600
sg3593
g3594
sg3595
g3596
ssI712
(dp3602
g3585
g3586
sg3587
g3588
sg3589
g3590
sg3591
S'9:50 pm'
p3603
sg3593
g3594
sg3595
g3596
ssI713
(dp3604
S'city'
p3605
S'portland'
p3606
sS'theater'
p3607
S'living room theaters'
p3608
sS'theater_chain'
p3609
S'century eastport 16'
p3610
sS'video_format'
p3611
S'3d'
p3612
sS'state'
p3613
S'oregon'
p3614
sS'starttime'
p3615
S'10 pm'
p3616
sS'date'
p3617
S'friday evening'
p3618
sS'genre'
p3619
S'super great day'
p3620
sS'moviename'
p3621
S'star wars'
p3622
ssI714
(dp3623
g3605
g3606
sg3607
S'century eastport 16'
p3624
sg3609
g3610
sg3611
g3612
sg3613
g3614
sg3615
g3616
sg3617
g3618
sg3619
g3620
sg3621
g3622
ssI715
(dp3625
g3605
g3606
sg3607
g3608
sg3609
g3610
sg3611
S'standard'
p3626
sg3613
g3614
sg3615
g3616
sg3617
g3618
sg3619
g3620
sg3621
g3622
ssI716
(dp3627
g3605
g3606
sg3607
g3624
sg3609
g3610
sg3611
g3626
sg3613
g3614
sg3615
g3616
sg3617
g3618
sg3619
g3620
sg3621
g3622
ssI717
(dp3628
g3605
g3606
sg3607
g3608
sg3609
g3610
sg3611
g3612
sg3613
g3614
sg3615
S'9:25'
p3629
sg3617
g3618
sg3619
g3620
sg3621
g3622
ssI718
(dp3630
S'city'
p3631
S'seattle'
p3632
sS'theater'
p3633
S'...'
p3634
sS'zip'
p3635
S'98101'
p3636
sS'state'
p3637
S'washington'
p3638
sS'mpaa_rating'
p3639
S'pg'
p3640
sS'starttime'
p3641
S'matinee'
p3642
sS'date'
p3643
S'7th'
p3644
sS'moviename'
p3645
S'kung fu panda 3'
p3646
ssI719
(dp3647
g3631
S'bellevue'
p3648
sg3633
g3634
sg3635
g3636
sg3637
g3638
sg3639
g3640
sg3641
g3642
sg3643
g3644
sg3645
g3646
ssI720
(dp3649
g3631
g3632
sg3633
S'regal meridian 16'
p3650
sg3635
g3636
sg3637
g3638
sg3639
g3640
sg3641
g3642
sg3643
g3644
sg3645
g3646
ssI721
(dp3651
g3631
g3648
sg3633
g3650
sg3635
g3636
sg3637
g3638
sg3639
g3640
sg3641
g3642
sg3643
g3644
sg3645
g3646
ssI722
(dp3652
g3631
g3632
sg3633
S'bellevue lincoln square cinemas'
p3653
sg3635
g3636
sg3637
g3638
sg3639
g3640
sg3641
g3642
sg3643
g3644
sg3645
g3646
ssI723
(dp3654
S'date'
p3655
S'tomorrow'
p3656
sS'city'
p3657
S'seattle'
p3658
sS'theater'
p3659
S'amc pacific place 11 theater'
p3660
sS'moviename'
p3661
S'room'
p3662
sS'starttime'
p3663
S'9:30 pm'
p3664
ssI724
(dp3665
S'city'
p3666
S'los angeles'
p3667
sS'moviename'
p3668
S'the witch'
p3669
sS'theater'
p3670
S'regal la live stadium 14'
p3671
sS'starttime'
p3672
S'from noon to 4pm'
p3673
ssI725
(dp3674
g3666
g3667
sg3668
g3669
sg3670
g3671
sg3672
S'8:30pm'
p3675
ssI726
(dp3676
g3666
g3667
sg3668
g3669
sg3670
g3671
sg3672
S'11:00pm'
p3677
ssI727
(dp3678
g3666
g3667
sg3668
g3669
sg3670
g3671
sg3672
S'11pm'
p3679
ssI728
(dp3680
S'date'
p3681
S'tomorrow'
p3682
sS'moviename'
p3683
S'star wars'
p3684
sS'theater'
p3685
S'Imagine theater Shelby Township'
p3686
sS'starttime'
p3687
S'afternoon'
p3688
ssI729
(dp3689
S'city'
p3690
S'philadelphia'
p3691
sS'theater'
p3692
S'the pearl theatre'
p3693
sS'zip'
p3694
S'19101'
p3695
sS'distanceconstraints'
p3696
S'near you'
p3697
sS'state'
p3698
S'pa'
p3699
sS'starttime'
p3700
S'1:30pm'
p3701
sS'date'
p3702
S'tomorrow'
p3703
sS'moviename'
p3704
S'deadpool'
p3705
ssI730
(dp3706
g3690
g3691
sg3692
g3693
sg3694
S'19121'
p3707
sg3696
g3697
sg3698
g3699
sg3700
g3701
sg3702
g3703
sg3704
g3705
ssI731
(dp3708
g3690
g3691
sg3692
g3693
sg3694
g3695
sg3696
g3697
sg3698
g3699
sg3700
S'4:30pm'
p3709
sg3702
g3703
sg3704
g3705
ssI732
(dp3710
g3690
g3691
sg3692
g3693
sg3694
g3707
sg3696
g3697
sg3698
g3699
sg3700
g3709
sg3702
g3703
sg3704
g3705
ssI733
(dp3711
g3690
g3691
sg3692
g3693
sg3694
g3695
sg3696
g3697
sg3698
g3699
sg3700
S'7:30pm'
p3712
sg3702
g3703
sg3704
g3705
ssI734
(dp3713
S'city'
p3714
S'seattle'
p3715
sS'theater'
p3716
S'regal meridian 16'
p3717
sS'zip'
p3718
S'98101'
p3719
sS'genre'
p3720
S'comedy'
p3721
sS'state'
p3722
S'washington'
p3723
sS'starttime'
p3724
S'night'
p3725
sS'date'
p3726
S'tomorrow'
p3727
sS'moviename'
p3728
S'zootopia'
p3729
ssI735
(dp3730
g3714
g3715
sg3716
S'regal meridian'
p3731
sg3718
g3719
sg3720
g3721
sg3722
g3723
sg3724
g3725
sg3726
g3727
sg3728
g3729
ssI736
(dp3732
g3714
g3715
sg3716
g3717
sg3718
g3719
sg3720
S'comedies)'
p3733
sg3722
g3723
sg3724
g3725
sg3726
g3727
sg3728
g3729
ssI737
(dp3734
g3714
g3715
sg3716
g3731
sg3718
g3719
sg3720
g3733
sg3722
g3723
sg3724
g3725
sg3726
g3727
sg3728
g3729
ssI738
(dp3735
g3714
g3715
sg3716
g3717
sg3718
g3719
sg3720
g3721
sg3722
S'wa'
p3736
sg3724
g3725
sg3726
g3727
sg3728
g3729
ssI739
(dp3737
S'city'
p3738
S'northern san francisco'
p3739
sS'theater'
p3740
S'amc van ness 14'
p3741
sS'video_format'
p3742
S'3d'
p3743
sS'starttime'
p3744
S'2:25pm'
p3745
sS'date'
p3746
S'tomorrow afternoon'
p3747
sS'moviename'
p3748
S'kung fu panda 3'
p3749
ssI740
(dp3750
g3738
g3739
sg3740
S'century 20 daly city'
p3751
sg3742
g3743
sg3744
g3745
sg3746
g3747
sg3748
g3749
ssI741
(dp3752
g3738
g3739
sg3740
S'amc'
p3753
sg3742
g3743
sg3744
g3745
sg3746
g3747
sg3748
g3749
ssI742
(dp3754
g3738
g3739
sg3740
g3741
sg3742
S'standard'
p3755
sg3744
g3745
sg3746
g3747
sg3748
g3749
ssI743
(dp3756
g3738
g3739
sg3740
g3751
sg3742
g3755
sg3744
g3745
sg3746
g3747
sg3748
g3749
ssI744
(dp3757
S'city'
p3758
S'seattle'
p3759
sS'theater'
p3760
S'regal meridian 16'
p3761
sS'video_format'
p3762
S'3d'
p3763
sS'starttime'
p3764
S'9:10 pm'
p3765
sS'date'
p3766
S'tomorrow'
p3767
sS'moviename'
p3768
S'zootopia'
p3769
ssI745
(dp3770
S'city'
p3771
S'seattle'
p3772
sS'theater'
p3773
S'regal meridian 16'
p3774
sS'distanceconstraints'
p3775
S'near my location'
p3776
sS'critic_rating'
p3777
S'number 1'
p3778
sS'date'
p3779
S'tonight'
p3780
sS'state'
p3781
S'washington'
p3782
sS'other'
p3783
S'safeco field'
p3784
sS'genre'
p3785
S'comedy'
p3786
sS'moviename'
p3787
S'zootopia'
p3788
ssI746
(dp3789
g3771
g3772
sg3773
g3774
sg3775
g3776
sg3777
g3778
sg3779
g3780
sg3781
g3782
sg3783
S'many'
p3790
sg3785
g3786
sg3787
g3788
ssI747
(dp3791
g3771
g3772
sg3773
g3774
sg3775
g3776
sg3777
g3778
sg3779
g3780
sg3781
g3782
sg3783
g3784
sg3785
S'comedies'
p3792
sg3787
g3788
ssI748
(dp3793
g3771
g3772
sg3773
g3774
sg3775
g3776
sg3777
g3778
sg3779
g3780
sg3781
g3782
sg3783
g3790
sg3785
g3792
sg3787
g3788
ssI749
(dp3794
g3771
g3772
sg3773
g3774
sg3775
g3776
sg3777
g3778
sg3779
g3780
sg3781
g3782
sg3783
g3784
sg3785
g3786
sg3787
S'Whiskey Tango Foxtrot'
p3795
ssI750
(dp3796
S'date'
p3797
S'tomorrow'
p3798
sS'city'
p3799
S'seattle'
p3800
sS'theater'
p3801
S'amc pacific place 11 theater'
p3802
sS'moviename'
p3803
S'deadpool'
p3804
sS'starttime'
p3805
S'9:00 pm'
p3806
ssI751
(dp3807
S'city'
p3808
S'seattle'
p3809
sS'theater'
p3810
S'bellevue lincoln square cinemas'
p3811
sS'zip'
p3812
S'98004'
p3813
sS'numberofkids'
p3814
S'2'
sS'critic_rating'
p3815
S'4 5/5 stars'
p3816
sS'genre'
p3817
S'animated'
p3818
sS'state'
p3819
S'wa'
p3820
sS'other'
p3821
S'pizza place'
p3822
sS'starttime'
p3823
S'night'
p3824
sS'date'
p3825
S'tomorrow'
p3826
sS'moviename'
p3827
S'zootopia'
p3828
ssI752
(dp3829
g3808
S'st louis'
p3830
sg3810
g3811
sg3812
g3813
sg3814
S'2'
sg3815
g3816
sg3817
g3818
sg3819
g3820
sg3821
g3822
sg3823
g3824
sg3825
g3826
sg3827
g3828
ssI753
(dp3831
g3808
S'bellevue'
p3832
sg3810
g3811
sg3812
g3813
sg3814
S'2'
sg3815
g3816
sg3817
g3818
sg3819
g3820
sg3821
g3822
sg3823
g3824
sg3825
g3826
sg3827
g3828
ssI754
(dp3833
g3808
g3809
sg3810
g3811
sg3812
g3813
sg3814
S'2'
sg3815
g3816
sg3817
S'kid'
p3834
sg3819
g3820
sg3821
g3822
sg3823
g3824
sg3825
g3826
sg3827
g3828
ssI755
(dp3835
g3808
g3830
sg3810
g3811
sg3812
g3813
sg3814
S'2'
sg3815
g3816
sg3817
g3834
sg3819
g3820
sg3821
g3822
sg3823
g3824
sg3825
g3826
sg3827
g3828
ssI756
(dp3836
S'city'
p3837
S'knoxville'
p3838
sS'theater'
p3839
S'carmike 10'
p3840
sS'distanceconstraints'
p3841
S'downtown'
p3842
sS'video_format'
p3843
S'3d'
p3844
sS'state'
p3845
S'tn'
p3846
sS'other'
p3847
S'increased functionality'
p3848
sS'starttime'
p3849
S'evening around 7'
p3850
sS'date'
p3851
S'tomorrow'
p3852
sS'moviename'
p3853
S'the witch'
p3854
ssI757
(dp3855
g3837
g3838
sg3839
S'please'
p3856
sg3841
g3842
sg3843
g3844
sg3845
g3846
sg3847
g3848
sg3849
g3850
sg3851
g3852
sg3853
g3854
ssI758
(dp3857
g3837
g3838
sg3839
g3840
sg3841
g3842
sg3843
g3844
sg3845
g3846
sg3847
g3848
sg3849
S'7:30pm'
p3858
sg3851
g3852
sg3853
g3854
ssI759
(dp3859
g3837
g3838
sg3839
g3856
sg3841
g3842
sg3843
g3844
sg3845
g3846
sg3847
g3848
sg3849
g3858
sg3851
g3852
sg3853
g3854
ssI760
(dp3860
S'date'
p3861
S'tomorrow'
p3862
sS'city'
p3863
S'seattle'
p3864
sS'theater'
p3865
S'amc pacific place 11 theater'
p3866
sS'moviename'
p3867
S'race'
p3868
sS'starttime'
p3869
S'10:00 pm'
p3870
ssI761
(dp3871
S'theater'
p3872
S'mesa grand 24'
p3873
sS'zip'
p3874
S'85249'
p3875
sS'critic_rating'
p3876
S'good'
p3877
sS'actress'
p3878
S'tina fey'
p3879
sS'theater_chain'
p3880
S'amc theater'
p3881
sS'starttime'
p3882
S'night'
p3883
sS'date'
p3884
S'friday'
p3885
sS'genre'
p3886
S'romantic comedy'
p3887
sS'moviename'
p3888
S'zootopia'
p3889
ssI762
(dp3890
g3872
g3873
sg3874
g3875
sg3876
g3877
sg3878
g3879
sg3880
S'amc ahwatukee 24'
p3891
sg3882
g3883
sg3884
g3885
sg3886
g3887
sg3888
g3889
ssI763
(dp3892
g3872
g3873
sg3874
g3875
sg3876
g3877
sg3878
g3879
sg3880
S' amc mesa grand 24'
p3893
sg3882
g3883
sg3884
g3885
sg3886
g3887
sg3888
g3889
ssI764
(dp3894
g3872
S'mesa grand'
p3895
sg3874
g3875
sg3876
g3877
sg3878
g3879
sg3880
g3881
sg3882
g3883
sg3884
g3885
sg3886
g3887
sg3888
g3889
ssI765
(dp3896
g3872
g3895
sg3874
g3875
sg3876
g3877
sg3878
g3879
sg3880
g3891
sg3882
g3883
sg3884
g3885
sg3886
g3887
sg3888
g3889
ssI766
(dp3897
S'city'
p3898
S'seattle'
p3899
sS'theater'
p3900
S'regal meridian 16'
p3901
sS'zip'
p3902
S'98101'
p3903
sS'distanceconstraints'
p3904
S'near safeco field'
p3905
sS'date'
p3906
S'tonight'
p3907
sS'state'
p3908
S'wa'
p3909
sS'other'
p3910
S'pizza restaurant'
p3911
sS'starttime'
p3912
S'the next'
p3913
sS'genre'
p3914
S'drama'
p3915
sS'moviename'
p3916
S'the big short'
p3917
ssI767
(dp3918
g3898
g3899
sg3900
g3901
sg3902
g3903
sg3904
S'in your area'
p3919
sg3906
g3907
sg3908
g3909
sg3910
g3911
sg3912
g3913
sg3914
g3915
sg3916
g3917
ssI768
(dp3920
g3898
g3899
sg3900
g3901
sg3902
g3903
sg3904
g3905
sg3906
g3907
sg3908
g3909
sg3910
g3911
sg3912
S'8:45'
p3921
sg3914
g3915
sg3916
g3917
ssI769
(dp3922
g3898
g3899
sg3900
g3901
sg3902
g3903
sg3904
g3919
sg3906
g3907
sg3908
g3909
sg3910
g3911
sg3912
g3921
sg3914
g3915
sg3916
g3917
ssI770
(dp3923
S'date'
p3924
S'tomorrow'
p3925
sS'city'
p3926
S'seattle'
p3927
sS'theater'
p3928
S'regal meridian 16'
p3929
sS'moviename'
p3930
S'zootopia'
p3931
sS'starttime'
p3932
S'9:10 pm'
p3933
ssI771
(dp3934
S'city'
p3935
S'safeco field'
p3936
sS'theater'
p3937
S'regal meridian 16'
p3938
sS'zip'
p3939
S'98101'
p3940
sS'distanceconstraints'
p3941
S'near safeco field'
p3942
sS'date'
p3943
S'tonight'
p3944
sS'state'
p3945
S'wa'
p3946
sS'other'
p3947
S'restaurant'
p3948
sS'starttime'
p3949
S'the next showing'
p3950
sS'genre'
p3951
S'drama'
p3952
sS'moviename'
p3953
S'the big short'
p3954
ssI772
(dp3955
g3935
S'seattle'
p3956
sg3937
g3938
sg3939
g3940
sg3941
g3942
sg3943
g3944
sg3945
g3946
sg3947
g3948
sg3949
g3950
sg3951
g3952
sg3953
g3954
ssI773
(dp3957
g3935
g3936
sg3937
g3938
sg3939
g3940
sg3941
S'near'
p3958
sg3943
g3944
sg3945
g3946
sg3947
g3948
sg3949
g3950
sg3951
g3952
sg3953
g3954
ssI774
(dp3959
g3935
g3956
sg3937
g3938
sg3939
g3940
sg3941
g3958
sg3943
g3944
sg3945
g3946
sg3947
g3948
sg3949
g3950
sg3951
g3952
sg3953
g3954
ssI775
(dp3960
g3935
g3936
sg3937
g3938
sg3939
g3940
sg3941
S'in your area'
p3961
sg3943
g3944
sg3945
g3946
sg3947
g3948
sg3949
g3950
sg3951
g3952
sg3953
g3954
ssI776
(dp3962
S'city'
p3963
S'birmingham'
p3964
sS'theater'
p3965
S'carmike summit 16'
p3966
sS'state'
p3967
S'al'
p3968
sS'starttime'
p3969
S'around 2pm'
p3970
sS'date'
p3971
S'sunday'
p3972
sS'moviename'
p3973
S'deadpool'
p3974
ssI777
(dp3975
g3963
g3964
sg3965
g3966
sg3967
g3968
sg3969
S'2:05 pm'
p3976
sg3971
g3972
sg3973
g3974
ssI778
(dp3977
S'date'
p3978
S'weekend'
p3979
sS'moviename'
p3980
S'deadpool'
p3981
sS'theater'
p3982
S'boyou vista la'
p3983
sS'starttime'
p3984
S'night'
p3985
ssI779
(dp3986
g3978
S'friday'
p3987
sg3980
g3981
sg3982
g3983
sg3984
g3985
ssI780
(dp3988
g3978
S'this weekend'
p3989
sg3980
g3981
sg3982
g3983
sg3984
g3985
ssI781
(dp3990
g3978
S'earlier day'
p3991
sg3980
g3981
sg3982
g3983
sg3984
g3985
ssI782
(dp3992
g3978
S'thursday'
p3993
sg3980
g3981
sg3982
g3983
sg3984
g3985
ssI783
(dp3994
S'date'
p3995
S'friday'
p3996
sS'city'
p3997
S'miami'
p3998
sS'moviename'
p3999
S'brothers grimsby'
p4000
sS'theater'
p4001
S'regal south beach'
p4002
sS'starttime'
p4003
S'8pm'
p4004
ssI784
(dp4005
g3995
g3996
sg3997
g3998
sg3999
g4000
sg4001
S'amc sunset place 24'
p4006
sg4003
g4004
ssI785
(dp4007
g3995
g3996
sg3997
g3998
sg3999
g4000
sg4001
g4002
sg4003
S'7:40'
p4008
ssI786
(dp4009
g3995
g3996
sg3997
g3998
sg3999
g4000
sg4001
g4006
sg4003
g4008
ssI787
(dp4010
g3995
g3996
sg3997
g3998
sg3999
g4000
sg4001
g4002
sg4003
S'6:00'
p4011
ssI788
(dp4012
S'date'
p4013
S'tomorrow'
p4014
sS'city'
p4015
S'seattle'
p4016
sS'theater'
p4017
S'regal meridian 16'
p4018
sS'moviename'
p4019
S'big short'
p4020
sS'starttime'
p4021
S'8:45 pm'
p4022
ssI789
(dp4023
g4013
g4014
sg4015
g4016
sg4017
g4018
sg4019
S'the big short'
p4024
sg4021
g4022
ssI790
(dp4025
S'city'
p4026
S'seattle'
p4027
sS'theater'
p4028
S'bellevue lincoln square cinemas'
p4029
sS'zip'
p4030
S'98004'
p4031
sS'numberofkids'
p4032
S'2'
sS'critic_rating'
p4033
S'4.5/5'
p4034
sS'genre'
p4035
S'animated'
p4036
sS'state'
p4037
S'wa'
p4038
sS'other'
p4039
S'pizza place'
p4040
sS'starttime'
p4041
S'evening'
p4042
sS'date'
p4043
S'tomorrow night'
p4044
sS'moviename'
p4045
S'zootopia'
p4046
ssI791
(dp4047
g4026
S'st louis'
p4048
sg4028
g4029
sg4030
g4031
sg4032
S'2'
sg4033
g4034
sg4035
g4036
sg4037
g4038
sg4039
g4040
sg4041
g4042
sg4043
g4044
sg4045
g4046
ssI792
(dp4049
g4026
S'bellevue'
p4050
sg4028
g4029
sg4030
g4031
sg4032
S'2'
sg4033
g4034
sg4035
g4036
sg4037
g4038
sg4039
g4040
sg4041
g4042
sg4043
g4044
sg4045
g4046
ssI793
(dp4051
g4026
g4027
sg4028
g4029
sg4030
g4031
sg4032
S'2'
sg4033
g4034
sg4035
S'kids'
p4052
sg4037
g4038
sg4039
g4040
sg4041
g4042
sg4043
g4044
sg4045
g4046
ssI794
(dp4053
g4026
g4048
sg4028
g4029
sg4030
g4031
sg4032
S'2'
sg4033
g4034
sg4035
g4052
sg4037
g4038
sg4039
g4040
sg4041
g4042
sg4043
g4044
sg4045
g4046
ssI795
(dp4054
S'city'
p4055
S'la'
p4056
sS'theater'
p4057
S'regency norwalk 8'
p4058
sS'critic_rating'
p4059
S'8%'
p4060
sS'date'
p4061
S'saturday'
p4062
sS'other'
p4063
S'laughable'
p4064
sS'starttime'
p4065
S'7:40pm'
p4066
sS'genre'
p4067
S'horror'
p4068
sS'moviename'
p4069
S'the forest'
p4070
ssI796
(dp4071
g4055
g4056
sg4057
S'amc la 7'
p4072
sg4059
g4060
sg4061
g4062
sg4063
g4064
sg4065
g4066
sg4067
g4068
sg4069
g4070
ssI797
(dp4073
g4055
g4056
sg4057
S'amc la mirada'
p4074
sg4059
g4060
sg4061
g4062
sg4063
g4064
sg4065
g4066
sg4067
g4068
sg4069
g4070
ssI798
(dp4075
g4055
g4056
sg4057
S'amc la'
p4076
sg4059
g4060
sg4061
g4062
sg4063
g4064
sg4065
g4066
sg4067
g4068
sg4069
g4070
ssI799
(dp4077
g4055
g4056
sg4057
g4058
sg4059
g4060
sg4061
g4062
sg4063
S'rotten tomatoes'
p4078
sg4065
g4066
sg4067
g4068
sg4069
g4070
ssI800
(dp4079
S'city'
p4080
S'st louis'
p4081
sS'theater'
p4082
S'wehrenberg ronnies 20 cine and imax'
p4083
sS'zip'
p4084
S'63126'
p4085
sS'distanceconstraints'
p4086
S'near here'
p4087
sS'critic_rating'
p4088
S'nice'
p4089
sS'state'
p4090
S'mo'
p4091
sS'other'
p4092
S'subtitles'
p4093
sS'starttime'
p4094
S'7:20'
p4095
sS'genre'
p4096
S'romantic'
p4097
sS'moviename'
p4098
S'how to be single'
p4099
ssI801
(dp4100
g4080
S'sappington'
p4101
sg4082
g4083
sg4084
g4085
sg4086
g4087
sg4088
g4089
sg4090
g4091
sg4092
g4093
sg4094
g4095
sg4096
g4097
sg4098
g4099
ssI802
(dp4102
g4080
g4081
sg4082
g4083
sg4084
g4085
sg4086
g4087
sg4088
g4089
sg4090
g4091
sg4092
S'english and chinese subtitles'
p4103
sg4094
g4095
sg4096
g4097
sg4098
g4099
ssI803
(dp4104
g4080
g4101
sg4082
g4083
sg4084
g4085
sg4086
g4087
sg4088
g4089
sg4090
g4091
sg4092
g4103
sg4094
g4095
sg4096
g4097
sg4098
g4099
ssI804
(dp4105
g4080
g4081
sg4082
g4083
sg4084
g4085
sg4086
g4087
sg4088
g4089
sg4090
g4091
sg4092
g4093
sg4094
S'10:05'
p4106
sg4096
g4097
sg4098
g4099
ssI805
(dp4107
S'city'
p4108
S'seattle'
p4109
sS'theater'
p4110
S'all'
p4111
sS'zip'
p4112
S'98101'
p4113
sS'distanceconstraints'
p4114
S'south side'
p4115
sS'video_format'
p4116
S'2d'
p4117
sS'state'
p4118
S'wa'
p4119
sS'starttime'
p4120
S'around 6 pm'
p4121
sS'date'
p4122
S'this evening'
p4123
sS'moviename'
p4124
S'zootopia'
p4125
ssI806
(dp4126
g4108
S'bellevue'
p4127
sg4110
g4111
sg4112
g4113
sg4114
g4115
sg4116
g4117
sg4118
g4119
sg4120
g4121
sg4122
g4123
sg4124
g4125
ssI807
(dp4128
g4108
g4109
sg4110
S'regal meridian 16'
p4129
sg4112
g4113
sg4114
g4115
sg4116
g4117
sg4118
g4119
sg4120
g4121
sg4122
g4123
sg4124
g4125
ssI808
(dp4130
g4108
g4127
sg4110
g4129
sg4112
g4113
sg4114
g4115
sg4116
g4117
sg4118
g4119
sg4120
g4121
sg4122
g4123
sg4124
g4125
ssI809
(dp4131
g4108
g4109
sg4110
S'bellevue lincoln square cinemas'
p4132
sg4112
g4113
sg4114
g4115
sg4116
g4117
sg4118
g4119
sg4120
g4121
sg4122
g4123
sg4124
g4125
ssI810
(dp4133
S'date'
p4134
S'tomorrow'
p4135
sS'city'
p4136
S'seattle'
p4137
sS'theater'
p4138
S'regal meridian 16'
p4139
sS'moviename'
p4140
S'the witch'
p4141
sS'starttime'
p4142
S'9:30 pm'
p4143
ssI811
(dp4144
S'city'
p4145
S'seattle'
p4146
sS'theater'
p4147
S'regal meridian 16'
p4148
sS'video_format'
p4149
S'3d'
p4150
sS'starttime'
p4151
S'9:10 pm'
p4152
sS'date'
p4153
S'tomorrow'
p4154
sS'moviename'
p4155
S'zootopia'
p4156
ssI812
(dp4157
S'city'
p4158
S'chico'
p4159
sS'theater'
p4160
S'paradise cinema 7'
p4161
sS'date'
p4162
S'tomorrow'
p4163
sS'state'
p4164
S'ca'
p4165
sS'starttime'
p4166
S'early afternoon'
p4167
sS'genre'
p4168
S'drama'
p4169
sS'moviename'
p4170
S'london has fallen'
p4171
ssI813
(dp4172
g4158
g4159
sg4160
S'tinseltown'
p4173
sg4162
g4163
sg4164
g4165
sg4166
g4167
sg4168
g4169
sg4170
g4171
ssI814
(dp4174
g4158
g4159
sg4160
S'cinemark 14'
p4175
sg4162
g4163
sg4164
g4165
sg4166
g4167
sg4168
g4169
sg4170
g4171
ssI815
(dp4176
g4158
g4159
sg4160
S' paradisa cinema 7'
p4177
sg4162
g4163
sg4164
g4165
sg4166
g4167
sg4168
g4169
sg4170
g4171
ssI816
(dp4178
g4158
g4159
sg4160
g4161
sg4162
S'3/11'
p4179
sg4164
g4165
sg4166
g4167
sg4168
g4169
sg4170
g4171
ssI817
(dp4180
S'moviename'
p4181
S'10 cloverfield lane'
p4182
sS'price'
p4183
S'adult price is 8'
p4184
sS'other'
p4185
S'matinee'
p4186
sS'theater'
p4187
S'beaver creek stadium 12'
p4188
sS'starttime'
p4189
S'1:50'
p4190
ssI818
(dp4191
g4181
g4182
sg4183
S'32'
p4192
sg4185
g4186
sg4187
g4188
sg4189
g4190
ssI819
(dp4193
g4181
g4182
sg4183
g4184
sg4185
S' matinee'
p4194
sg4187
g4188
sg4189
g4190
ssI820
(dp4195
g4181
g4182
sg4183
g4192
sg4185
g4194
sg4187
g4188
sg4189
g4190
ssI821
(dp4196
g4181
g4182
sg4183
g4184
sg4185
g4186
sg4187
g4188
sg4189
S' 4:30'
p4197
ssI822
(dp4198
S'city'
p4199
S'seattle'
p4200
sS'theater'
p4201
S'regal meridian 16'
p4202
sS'distanceconstraints'
p4203
S'near me'
p4204
sS'critic_rating'
p4205
S'good'
p4206
sS'video_format'
p4207
S'3d'
p4208
sS'state'
p4209
S'wa'
p4210
sS'other'
p4211
S'good restaurant'
p4212
sS'starttime'
p4213
S'around 8 pm'
p4214
sS'date'
p4215
S'tomorrow'
p4216
sS'moviename'
p4217
S'zootopia'
p4218
ssI823
(dp4219
g4199
g4200
sg4201
S'bellevue lincoln square cinemas'
p4220
sg4203
g4204
sg4205
g4206
sg4207
g4208
sg4209
g4210
sg4211
g4212
sg4213
g4214
sg4215
g4216
sg4217
g4218
ssI824
(dp4221
g4199
g4200
sg4201
S'varsity theatre'
p4222
sg4203
g4204
sg4205
g4206
sg4207
g4208
sg4209
g4210
sg4211
g4212
sg4213
g4214
sg4215
g4216
sg4217
g4218
ssI825
(dp4223
g4199
g4200
sg4201
g4202
sg4203
g4204
sg4205
g4206
sg4207
S'regular'
p4224
sg4209
g4210
sg4211
g4212
sg4213
g4214
sg4215
g4216
sg4217
g4218
ssI826
(dp4225
g4199
g4200
sg4201
g4220
sg4203
g4204
sg4205
g4206
sg4207
g4224
sg4209
g4210
sg4211
g4212
sg4213
g4214
sg4215
g4216
sg4217
g4218
ssI827
(dp4226
S'city'
p4227
S'whittier village stadium cinemas'
p4228
sS'zip'
p4229
S'90601'
p4230
sS'critic_rating'
p4231
S'top rated'
p4232
sS'date'
p4233
S'next saturday'
p4234
sS'starttime'
p4235
S'closest to noon'
p4236
sS'genre'
p4237
S'action'
p4238
sS'moviename'
p4239
S'london has fallen'
p4240
ssI828
(dp4241
g4227
g4228
sg4229
g4230
sg4231
g4232
sg4233
S'mar 12'
p4242
sg4235
g4236
sg4237
g4238
sg4239
g4240
ssI829
(dp4243
g4227
g4228
sg4229
g4230
sg4231
g4232
sg4233
g4234
sg4235
S'1:30pm'
p4244
sg4237
g4238
sg4239
g4240
ssI830
(dp4245
g4227
g4228
sg4229
g4230
sg4231
g4232
sg4233
g4242
sg4235
g4244
sg4237
g4238
sg4239
g4240
ssI831
(dp4246
S'city'
p4247
S'seattle'
p4248
sS'theater'
p4249
S'regal meridian 16'
p4250
sS'other'
p4251
S'name'
p4252
sS'starttime'
p4253
S'9:00 pm'
p4254
sS'date'
p4255
S'tomorrow'
p4256
sS'moviename'
p4257
S'spotlight'
p4258
ssI832
(dp4259
S'city'
p4260
S'evanston'
p4261
sS'theater'
p4262
S'CENTURY 12 EVANSTON/CIN\xc3\x83\xe2\x80\xb0ARTS 6 AND XD'
p4263
sS'zip'
p4264
S'60201'
p4265
sS'distanceconstraints'
p4266
S'your area'
p4267
sS'critic_rating'
p4268
S'top rated'
p4269
sS'state'
p4270
S'illinois'
p4271
sS'other'
p4272
S'currently'
p4273
sS'starttime'
p4274
S'10:45am'
p4275
sS'date'
p4276
S'tomorrow'
p4277
sS'moviename'
p4278
S'deadpool'
p4279
ssI833
(dp4280
g4260
g4261
sg4262
g4263
sg4264
g4265
sg4266
g4267
sg4268
g4269
sg4270
S'il'
p4281
sg4272
g4273
sg4274
g4275
sg4276
g4277
sg4278
g4279
ssI834
(dp4282
g4260
g4261
sg4262
g4263
sg4264
g4265
sg4266
g4267
sg4268
g4269
sg4270
g4271
sg4272
g4273
sg4274
S'12:00pm'
p4283
sg4276
g4277
sg4278
g4279
ssI835
(dp4284
g4260
g4261
sg4262
g4263
sg4264
g4265
sg4266
g4267
sg4268
g4269
sg4270
g4281
sg4272
g4273
sg4274
g4283
sg4276
g4277
sg4278
g4279
ssI836
(dp4285
g4260
g4261
sg4262
g4263
sg4264
g4265
sg4266
g4267
sg4268
g4269
sg4270
g4271
sg4272
g4273
sg4274
S'2:40pm'
p4286
sg4276
g4277
sg4278
g4279
ssI837
(dp4287
S'city'
p4288
S'wilmington'
p4289
sS'theater'
p4290
S'regal mayfaire stadium 16 imax'
p4291
sS'critic_rating'
p4292
S'good'
p4293
sS'genre'
p4294
S'date night:'
p4295
sS'state'
p4296
S'nc'
p4297
sS'other'
p4298
S'george on the riverwak'
p4299
sS'starttime'
p4300
S'8pm'
p4301
sS'date'
p4302
S'saturday'
p4303
sS'moviename'
p4304
S'the perfect match'
p4305
ssI838
(dp4306
g4288
g4289
sg4290
g4291
sg4292
g4293
sg4294
g4295
sg4296
g4297
sg4298
S'purchase'
p4307
sg4300
g4301
sg4302
g4303
sg4304
g4305
ssI839
(dp4308
g4288
g4289
sg4290
g4291
sg4292
g4293
sg4294
g4295
sg4296
g4297
sg4298
g4299
sg4300
S'after dinner'
p4309
sg4302
g4303
sg4304
g4305
ssI840
(dp4310
g4288
g4289
sg4290
g4291
sg4292
g4293
sg4294
g4295
sg4296
g4297
sg4298
g4307
sg4300
g4309
sg4302
g4303
sg4304
g4305
ssI841
(dp4311
g4288
g4289
sg4290
g4291
sg4292
g4293
sg4294
g4295
sg4296
g4297
sg4298
g4299
sg4300
S'8'
sg4302
g4303
sg4304
g4305
ssI842
(dp4312
S'city'
p4313
S'seattle'
p4314
sS'theater'
p4315
S'regal lloyd center century 16'
p4316
sS'zip'
p4317
S'97232'
p4318
sS'distanceconstraints'
p4319
S'downtown'
p4320
sS'state'
p4321
S'oregon'
p4322
sS'other'
p4323
S'japanese restaurant'
p4324
sS'starttime'
p4325
S'midnight'
p4326
sS'date'
p4327
S'tonight'
p4328
sS'moviename'
p4329
S'star wars the force awakens'
p4330
ssI843
(dp4331
g4313
S'portland'
p4332
sg4315
g4316
sg4317
g4318
sg4319
g4320
sg4321
g4322
sg4323
g4324
sg4325
g4326
sg4327
g4328
sg4329
g4330
ssI844
(dp4333
g4313
g4314
sg4315
S'regal movies on tv stadium 16'
p4334
sg4317
g4318
sg4319
g4320
sg4321
g4322
sg4323
g4324
sg4325
g4326
sg4327
g4328
sg4329
g4330
ssI845
(dp4335
g4313
g4332
sg4315
g4334
sg4317
g4318
sg4319
g4320
sg4321
g4322
sg4323
g4324
sg4325
g4326
sg4327
g4328
sg4329
g4330
ssI846
(dp4336
g4313
g4314
sg4315
S'regal lloyd'
p4337
sg4317
g4318
sg4319
g4320
sg4321
g4322
sg4323
g4324
sg4325
g4326
sg4327
g4328
sg4329
g4330
ssI847
(dp4338
S'date'
p4339
S'tomorrow'
p4340
sS'city'
p4341
S'seattle'
p4342
sS'theater'
p4343
S'amc lowes oak tree 6'
p4344
sS'moviename'
p4345
S'race'
p4346
sS'starttime'
p4347
S'4:50 pm'
p4348
ssI848
(dp4349
S'city'
p4350
S'seattle'
p4351
sS'theater'
p4352
S'amc pacific place 11 theater'
p4353
sS'theater_chain'
p4354
S'amc pacific place 11'
p4355
sS'starttime'
p4356
S'10:00 pm'
p4357
sS'date'
p4358
S'tomorrow'
p4359
sS'moviename'
p4360
S'race'
p4361
ssI849
(dp4362
S'date'
p4363
S'this weekend'
p4364
sS'other'
p4365
S'29 movies'
p4366
ssI850
(dp4367
S'date'
p4368
S'tomorrow'
p4369
sS'city'
p4370
S'seattle'
p4371
sS'theater'
p4372
S'regal meridian 16'
p4373
sS'moviename'
p4374
S'the witch'
p4375
sS'starttime'
p4376
S'9:30 pm'
p4377
ssI851
(dp4378
S'date'
p4379
S'tomorrow'
p4380
sS'city'
p4381
S'seattle'
p4382
sS'theater'
p4383
S'regal meridian 16'
p4384
sS'moviename'
p4385
S'the witch'
p4386
sS'starttime'
p4387
S'9:30 pm'
p4388
ssI852
(dp4389
S'city'
p4390
S'birmingham'
p4391
sS'theater'
p4392
S'carmike summit 16'
p4393
sS'state'
p4394
S'al'
p4395
sS'starttime'
p4396
S'2pm'
p4397
sS'date'
p4398
S'tomorrow'
p4399
sS'moviename'
p4400
S'deadpool'
p4401
ssI853
(dp4402
g4390
g4391
sg4392
g4393
sg4394
g4395
sg4396
S'2:20'
p4403
sg4398
g4399
sg4400
g4401
ssI854
(dp4404
S'city'
p4405
S'seattle'
p4406
sS'theater'
p4407
S'amc pacific place 11'
p4408
sS'zip'
p4409
S'98101'
p4410
sS'state'
p4411
S'wa'
p4412
sS'date'
p4413
S'21-mar'
p4414
sS'moviename'
p4415
S'deadpool'
p4416
ssI855
(dp4417
g4405
S'bellevue'
p4418
sg4407
g4408
sg4409
g4410
sg4411
g4412
sg4413
g4414
sg4415
g4416
ssI856
(dp4419
g4405
g4406
sg4407
S'bellevue lincoln square cinemas'
p4420
sg4409
g4410
sg4411
g4412
sg4413
g4414
sg4415
g4416
ssI857
(dp4421
g4405
g4418
sg4407
g4420
sg4409
g4410
sg4411
g4412
sg4413
g4414
sg4415
g4416
ssI858
(dp4422
g4405
g4406
sg4407
S'big picture seattle'
p4423
sg4409
g4410
sg4411
g4412
sg4413
g4414
sg4415
g4416
ssI859
(dp4424
S'city'
p4425
S'birmingham'
p4426
sS'theater'
p4427
S'carmike summit 16'
p4428
sS'state'
p4429
S'al'
p4430
sS'starttime'
p4431
S'around 2pm'
p4432
sS'date'
p4433
S'thursday'
p4434
sS'moviename'
p4435
S'deadpool'
p4436
ssI860
(dp4437
g4425
g4426
sg4427
S'carmike summit'
p4438
sg4429
g4430
sg4431
g4432
sg4433
g4434
sg4435
g4436
ssI861
(dp4439
g4425
g4426
sg4427
g4428
sg4429
g4430
sg4431
S'2:20'
p4440
sg4433
g4434
sg4435
g4436
ssI862
(dp4441
g4425
g4426
sg4427
g4438
sg4429
g4430
sg4431
g4440
sg4433
g4434
sg4435
g4436
ssI863
(dp4442
g4425
g4426
sg4427
g4428
sg4429
g4430
sg4431
S'2:20pm'
p4443
sg4433
g4434
sg4435
g4436
ssI864
(dp4444
S'date'
p4445
S'next friday'
p4446
sS'theater'
p4447
S'century rowland plaza'
p4448
sS'moviename'
p4449
S'eddie the eagle'
p4450
sS'starttime'
p4451
S'from 4pm to 7pm'
p4452
sS'zip'
p4453
S'94952'
p4454
ssI865
(dp4455
g4445
g4446
sg4447
g4448
sg4449
g4450
sg4451
S'4:20pm'
p4456
sg4453
g4454
ssI866
(dp4457
g4445
g4446
sg4447
g4448
sg4449
g4450
sg4451
S'6:55pm'
p4458
sg4453
g4454
ssI867
(dp4459
g4445
g4446
sg4447
g4448
sg4449
g4450
sg4451
S'4:20'
p4460
sg4453
g4454
ssI868
(dp4461
S'city'
p4462
S'whittier'
p4463
sS'theater'
p4464
S'whittier village stadium cinemas'
p4465
sS'zip'
p4466
S'90602'
p4467
sS'state'
p4468
S'ca'
p4469
sS'starttime'
p4470
S'between noon and 4pm'
p4471
sS'date'
p4472
S'next sunday'
p4473
sS'moviename'
p4474
S'london has fallen'
p4475
ssI869
(dp4476
g4462
g4463
sg4464
g4465
sg4466
g4467
sg4468
g4469
sg4470
S'1:30pm'
p4477
sg4472
g4473
sg4474
g4475
ssI870
(dp4478
g4462
g4463
sg4464
g4465
sg4466
g4467
sg4468
g4469
sg4470
g4471
sg4472
S'3/13'
p4479
sg4474
g4475
ssI871
(dp4480
g4462
g4463
sg4464
g4465
sg4466
g4467
sg4468
g4469
sg4470
g4477
sg4472
g4479
sg4474
g4475
ssI872
(dp4481
S'city'
p4482
S'lansing'
p4483
sS'theater'
p4484
S'ncg eastwood cinemas'
p4485
sS'genre'
p4486
S'comedy'
p4487
sS'state'
p4488
S'michigan'
p4489
sS'starttime'
p4490
S'6pm'
p4491
sS'date'
p4492
S'tomorrow'
p4493
sS'moviename'
p4494
S'zootopia'
p4495
ssI873
(dp4496
g4482
g4483
sg4484
S'regal cinemas'
p4497
sg4486
g4487
sg4488
g4489
sg4490
g4491
sg4492
g4493
sg4494
g4495
ssI874
(dp4498
g4482
g4483
sg4484
S'cinema lansing'
p4499
sg4486
g4487
sg4488
g4489
sg4490
g4491
sg4492
g4493
sg4494
g4495
ssI875
(dp4500
g4482
g4483
sg4484
g4485
sg4486
S'comedies'
p4501
sg4488
g4489
sg4490
g4491
sg4492
g4493
sg4494
g4495
ssI876
(dp4502
g4482
g4483
sg4484
g4497
sg4486
g4501
sg4488
g4489
sg4490
g4491
sg4492
g4493
sg4494
g4495
ssI877
(dp4503
S'distanceconstraints'
p4504
S'near the space needle'
p4505
sS'other'
p4506
S'I can bring my cat to'
p4507
sS'theater'
p4508
S'big picture'
p4509
ssI878
(dp4510
g4504
g4505
sg4506
S'I can order beer in'
p4511
sg4508
g4509
ssI879
(dp4512
g4504
g4505
sg4506
g4507
sg4508
S'cinerama'
p4513
ssI880
(dp4514
g4504
g4505
sg4506
g4511
sg4508
g4513
ssI881
(dp4515
g4504
g4505
sg4506
g4507
sg4508
S'central cinema'
p4516
ssI882
(dp4517
S'city'
p4518
S'seattle'
p4519
sS'theater'
p4520
S'amc elmwood palace 20'
p4521
sS'zip'
p4522
S'70070'
p4523
sS'date'
p4524
S'tomorrow'
p4525
sS'starttime'
p4526
S'5pm'
p4527
sS'genre'
p4528
S'funny'
p4529
sS'moviename'
p4530
S'zootopia'
p4531
ssI883
(dp4532
g4518
g4519
sg4520
g4521
sg4522
g4523
sg4524
g4525
sg4526
S'5:00 pm'
p4533
sg4528
g4529
sg4530
g4531
ssI884
(dp4534
g4518
g4519
sg4520
g4521
sg4522
g4523
sg4524
g4525
sg4526
g4527
sg4528
S'comedy'
p4535
sg4530
g4531
ssI885
(dp4536
g4518
g4519
sg4520
g4521
sg4522
g4523
sg4524
g4525
sg4526
g4533
sg4528
g4535
sg4530
g4531
ssI886
(dp4537
S'city'
p4538
S'bayou vista'
p4539
sS'theater'
p4540
S'fairview cinema'
p4541
sS'state'
p4542
S'la'
p4543
sS'starttime'
p4544
S'night'
p4545
sS'date'
p4546
S'this weekend'
p4547
sS'moviename'
p4548
S'deadpool'
p4549
ssI887
(dp4550
g4538
g4539
sg4540
g4541
sg4542
g4543
sg4544
S'anytime'
p4551
sg4546
g4547
sg4548
g4549
ssI888
(dp4552
g4538
g4539
sg4540
g4541
sg4542
g4543
sg4544
S'7pm'
p4553
sg4546
g4547
sg4548
g4549
ssI889
(dp4554
g4538
g4539
sg4540
g4541
sg4542
g4543
sg4544
g4545
sg4546
S'friday'
p4555
sg4548
g4549
ssI890
(dp4556
g4538
g4539
sg4540
g4541
sg4542
g4543
sg4544
g4551
sg4546
g4555
sg4548
g4549
ssI891
(dp4557
S'city'
p4558
S'manchester stadium 16'
p4559
sS'theater'
p4560
S'shields ave'
p4561
sS'state'
p4562
S'california'
p4563
sS'starttime'
p4564
S'once or twice every hour'
p4565
sS'date'
p4566
S'friday march 11'
p4567
sS'moviename'
p4568
S'zootopia'
p4569
ssI892
(dp4570
g4558
g4559
sg4560
S'maya fresno 16'
p4571
sg4562
g4563
sg4564
g4565
sg4566
g4567
sg4568
g4569
ssI893
(dp4572
g4558
g4559
sg4560
S'campus pointe dr'
p4573
sg4562
g4563
sg4564
g4565
sg4566
g4567
sg4568
g4569
ssI894
(dp4574
g4558
g4559
sg4560
g4561
sg4562
S'ca'
p4575
sg4564
g4565
sg4566
g4567
sg4568
g4569
ssI895
(dp4576
g4558
g4559
sg4560
g4571
sg4562
g4575
sg4564
g4565
sg4566
g4567
sg4568
g4569
ssI896
(dp4577
S'city'
p4578
S'seattle'
p4579
sS'theater'
p4580
S'pacific place 11'
p4581
sS'zip'
p4582
S'98101'
p4583
sS'critic_rating'
p4584
S'best'
p4585
sS'theater_chain'
p4586
S'amc'
p4587
sS'state'
p4588
S'washington'
p4589
sS'other'
p4590
S'date'
p4591
sS'starttime'
p4592
S'9'
sS'date'
p4593
S'tonight'
p4594
sS'genre'
p4595
S'romance'
p4596
sS'moviename'
p4597
S'how to be single'
p4598
ssI897
(dp4599
g4578
g4579
sg4580
g4581
sg4582
g4583
sg4584
S'top'
p4600
sg4586
g4587
sg4588
g4589
sg4590
g4591
sg4592
S'9'
sg4593
g4594
sg4595
g4596
sg4597
g4598
ssI898
(dp4601
g4578
g4579
sg4580
g4581
sg4582
g4583
sg4584
g4585
sg4586
g4587
sg4588
S'wa'
p4602
sg4590
g4591
sg4592
S'9'
sg4593
g4594
sg4595
g4596
sg4597
g4598
ssI899
(dp4603
g4578
g4579
sg4580
g4581
sg4582
g4583
sg4584
g4600
sg4586
g4587
sg4588
g4602
sg4590
g4591
sg4592
S'9'
sg4593
g4594
sg4595
g4596
sg4597
g4598
ssI900
(dp4604
g4578
g4579
sg4580
g4581
sg4582
g4583
sg4584
g4585
sg4586
g4587
sg4588
g4589
sg4590
S"don't know"
p4605
sg4592
S'9'
sg4593
g4594
sg4595
g4596
sg4597
g4598
ssI901
(dp4606
S'city'
p4607
S'portland'
p4608
sS'theater'
p4609
S'Regal Pioneer Place Stadium'
p4610
sS'state'
p4611
S'oregon'
p4612
sS'starttime'
p4613
S'10 pm#some time close to that'
p4614
sS'date'
p4615
S'thursday'
p4616
sS'moviename'
p4617
S'10 cloverfield lane'
p4618
ssI902
(dp4619
g4607
g4608
sg4609
S'Regal Lloyd Center 10'
p4620
sg4611
g4612
sg4613
g4614
sg4615
g4616
sg4617
g4618
ssI903
(dp4621
g4607
g4608
sg4609
S'Bagdad Theatre'
p4622
sg4611
g4612
sg4613
g4614
sg4615
g4616
sg4617
g4618
ssI904
(dp4623
g4607
g4608
sg4609
S'regal pioneer place stadium'
p4624
sg4611
g4612
sg4613
g4614
sg4615
g4616
sg4617
g4618
ssI905
(dp4625
g4607
g4608
sg4609
g4610
sg4611
g4612
sg4613
S'9:50pm'
p4626
sg4615
g4616
sg4617
g4618
ssI906
(dp4627
S'city'
p4628
S'houma'
p4629
sS'theater'
p4630
S'amc houma palace 10'
p4631
sS'genre'
p4632
S'foreign'
p4633
sS'state'
p4634
S'louisiana'
p4635
sS'starttime'
p4636
S'night'
p4637
sS'date'
p4638
S'this week'
p4639
sS'moviename'
p4640
S'Whiskey Tango Foxtrot'
p4641
ssI907
(dp4642
g4628
S'Houma'
p4643
sg4630
g4631
sg4632
g4633
sg4634
g4635
sg4636
g4637
sg4638
g4639
sg4640
g4641
ssI908
(dp4644
g4628
g4629
sg4630
g4631
sg4632
S'comedy'
p4645
sg4634
g4635
sg4636
g4637
sg4638
g4639
sg4640
g4641
ssI909
(dp4646
g4628
g4643
sg4630
g4631
sg4632
g4645
sg4634
g4635
sg4636
g4637
sg4638
g4639
sg4640
g4641
ssI910
(dp4647
g4628
g4629
sg4630
g4631
sg4632
S'adult comedy'
p4648
sg4634
g4635
sg4636
g4637
sg4638
g4639
sg4640
g4641
ssI911
(dp4649
S'city'
p4650
S'tulare'
p4651
sS'theater'
p4652
S'regal visalia stadium 10'
p4653
sS'state'
p4654
S'california'
p4655
sS'starttime'
p4656
S'11:20am'
p4657
sS'date'
p4658
S'this weekend'
p4659
sS'moviename'
p4660
S'10 cloverfield lane'
p4661
ssI912
(dp4662
g4650
g4651
sg4652
g4653
sg4654
g4655
sg4656
S'2:00pm'
p4663
sg4658
g4659
sg4660
g4661
ssI913
(dp4664
g4650
g4651
sg4652
g4653
sg4654
g4655
sg4656
S'4:40'
p4665
sg4658
g4659
sg4660
g4661
ssI914
(dp4666
g4650
g4651
sg4652
g4653
sg4654
g4655
sg4656
S'7:20'
p4667
sg4658
g4659
sg4660
g4661
ssI915
(dp4668
g4650
g4651
sg4652
g4653
sg4654
g4655
sg4656
S'10:05'
p4669
sg4658
g4659
sg4660
g4661
ssI916
(dp4670
S'city'
p4671
S'sparta'
p4672
sS'theater'
p4673
S"wehrenberg o'fallon 15 cine"
p4674
sS'zip'
p4675
S'62269'
p4676
sS'date'
p4677
S'tomorrow'
p4678
sS'state'
p4679
S'illinois'
p4680
sS'other'
p4681
S'closed'
p4682
sS'starttime'
p4683
S'afternoon'
p4684
sS'genre'
p4685
S'romantic comedies'
p4686
sS'moviename'
p4687
S'zoolander 2'
p4688
ssI917
(dp4689
g4671
S'shiloh'
p4690
sg4673
g4674
sg4675
g4676
sg4677
g4678
sg4679
g4680
sg4681
g4682
sg4683
g4684
sg4685
g4686
sg4687
g4688
ssI918
(dp4691
g4671
S'belleville'
p4692
sg4673
g4674
sg4675
g4676
sg4677
g4678
sg4679
g4680
sg4681
g4682
sg4683
g4684
sg4685
g4686
sg4687
g4688
ssI919
(dp4693
g4671
S"o'fallon"
p4694
sg4673
g4674
sg4675
g4676
sg4677
g4678
sg4679
g4680
sg4681
g4682
sg4683
g4684
sg4685
g4686
sg4687
g4688
ssI920
(dp4695
g4671
S'fairview heights'
p4696
sg4673
g4674
sg4675
g4676
sg4677
g4678
sg4679
g4680
sg4681
g4682
sg4683
g4684
sg4685
g4686
sg4687
g4688
ssI921
(dp4697
S'moviename'
p4698
S'deadpool'
p4699
sS'theater'
p4700
S'royal oak emagine theater'
p4701
sS'starttime'
p4702
S'between 8-10 pm'
p4703
ssI922
(dp4704
S'date'
p4705
S'tomorrow'
p4706
sS'city'
p4707
S'seattle'
p4708
sS'theater'
p4709
S'regal meridian 16'
p4710
sS'moviename'
p4711
S'zoolander 2'
p4712
sS'starttime'
p4713
S'9:25 pm'
p4714
ssI923
(dp4715
S'city'
p4716
S'seattle'
p4717
sS'theater'
p4718
S'Big Picture Sundance Cinemas'
p4719
sS'date'
p4720
S'today'
p4721
sS'other'
p4722
S'serve alcohol'
p4723
sS'starttime'
p4724
S'6pm'
p4725
sS'genre'
p4726
S'comedies'
p4727
sS'moviename'
p4728
S'deadpool'
p4729
ssI924
(dp4730
g4716
g4717
sg4718
S'Central Cinema'
p4731
sg4720
g4721
sg4722
g4723
sg4724
g4725
sg4726
g4727
sg4728
g4729
ssI925
(dp4732
g4716
g4717
sg4718
S'big picture'
p4733
sg4720
g4721
sg4722
g4723
sg4724
g4725
sg4726
g4727
sg4728
g4729
ssI926
(dp4734
g4716
g4717
sg4718
g4719
sg4720
g4721
sg4722
g4723
sg4724
S'8:30pm'
p4735
sg4726
g4727
sg4728
g4729
ssI927
(dp4736
g4716
g4717
sg4718
g4731
sg4720
g4721
sg4722
g4723
sg4724
g4735
sg4726
g4727
sg4728
g4729
ssI928
(dp4737
S'date'
p4738
S'tomorrow'
p4739
sS'city'
p4740
S'seattle'
p4741
sS'theater'
p4742
S'amc lowes oak tree 6'
p4743
sS'starttime'
p4744
S'4:50 pm'
p4745
ssI929
(dp4746
S'date'
p4747
S'3/10'
p4748
sS'moviename'
p4749
S'the other side of the door'
p4750
sS'theater'
p4751
S'southpoint casino'
p4752
sS'starttime'
p4753
S'12:05pm'
p4754
sS'city'
p4755
S'las vegas'
p4756
ssI930
(dp4757
g4747
g4748
sg4749
g4750
sg4751
g4752
sg4753
S'2:40pm'
p4758
sg4755
g4756
ssI931
(dp4759
g4747
g4748
sg4749
g4750
sg4751
g4752
sg4753
S'5:20pm'
p4760
sg4755
g4756
ssI932
(dp4761
g4747
g4748
sg4749
g4750
sg4751
g4752
sg4753
S'8:05pm'
p4762
sg4755
g4756
ssI933
(dp4763
g4747
g4748
sg4749
g4750
sg4751
g4752
sg4753
S'10:35pm'
p4764
sg4755
g4756
ssI934
(dp4765
S'genre'
p4766
S'scary'
p4767
sS'city'
p4768
S'chicago'
p4769
sS'state'
p4770
S'il'
p4771
sS'moviename'
p4772
S'the other side of the door'
p4773
ssI935
(dp4774
g4766
g4767
sg4768
g4769
sg4770
g4771
sg4772
S'the witch'
p4775
ssI936
(dp4776
S'city'
p4777
S'seattle'
p4778
sS'theater'
p4779
S'regal meridian 16'
p4780
sS'distanceconstraints'
p4781
S'north side'
p4782
sS'starttime'
p4783
S'around 6pm'
p4784
sS'date'
p4785
S'tomorrow'
p4786
sS'moviename'
p4787
S'zootopia'
p4788
ssI937
(dp4789
g4777
g4778
sg4779
S'regal thornton place'
p4790
sg4781
g4782
sg4783
g4784
sg4785
g4786
sg4787
g4788
ssI938
(dp4791
g4777
g4778
sg4779
g4780
sg4781
g4782
sg4783
S'5:20'
p4792
sg4785
g4786
sg4787
g4788
ssI939
(dp4793
g4777
g4778
sg4779
g4790
sg4781
g4782
sg4783
g4792
sg4785
g4786
sg4787
g4788
ssI940
(dp4794
g4777
g4778
sg4779
g4780
sg4781
g4782
sg4783
S'6:30 pm'
p4795
sg4785
g4786
sg4787
g4788
ssI941
(dp4796
S'city'
p4797
S'du Quoin'
p4798
sS'distanceconstraints'
p4799
S'general'
p4800
sS'moviename'
p4801
S'star wars'
p4802
sS'theater_chain'
p4803
S'amc showplace carbondale'
p4804
sS'state'
p4805
S'illinois'
p4806
sS'other'
p4807
S"I don't know"
p4808
sS'starttime'
p4809
S'after 6pm'
p4810
sS'date'
p4811
S'friday11th'
p4812
sS'genre'
p4813
S'thriller science fiction'
p4814
ssI942
(dp4815
g4797
S'carbondale'
p4816
sg4799
g4800
sg4801
g4802
sg4803
g4804
sg4805
g4806
sg4807
g4808
sg4809
g4810
sg4811
g4812
sg4813
g4814
ssI943
(dp4817
g4797
g4798
sg4799
S'vicinity'
p4818
sg4801
g4802
sg4803
g4804
sg4805
g4806
sg4807
g4808
sg4809
g4810
sg4811
g4812
sg4813
g4814
ssI944
(dp4819
g4797
g4816
sg4799
g4818
sg4801
g4802
sg4803
g4804
sg4805
g4806
sg4807
g4808
sg4809
g4810
sg4811
g4812
sg4813
g4814
ssI945
(dp4820
g4797
g4798
sg4799
g4800
sg4801
g4802
sg4803
g4804
sg4805
S'il'
p4821
sg4807
g4808
sg4809
g4810
sg4811
g4812
sg4813
g4814
ssI946
(dp4822
S'date'
p4823
S'Friday the 10th'
p4824
sS'city'
p4825
S'seattle'
p4826
sS'moviename'
p4827
S'gods egypt'
p4828
sS'theater'
p4829
S'cinemark lincoln square cinemas'
p4830
sS'starttime'
p4831
S'7:15pm'
p4832
ssI947
(dp4833
g4823
g4824
sg4825
g4826
sg4827
S'gods of egypt'
p4834
sg4829
g4830
sg4831
g4832
ssI948
(dp4835
g4823
g4824
sg4825
g4826
sg4827
g4828
sg4829
g4830
sg4831
S'7:15'
p4836
ssI949
(dp4837
g4823
g4824
sg4825
g4826
sg4827
g4834
sg4829
g4830
sg4831
g4836
ssI950
(dp4838
S'city'
p4839
S'seattle'
p4840
sS'theater'
p4841
S'regal meridian 16 theater'
p4842
sS'other'
p4843
S'name'
p4844
sS'starttime'
p4845
S'8:45 pm'
p4846
sS'date'
p4847
S'tomorrow'
p4848
sS'moviename'
p4849
S'hail caesar'
p4850
ssI951
(dp4851
S'date'
p4852
S'tomorrow'
p4853
sS'city'
p4854
S'seattle'
p4855
sS'moviename'
p4856
S'zootopia'
p4857
sS'starttime'
p4858
S'night'
p4859
ssI952
(dp4860
S'date'
p4861
S'tomorrow'
p4862
sS'city'
p4863
S'seattle'
p4864
sS'theater'
p4865
S'amc pacific place 11 theater'
p4866
sS'moviename'
p4867
S'race'
p4868
sS'starttime'
p4869
S'10:00 pm'
p4870
ssI953
(dp4871
S'date'
p4872
S'this saturday'
p4873
sS'theater'
p4874
S'amc river east 21'
p4875
sS'moviename'
p4876
S'zootopia'
p4877
sS'starttime'
p4878
S'night'
p4879
sS'video_format'
p4880
S'2d'
p4881
ssI954
(dp4882
g4872
S'tomorrow'
p4883
sg4874
g4875
sg4876
g4877
sg4878
g4879
sg4880
g4881
ssI955
(dp4884
g4872
g4873
sg4874
g4875
sg4876
g4877
sg4878
S'6pm'
p4885
sg4880
g4881
ssI956
(dp4886
g4872
g4883
sg4874
g4875
sg4876
g4877
sg4878
g4885
sg4880
g4881
ssI957
(dp4887
g4872
g4873
sg4874
g4875
sg4876
g4877
sg4878
S'9:01pm'
p4888
sg4880
g4881
ssI958
(dp4889
S'city'
p4890
S'seattle'
p4891
sS'theater'
p4892
S'amc pacific place 11 theater'
p4893
sS'theater_chain'
p4894
S'amc pacific place 11'
p4895
sS'starttime'
p4896
S'10:00 pm'
p4897
sS'date'
p4898
S'tomorrow'
p4899
sS'moviename'
p4900
S'race'
p4901
ssI959
(dp4902
S'city'
p4903
S'seattle'
p4904
sS'theater'
p4905
S'regal meridian 16'
p4906
sS'other'
p4907
S'indian restaurant'
p4908
sS'starttime'
p4909
S'9:20 pm'
p4910
sS'date'
p4911
S'tomorrow'
p4912
sS'moviename'
p4913
S'london has fallen'
p4914
ssI960
(dp4915
g4903
g4904
sg4905
g4906
sg4907
S'name'
p4916
sg4909
g4910
sg4911
g4912
sg4913
g4914
ssI961
(dp4917
S'city'
p4918
S'seattle'
p4919
sS'other'
p4920
S'restaurants'
p4921
ssI962
(dp4922
g4918
g4919
sg4920
S'book movie tickets'
p4923
ssI963
(dp4924
S'city'
p4925
S'miami'
p4926
sS'theater'
p4927
S'cinpolis coconut grove'
p4928
sS'zip'
p4929
S'33133'
p4930
sS'video_format'
p4931
S'IMAX'
p4932
sS'state'
p4933
S'fl'
p4934
sS'starttime'
p4935
S'around noon'
p4936
sS'date'
p4937
S'tomorrow'
p4938
sS'genre'
p4939
S'sci-fi'
p4940
sS'moviename'
p4941
S'gods of egypt'
p4942
ssI964
(dp4943
g4925
g4926
sg4927
S'COBB DOLPHIN 19 AND IMAX'
p4944
sg4929
g4930
sg4931
g4932
sg4933
g4934
sg4935
g4936
sg4937
g4938
sg4939
g4940
sg4941
g4942
ssI965
(dp4945
g4925
g4926
sg4927
S'cinepolis coconut grove'
p4946
sg4929
g4930
sg4931
g4932
sg4933
g4934
sg4935
g4936
sg4937
g4938
sg4939
g4940
sg4941
g4942
ssI966
(dp4947
g4925
g4926
sg4927
S'cinepolis'
p4948
sg4929
g4930
sg4931
g4932
sg4933
g4934
sg4935
g4936
sg4937
g4938
sg4939
g4940
sg4941
g4942
ssI967
(dp4949
g4925
g4926
sg4927
g4928
sg4929
S'33172'
p4950
sg4931
g4932
sg4933
g4934
sg4935
g4936
sg4937
g4938
sg4939
g4940
sg4941
g4942
ssI968
(dp4951
S'city'
p4952
S'seattle'
p4953
sS'theater'
p4954
S'amc southcenter 16'
p4955
sS'critic_rating'
p4956
S'number 1'
p4957
sS'theater_chain'
p4958
S'regency'
p4959
sS'starttime'
p4960
S'9:30 pm'
p4961
sS'date'
p4962
S'this weekend'
p4963
sS'genre'
p4964
S'action'
p4965
sS'moviename'
p4966
S'london has fallen'
p4967
ssI969
(dp4968
g4952
g4953
sg4954
g4955
sg4956
g4957
sg4958
S'amc'
p4969
sg4960
g4961
sg4962
g4963
sg4964
g4965
sg4966
g4967
ssI970
(dp4970
g4952
g4953
sg4954
g4955
sg4956
g4957
sg4958
g4959
sg4960
g4961
sg4962
S'any day this week'
p4971
sg4964
g4965
sg4966
g4967
ssI971
(dp4972
g4952
g4953
sg4954
g4955
sg4956
g4957
sg4958
g4969
sg4960
g4961
sg4962
g4971
sg4964
g4965
sg4966
g4967
ssI972
(dp4973
g4952
g4953
sg4954
g4955
sg4956
g4957
sg4958
g4959
sg4960
g4961
sg4962
S'wednesday'
p4974
sg4964
g4965
sg4966
g4967
ssI973
(dp4975
S'date'
p4976
S'tomorrow'
p4977
sS'city'
p4978
S'seattle'
p4979
sS'theater'
p4980
S'amc lowes oak tree 6'
p4981
sS'moviename'
p4982
S'hail caesar'
p4983
sS'starttime'
p4984
S'7:15 pm'
p4985
ssI974
(dp4986
S'date'
p4987
S'tomorrow'
p4988
sS'city'
p4989
S'seattle'
p4990
sS'theater'
p4991
S'amc lowes oak tree'
p4992
sS'moviename'
p4993
S'triple 9'
p4994
sS'starttime'
p4995
S'7:10 pm'
p4996
ssI975
(dp4997
S'city'
p4998
S'carbondale'
p4999
sS'theater'
p5000
S'amc showplace carbondale 8'
p5001
sS'distanceconstraints'
p5002
S'in your area'
p5003
sS'date'
p5004
S'tuesday'
p5005
sS'state'
p5006
S'illinois'
p5007
sS'other'
p5008
S'before dinner'
p5009
sS'starttime'
p5010
S'right now'
p5011
sS'genre'
p5012
S'thriller'
p5013
sS'moviename'
p5014
S'the witch'
p5015
ssI976
(dp5016
g4998
g4999
sg5000
g5001
sg5002
g5003
sg5004
S'Tuesday'
p5017
sg5006
g5007
sg5008
g5009
sg5010
g5011
sg5012
g5013
sg5014
g5015
ssI977
(dp5018
g4998
g4999
sg5000
g5001
sg5002
g5003
sg5004
g5005
sg5006
g5007
sg5008
g5009
sg5010
S'night'
p5019
sg5012
g5013
sg5014
g5015
ssI978
(dp5020
g4998
g4999
sg5000
g5001
sg5002
g5003
sg5004
g5017
sg5006
g5007
sg5008
g5009
sg5010
g5019
sg5012
g5013
sg5014
g5015
ssI979
(dp5021
g4998
g4999
sg5000
g5001
sg5002
g5003
sg5004
g5005
sg5006
g5007
sg5008
g5009
sg5010
S'anytime after 7pm'
p5022
sg5012
g5013
sg5014
g5015
ssI980
(dp5023
S'city'
p5024
S'seattle'
p5025
sS'theater'
p5026
S'regal meridian 16'
p5027
sS'zip'
p5028
S'98101'
p5029
sS'numberofkids'
p5030
S'two'
p5031
sS'theater_chain'
p5032
S'regal meridian'
p5033
sS'state'
p5034
S'wa'
p5035
sS'starttime'
p5036
S'6:30pm'
p5037
sS'date'
p5038
S'tonight'
p5039
sS'moviename'
p5040
S'zootopia'
p5041
ssI981
(dp5042
g5024
S'bellevue'
p5043
sg5026
g5027
sg5028
g5029
sg5030
g5031
sg5032
g5033
sg5034
g5035
sg5036
g5037
sg5038
g5039
sg5040
g5041
ssI982
(dp5044
g5024
g5025
sg5026
S'bellevue lincoln square cinemas'
p5045
sg5028
g5029
sg5030
g5031
sg5032
g5033
sg5034
g5035
sg5036
g5037
sg5038
g5039
sg5040
g5041
ssI983
(dp5046
g5024
g5043
sg5026
g5045
sg5028
g5029
sg5030
g5031
sg5032
g5033
sg5034
g5035
sg5036
g5037
sg5038
g5039
sg5040
g5041
ssI984
(dp5047
g5024
g5025
sg5026
S'regal meridian'
p5048
sg5028
g5029
sg5030
g5031
sg5032
g5033
sg5034
g5035
sg5036
g5037
sg5038
g5039
sg5040
g5041
ssI985
(dp5049
S'city'
p5050
S'las vegas'
p5051
sS'theater'
p5052
S'cCENTURY 16 SOUTH POINT AND XD'
p5053
sS'state'
p5054
S'nv'
p5055
sS'starttime'
p5056
S'11:10am'
p5057
sS'date'
p5058
S'tomrrow'
p5059
sS'moviename'
p5060
S'zootopia'
p5061
ssI986
(dp5062
g5050
g5051
sg5052
S'Las Vegas NV 89183'
p5063
sg5054
g5055
sg5056
g5057
sg5058
g5059
sg5060
g5061
ssI987
(dp5064
g5050
g5051
sg5052
S'Century 16 South Point'
p5065
sg5054
g5055
sg5056
g5057
sg5058
g5059
sg5060
g5061
ssI988
(dp5066
g5050
g5051
sg5052
g5053
sg5054
g5055
sg5056
S'1:55pm'
p5067
sg5058
g5059
sg5060
g5061
ssI989
(dp5068
g5050
g5051
sg5052
g5063
sg5054
g5055
sg5056
g5067
sg5058
g5059
sg5060
g5061
ssI990
(dp5069
S'date'
p5070
S'tomorrow'
p5071
sS'city'
p5072
S'seattle'
p5073
sS'theater'
p5074
S'amc pacific place 11 theater'
p5075
sS'moviename'
p5076
S'deadpool'
p5077
sS'starttime'
p5078
S'9:00 pm'
p5079
ss.