(lp1
(dp2
S'request_slots'
p3
(dp4
S'moviename'
p5
S'UNK'
p6
ssS'diaact'
p7
S'request'
p8
sS'inform_slots'
p9
(dp10
S'city'
p11
S'hamilton'
p12
sS'numberofpeople'
p13
S'2'
sS'theater'
p14
S'bridgewater'
p15
sS'critic_rating'
p16
S'good'
p17
sS'date'
p18
S'tomorrow'
p19
sS'state'
p20
S'nj'
p21
sS'starttime'
p22
S'9:30'
p23
sS'genre'
p24
S'comedy'
p25
ssa(dp26
g3
(dp27
S'theater'
p28
g6
sS'starttime'
p29
g6
ssg7
g8
sg9
(dp30
S'city'
p31
S'seattle'
p32
sS'numberofpeople'
p33
S'5'
sS'state'
p34
S'washington'
p35
sS'mpaa_rating'
p36
S'pg'
p37
sS'date'
p38
S'saturday'
p39
sS'moviename'
p40
S'kung fu panda 3'
p41
ssa(dp42
g3
(dp43
S'moviename'
p44
g6
ssg7
g8
sg9
(dp45
S'city'
p46
S'seattle'
p47
sS'numberofpeople'
p48
S'two'
p49
sS'theater'
p50
S'regal meridian'
p51
sS'numberofkids'
p52
S'two'
p53
sS'other'
p54
S'movie assistant number'
p55
sS'starttime'
p56
S'2:40'
p57
sS'date'
p58
S'tomorrow'
p59
sS'moviename'
p60
S'zootopia'
p61
ssa(dp62
g3
(dp63
S'ticket'
p64
g6
ssg7
g8
sg9
(dp65
S'city'
p66
S'birmingham'
p67
sS'numberofpeople'
p68
S'5'
sS'theater'
p69
S'carmike summit 16'
p70
sS'state'
p71
S'al'
p72
sS'starttime'
p73
S'1:30'
p74
sS'date'
p75
S'today'
p76
sS'moviename'
p77
S'zootopia'
p78
ssa(dp79
g3
(dp80
g64
g6
ssg7
g8
sg9
(dp81
S'city'
p82
S'san francisco'
p83
sS'numberofpeople'
p84
S'2'
sS'theater'
p85
S'century centre 9'
p86
sS'starttime'
p87
S'10pm'
p88
sS'date'
p89
S'tomorrow'
p90
sS'moviename'
p91
S'How to be single'
p92
ssa(dp93
g3
(dp94
S'ticket'
p95
g6
sS'moviename'
p96
g6
ssg7
g8
sg9
(dp97
S'city'
p98
S'seattle'
p99
sS'numberofpeople'
p100
S'three'
p101
sS'theater'
p102
S'regal meridian 16'
p103
sS'greeting'
p104
S'hey'
p105
sS'starttime'
p106
S'latest showing'
p107
sS'date'
p108
S'tonight'
p109
ssa(dp110
g3
(dp111
S'ticket'
p112
g6
ssg7
g8
sg9
(dp113
S'city'
p114
S'seattle'
p115
sS'numberofpeople'
p116
S'2'
sS'theater'
p117
S'amc pacific place 11'
p118
sS'starttime'
p119
S'9:00 pm'
p120
sS'date'
p121
S'tomorrow'
p122
sS'moviename'
p123
S'deadpool'
p124
ssa(dp125
g3
(dp126
g64
g6
ssg7
g8
sg9
(dp127
S'city'
p128
S'birmingham'
p129
sg68
S'2'
sS'theater'
p130
S'carmike summit 16'
p131
sS'state'
p132
S'al'
p133
sS'starttime'
p134
S'around 6pm'
p135
sS'date'
p136
S'today'
p137
sS'moviename'
p138
S'deadpool'
p139
ssa(dp140
g3
(dp141
g64
g6
ssg7
g8
sg9
(dp142
S'city'
p143
S'seattle'
p144
sS'numberofpeople'
p145
S'2'
sS'theater'
p146
S'regal meridian 16'
p147
sS'starttime'
p148
S'9:10 pm'
p149
sS'date'
p150
S'tomorrow'
p151
sS'moviename'
p152
S'zootopia'
p153
ssa(dp154
g3
(dp155
S'ticket'
p156
g6
ssg7
g8
sg9
(dp157
S'city'
p158
S'seattle'
p159
sS'numberofpeople'
p160
S'2'
sS'theater'
p161
S'regal meridian 16'
p162
sS'starttime'
p163
S'8:45 pm'
p164
sS'date'
p165
S'tomorrow'
p166
sS'moviename'
p167
S'hail caesar'
p168
ssa(dp169
g3
(dp170
g64
g6
sS'theater'
p171
g6
ssg7
g8
sg9
(dp172
S'city'
p173
S'portland'
p174
sS'numberofpeople'
p175
S'2'
sS'state'
p176
S'oregon'
p177
sS'starttime'
p178
S'10 pm'
p179
sS'date'
p180
S'friday'
p181
sS'moviename'
p182
S'star wars'
p183
ssa(dp184
g3
(dp185
S'moviename'
p186
g6
ssg7
g8
sg9
(dp187
S'city'
p188
S'birmingham'
p189
sS'numberofpeople'
p190
S'2'
sS'theater'
p191
S'carmike 16'
p192
sS'video_format'
p193
S'standard'
p194
sS'date'
p195
S'tomorrow'
p196
sS'state'
p197
S'al'
p198
sS'starttime'
p199
S'around 3 pm'
p200
sS'genre'
p201
S'kid'
p202
ssa(dp203
g3
(dp204
S'ticket'
p205
g6
ssg7
g8
sg9
(dp206
S'city'
p207
S'seattle'
p208
sS'numberofpeople'
p209
S'2'
sS'theater'
p210
S'amc pacific place 11 theater'
p211
sS'starttime'
p212
S'9:30 pm'
p213
sS'date'
p214
S'tomorrow'
p215
sS'moviename'
p216
S'room'
p217
ssa(dp218
g3
(dp219
S'ticket'
p220
g6
ssg7
g8
sg9
(dp221
g68
S'4'
sS'theater'
p222
S'river east 21'
p223
sS'video_format'
p224
S'2d'
p225
sS'greeting'
p226
S'hello'
p227
sS'date'
p228
S'tomorrow'
p229
sS'starttime'
p230
S'night'
p231
sS'theater_chain'
p232
S'amc'
p233
sS'moviename'
p234
S'zootopia'
p235
ssa(dp236
g3
(dp237
g64
g6
ssg7
g8
sg9
(dp238
S'city'
p239
S'seattle'
p240
sS'numberofpeople'
p241
S'2'
sS'theater'
p242
S'regal meridian 16'
p243
sS'starttime'
p244
S'9:30 pm'
p245
sS'date'
p246
S'tomorrow'
p247
sS'moviename'
p248
S'the witch'
p249
ssa(dp250
g3
(dp251
g64
g6
ssg7
g8
sg9
(dp252
S'city'
p253
S'royal oak'
p254
sS'numberofpeople'
p255
S'2'
sS'theater'
p256
S'emagine theater'
p257
sS'greeting'
p258
S'good morning'
p259
sS'state'
p260
S'mi'
p261
sS'starttime'
p262
S'7:15 pm'
p263
sS'date'
p264
S'3/11'
p265
sS'moviename'
p266
S'deadpool'
p267
ssa(dp268
g3
(dp269
S'date'
p270
g6
sg64
g6
sg171
g6
ssg7
g8
sg9
(dp271
S'city'
p272
S'detroit'
p273
sS'numberofpeople'
p274
S'two'
p275
sS'moviename'
p276
S'independce day'
p277
sS'greeting'
p278
S'hi'
p279
sS'starttime'
p280
S'7pm'
p281
ssa(dp282
g3
(dp283
S'moviename'
p284
g6
ssg7
g8
sg9
(dp285
S'city'
p286
S'des moines'
p287
sS'numberofpeople'
p288
S'4'
sS'theater'
p289
S'any'
p290
sS'state'
p291
S'iowa'
p292
sS'mpaa_rating'
p293
S'rated pg'
p294
sS'starttime'
p295
S'around 7pm'
p296
sS'date'
p297
S'tomorrow'
p298
ssa(dp299
g3
(dp300
S'moviename'
p301
g6
ssg7
g8
sg9
(dp302
S'city'
p303
S'johnstown'
p304
sS'numberofpeople'
p305
S'2'
sS'theater'
p306
S'cinemas'
p307
sS'video_format'
p308
S'standard'
p309
sS'state'
p310
S'pennsylvania'
p311
sS'starttime'
p312
S'12:45'
p313
sS'date'
p314
S'tomorrow afternoon'
p315
ssa(dp316
g3
(dp317
S'ticket'
p318
g6
ssg7
g8
sg9
(dp319
S'city'
p320
S'seattle'
p321
sS'numberofpeople'
p322
S'2'
sS'theater'
p323
S'regal meridian 16'
p324
sS'starttime'
p325
S'9:30 pm'
p326
sS'date'
p327
S'tomorrow'
p328
sS'moviename'
p329
S'the witch'
p330
ssa(dp331
g3
(dp332
g171
g6
sS'critic_rating'
p333
g6
sS'actor'
p334
g6
sg29
g6
sg270
g6
sS'moviename'
p335
g6
ssg7
g8
sg9
(dp336
S'genre'
p337
S'violence'
p338
sg68
S'1'
sS'greeting'
p339
S'hello'
p340
ssa(dp341
g3
(dp342
g171
g6
sS'moviename'
p343
g6
sS'starttime'
p344
g6
ssg7
g8
sg9
(dp345
S'date'
p346
S'friday march 11'
p347
sS'city'
p348
S'visalia'
p349
sS'state'
p350
S'california'
p351
sg68
S'1'
ssa(dp352
g3
(dp353
g270
g6
sg171
g6
sg64
g6
sS'moviename'
p354
g6
sg29
g6
ssg7
g8
sg9
(dp355
S'distanceconstraints'
p356
S'near the space needle'
p357
sg68
S'5'
sS'other'
p358
S'pub serves good burgers'
p359
ssa(dp360
g3
(dp361
S'theater'
p362
g6
sS'moviename'
p363
g6
ssg7
g8
sg9
(dp364
S'city'
p365
S'seattle'
p366
sg68
S'2'
sS'distanceconstraints'
p367
S'area'
p368
sS'other'
p369
S'serves seafood'
p370
sS'starttime'
p371
S'after 7:30pm'
p372
sS'date'
p373
S'friday'
p374
ssa(dp375
g3
(dp376
S'ticket'
p377
g6
sg171
g6
ssg7
g8
sg9
(dp378
S'date'
p379
S'saturday'
p380
sS'city'
p381
S'boston'
p382
sS'numberofpeople'
p383
S'3'
sS'moviename'
p384
S'deadpool'
p385
sS'starttime'
p386
S'8pm'
p387
ssa(dp388
g3
(dp389
g270
g6
sS'moviename'
p390
g6
sS'ticket'
p391
g6
sS'theater'
p392
g6
sS'starttime'
p393
g6
ssg7
g8
sg9
(dp394
S'city'
p395
S'bellevue'
p396
sg68
S'2'
sS'distanceconstraints'
p397
S'near 98119'
p398
sS'actor'
p399
S'ryan reynolds'
p400
sS'state'
p401
S'washington'
p402
sS'genre'
p403
S'superhero'
p404
ssa(dp405
g3
(dp406
S'theater'
p407
g6
sS'ticket'
p408
g6
sS'moviename'
p409
g6
ssg7
g8
sg9
(dp410
S'city'
p411
S'seattle'
p412
sg68
S'2'
sS'critic_rating'
p413
S'best'
p414
sS'date'
p415
S'tonight'
p416
sS'state'
p417
S'washington'
p418
sS'other'
p419
S'date'
p420
sS'starttime'
p421
S'between 9 and 10'
p422
sS'genre'
p423
S'romance'
p424
ssa(dp425
g3
(dp426
g171
g6
sS'ticket'
p427
g6
sS'moviename'
p428
g6
ssg7
g8
sg9
(dp429
S'city'
p430
S'carbondale'
p431
sS'numberofpeople'
p432
S'4'
sS'greeting'
p433
S'hi'
p434
sS'date'
p435
S'tuesday'
p436
sS'state'
p437
S'illinois'
p438
sS'other'
p439
S'scary'
p440
sS'starttime'
p441
S'before dinner'
p442
sS'genre'
p443
S'thriller'
p444
ssa(dp445
g3
(dp446
S'ticket'
p447
g6
ssg7
g8
sg9
(dp448
S'city'
p449
S'seattle'
p450
sS'numberofpeople'
p451
S'6'
sS'theater'
p452
S'amc lowes oak tree'
p453
sS'starttime'
p454
S'7:10 pm'
p455
sS'date'
p456
S'tomorrow'
p457
sS'moviename'
p458
S'triple 9'
p459
ssa(dp460
g3
(dp461
S'ticket'
p462
g6
ssg7
g8
sg9
(dp463
S'city'
p464
S'seattle'
p465
sS'numberofpeople'
p466
S'2'
sS'theater'
p467
S'regal meridian 16'
p468
sS'starttime'
p469
S'9:10 pm'
p470
sS'date'
p471
S'tomorrow'
p472
sS'moviename'
p473
S'zootopia'
p474
ssa(dp475
g3
(dp476
g270
g6
sg64
g6
ssg7
g8
sg9
(dp477
S'moviename'
p478
S'deadpool'
p479
sS'numberofpeople'
p480
S'2'
sS'theater'
p481
S'royal oak emagine theater'
p482
sS'greeting'
p483
S'there'
p484
sS'starttime'
p485
S'betwenn 8-10 pm'
p486
ssa(dp487
g3
(dp488
g64
g6
ssg7
g8
sg9
(dp489
S'city'
p490
S'birmingham'
p491
sS'numberofpeople'
p492
S'2'
sS'theater'
p493
S'carmike summit 16'
p494
sS'state'
p495
S'al'
p496
sS'starttime'
p497
S'4 pm'
p498
sS'date'
p499
S'today'
p500
sS'moviename'
p501
S'deadpool'
p502
ssa(dp503
g3
(dp504
g270
g6
sg64
g6
ssg7
g8
sg9
(dp505
S'city'
p506
S'los angeles'
p507
sS'numberofpeople'
p508
S'1'
sS'moviename'
p509
S'The Witch'
p510
sS'theater'
p511
S'Regal LA LIVE Stadium 14'
p512
sS'starttime'
p513
S'11pm'
p514
ssa(dp515
g3
(dp516
S'ticket'
p517
g6
ssg7
g8
sg9
(dp518
S'city'
p519
S'seattle'
p520
sS'numberofpeople'
p521
S'2'
sS'theater'
p522
S'regal meridian 16'
p523
sS'starttime'
p524
S'8:45 pm'
p525
sS'date'
p526
S'tomorrow'
p527
sS'moviename'
p528
S'the big short'
p529
ssa(dp530
g3
(dp531
g270
g6
sg354
g6
sS'theater'
p532
g6
sg29
g6
ssg7
g8
sg9
(dp533
S'distanceconstraints'
p534
S'space needle'
p535
sg68
S'3'
sS'other'
p536
S'beer'
p537
ssa(dp538
g3
(dp539
S'ticket'
p540
g6
ssg7
g8
sg9
(dp541
S'city'
p542
S'seattle'
p543
sS'numberofpeople'
p544
S'2'
sS'theater'
p545
S'regal meridian 16'
p546
sS'starttime'
p547
S'8:45 pm'
p548
sS'date'
p549
S'tomorrow'
p550
sS'moviename'
p551
S'the big short'
p552
ssa(dp553
g3
(dp554
g171
g6
sS'ticket'
p555
g6
sS'moviename'
p556
g6
ssg7
g8
sg9
(dp557
S'city'
p558
S'detroit'
p559
sS'numberofpeople'
p560
S'3'
sS'greeting'
p561
S'hi'
p562
sS'date'
p563
S'tonight'
p564
sS'mpaa_rating'
p565
S'pg13'
p566
sS'starttime'
p567
S'around 7pm'
p568
sS'genre'
p569
S'action'
p570
ssa(dp571
g3
(dp572
S'ticket'
p573
g6
ssg7
g8
sg9
(dp574
S'city'
p575
S'seattle'
p576
sS'numberofpeople'
p577
S'2'
sS'theater'
p578
S'regal meridian 16'
p579
sS'starttime'
p580
S'9:10 pm'
p581
sS'date'
p582
S'tomorrow'
p583
sS'moviename'
p584
S'zootopia'
p585
ssa(dp586
g3
(dp587
g64
g6
sg171
g6
ssg7
g8
sg9
(dp588
S'city'
p589
S'stony brook'
p590
sS'numberofpeople'
p591
S'3'
sS'numberofkids'
p592
S'1'
sS'state'
p593
S'ny'
p594
sS'starttime'
p595
S'1:45pm'
p596
sS'date'
p597
S'saturday'
p598
sS'moviename'
p599
S' Young Messiah'
p600
ssa(dp601
g3
(dp602
S'ticket'
p603
g6
sg171
g6
ssg7
g8
sg9
(dp604
S'date'
p605
S'next friday'
p606
sS'numberofpeople'
p607
S'4'
sS'moviename'
p608
S'eddie the eagle'
p609
sS'starttime'
p610
S'4:20'
p611
sS'zip'
p612
S'94952'
p613
ssa(dp614
g3
(dp615
S'starttime'
p616
g6
ssg7
g8
sg9
(dp617
S'date'
p618
S'tomorrow'
p619
sS'moviename'
p620
S'risen'
p621
sS'numberofpeople'
p622
S'two'
p623
sS'theater'
p624
S'regency commerce 14'
p625
ssa(dp626
g3
(dp627
S'ticket'
p628
g6
ssg7
g8
sg9
(dp629
S'city'
p630
S'seattle'
p631
sS'numberofpeople'
p632
S'2'
sS'theater'
p633
S'regal meridian 16'
p634
sS'starttime'
p635
S'9:25 pm'
p636
sS'date'
p637
S'tomorrow'
p638
sS'moviename'
p639
S'zoolander 2'
p640
ssa(dp641
g3
(dp642
S'ticket'
p643
g6
ssg7
g8
sg9
(dp644
S'city'
p645
S'seattle'
p646
sS'numberofpeople'
p647
S'2'
sS'theater'
p648
S'amc pacific place 11 theater'
p649
sS'starttime'
p650
S'9:00 pm'
p651
sS'date'
p652
S'tomorrow'
p653
sS'moviename'
p654
S'deadpool'
p655
ssa(dp656
g3
(dp657
g64
g6
sg171
g6
ssg7
g8
sg9
(dp658
S'city'
p659
S'seattle'
p660
sS'numberofpeople'
p661
S'2'
sS'distanceconstraints'
p662
S'east side'
p663
sS'starttime'
p664
S'around 2pm'
p665
sS'date'
p666
S'saturday'
p667
sS'moviename'
p668
S'zootopia'
p669
ssa(dp670
g3
(dp671
S'ticket'
p672
g6
ssg7
g8
sg9
(dp673
S'city'
p674
S'seattle'
p675
sS'numberofpeople'
p676
S'2'
sS'theater'
p677
S'regal meridian 16'
p678
sS'starttime'
p679
S'9:30 pm'
p680
sS'date'
p681
S'tomorrow'
p682
sS'moviename'
p683
S'the witch'
p684
ssa(dp685
g3
(dp686
g64
g6
sg171
g6
ssg7
g8
sg9
(dp687
S'city'
p688
S'tampa'
p689
sS'numberofpeople'
p690
S'4'
sS'video_format'
p691
S'standard'
p692
sS'state'
p693
S'fl'
p694
sS'starttime'
p695
S'3:30'
p696
sS'date'
p697
S'saturday'
p698
sS'moviename'
p699
S'zootopia'
p700
ssa(dp701
g3
(dp702
g171
g6
sS'moviename'
p703
g6
sg29
g6
ssg7
g8
sg9
(dp704
S'city'
p705
S'seattle'
p706
sg68
S'3'
sS'distanceconstraints'
p707
S'downtown'
p708
sS'critic_rating'
p709
S'best'
p710
sS'greeting'
p711
S'hi'
p712
sS'other'
p713
S'restaurant'
p714
sS'date'
p715
S'weekend'
p716
ssa(dp717
g3
(dp718
S'moviename'
p719
g6
ssg7
g8
sg9
(dp720
S'city'
p721
S'birmingham'
p722
sS'numberofpeople'
p723
S'3'
sS'theater'
p724
S'carmike summit 16'
p725
sS'date'
p726
S'saturday'
p727
sS'state'
p728
S'al'
p729
sS'starttime'
p730
S'2:15pm'
p731
sS'genre'
p732
S'family friendly'
p733
ssa(dp734
g3
(dp735
g270
g6
sS'theater'
p736
g6
sS'ticket'
p737
g6
sS'moviename'
p738
g6
sg29
g6
ssg7
g8
sg9
(dp739
S'genre'
p740
S'drama'
p741
sS'city'
p742
S'seattle'
p743
sg68
S'1'
sS'greeting'
p744
S'hello'
p745
ssa(dp746
g3
(dp747
S'date'
p748
g6
sg171
g6
sg29
g6
ssg7
g8
sg9
(dp749
g68
S'1'
sS'moviename'
p750
S'Finding Dory'
p751
sS'description'
p752
S'is still playing in theaters'
p753
ssa(dp754
g3
(dp755
S'ticket'
p756
g6
sg171
g6
ssg7
g8
sg9
(dp757
S'numberofpeople'
p758
S'two'
p759
sS'distanceconstraints'
p760
S'close to 95833'
p761
sS'video_format'
p762
S'3d'
p763
sS'starttime'
p764
S'2:15pm'
p765
sS'date'
p766
S'tomorrow'
p767
sS'moviename'
p768
S'zoology'
p769
ssa(dp770
g3
(dp771
g64
g6
sg171
g6
ssg7
g8
sg9
(dp772
S'city'
p773
S'seattle'
p774
sS'numberofpeople'
p775
S'9'
sS'greeting'
p776
S'hey'
p777
sS'starttime'
p778
S'10pm'
p779
sS'date'
p780
S'tonight'
p781
sS'moviename'
p782
S'deadpool'
p783
ssa(dp784
g3
(dp785
g270
g6
sg64
g6
sg171
g6
sg29
g6
ssg7
g8
sg9
(dp786
g68
S'1'
sS'other'
p787
S'mexican restaurant'
p788
sS'moviename'
p789
S'batman'
p790
sS'greeting'
p791
S'hi'
p792
ssa(dp793
g3
(dp794
g64
g6
ssg7
g8
sg9
(dp795
S'city'
p796
S'seattle'
p797
sS'numberofpeople'
p798
S'2'
sS'theater'
p799
S'amc lowes oak tree 6'
p800
sS'starttime'
p801
S'4:50 pm'
p802
sS'date'
p803
S'tomorrow'
p804
sS'moviename'
p805
S'race'
p806
ssa(dp807
g3
(dp808
g171
g6
sS'starttime'
p809
g6
ssg7
g8
sg9
(dp810
S'date'
p811
S'tomorrow'
p812
sS'city'
p813
S'hamilton'
p814
sS'state'
p815
S'nj'
p816
sS'numberofpeople'
p817
S'2'
sS'moviename'
p818
S'deadpool'
p819
ssa(dp820
g3
(dp821
S'ticket'
p822
g6
ssg7
g8
sg9
(dp823
S'city'
p824
S'seattle'
p825
sS'numberofpeople'
p826
S'2'
sS'theater'
p827
S'amc lowes oak tree 6'
p828
sS'starttime'
p829
S'7:15 pm'
p830
sS'date'
p831
S'tomorrow'
p832
sS'moviename'
p833
S'hail caesar'
p834
ssa(dp835
g3
(dp836
g64
g6
sg171
g6
ssg7
g8
sg9
(dp837
S'city'
p838
S'birmingham'
p839
sS'numberofpeople'
p840
S'2'
sS'video_format'
p841
S'standard'
p842
sS'state'
p843
S'al'
p844
sS'starttime'
p845
S'around 4pm'
p846
sS'date'
p847
S'today'
p848
sS'moviename'
p849
S'zootopia'
p850
ssa(dp851
g3
(dp852
S'theater'
p853
g6
ssg7
g8
sg9
(dp854
S'city'
p855
S'seattle'
p856
sS'numberofpeople'
p857
S'2'
sS'numberofkids'
p858
S'no'
p859
sS'video_format'
p860
S'3d'
p861
sS'state'
p862
S'wa'
p863
sS'starttime'
p864
S'8'
sS'date'
p865
S'tomorrow'
p866
sS'moviename'
p867
S'zootopia'
p868
ssa(dp869
g3
(dp870
g171
g6
sS'moviename'
p871
g6
ssg7
g8
sg9
(dp872
S'city'
p873
S'seattle'
p874
sS'numberofpeople'
p875
S'2'
sS'zip'
p876
S'70070'
p877
sS'date'
p878
S'tomorrow'
p879
sS'starttime'
p880
S'5pm'
p881
sS'genre'
p882
S'funny'
p883
ssa(dp884
g3
(dp885
S'ticket'
p886
g6
sg171
g6
ssg7
g8
sg9
(dp887
S'city'
p888
S'nashville'
p889
sS'numberofpeople'
p890
S'2'
sS'state'
p891
S'tn'
p892
sS'starttime'
p893
S'around 8 pm'
p894
sS'date'
p895
S'tomorrow evening'
p896
sS'moviename'
p897
S'revenant'
p898
ssa(dp899
g3
(dp900
g171
g6
sS'ticket'
p901
g6
sg354
g6
ssg7
g8
sg9
(dp902
S'city'
p903
S'seattle'
p904
sS'numberofpeople'
p905
S'2'
sS'date'
p906
S'tomorrow'
p907
sS'other'
p908
S'best restaurant'
p909
sS'starttime'
p910
S'7:00 pm'
p911
sS'theater_chain'
p912
S'amc pacific place 11'
p913
ssa(dp914
g3
(dp915
g171
g6
sS'moviename'
p916
g6
ssg7
g8
sg9
(dp917
S'city'
p918
S'st louis'
p919
sS'numberofpeople'
p920
S'2'
sS'numberofkids'
p921
S'2'
sS'date'
p922
S'thursday'
p923
sS'starttime'
p924
S'130pm'
p925
sS'genre'
p926
S'kids'
p927
ssa(dp928
g3
(dp929
g171
g6
sS'moviename'
p930
g6
ssg7
g8
sg9
(dp931
g68
S'4'
sS'zip'
p932
S'90601'
p933
sS'distanceconstraints'
p934
S'closest'
p935
sS'date'
p936
S'next saturday'
p937
sS'starttime'
p938
S'closest to noon'
p939
sS'genre'
p940
S'action'
p941
ssa(dp942
g3
(dp943
S'ticket'
p944
g6
ssg7
g8
sg9
(dp945
S'city'
p946
S'seattle'
p947
sS'numberofpeople'
p948
S'2'
sS'theater'
p949
S'regal meridian 16'
p950
sS'starttime'
p951
S'9:25 pm'
p952
sS'date'
p953
S'tomorrow'
p954
sS'moviename'
p955
S'zoolander 2'
p956
ssa(dp957
g3
(dp958
S'ticket'
p959
g6
sS'theater'
p960
g6
ssg7
g8
sg9
(dp961
S'city'
p962
S'southeast portland'
p963
sS'numberofpeople'
p964
S'4'
sS'state'
p965
S'oregon'
p966
sS'other'
p967
S'little late'
p968
sS'starttime'
p969
S'anytime after 7pm'
p970
sS'date'
p971
S'Tuesday the 8th'
p972
sS'moviename'
p973
S'star wars the force awakens'
p974
ssa(dp975
g3
(dp976
S'ticket'
p977
g6
sS'theater'
p978
g6
ssg7
g8
sg9
(dp979
S'city'
p980
S'seattle'
p981
sS'numberofpeople'
p982
S'4'
sS'state'
p983
S'wa'
p984
sS'starttime'
p985
S'10:20'
p986
sS'date'
p987
S'tonight'
p988
sS'moviename'
p989
S'zootopia'
p990
ssa(dp991
g3
(dp992
g64
g6
sg171
g6
ssg7
g8
sg9
(dp993
S'city'
p994
S'seattle'
p995
sS'numberofpeople'
p996
S'9'
sS'greeting'
p997
S'hey'
p998
sS'starttime'
p999
S'10pm'
p1000
sS'date'
p1001
S'tonight'
p1002
sS'moviename'
p1003
S'deadpool'
p1004
ssa(dp1005
g3
(dp1006
g270
g6
sg171
g6
sg64
g6
sg354
g6
sg29
g6
ssg7
g8
sg9
(dp1007
S'distanceconstraints'
p1008
S'near space needle'
p1009
sg68
S'5'
sS'other'
p1010
S'pub'
p1011
ssa(dp1012
g3
(dp1013
S'ticket'
p1014
g6
ssg7
g8
sg9
(dp1015
S'city'
p1016
S'birmingham'
p1017
sg68
S'5'
sS'theater'
p1018
S'carmike summit 16'
p1019
sS'state'
p1020
S'al'
p1021
sS'starttime'
p1022
S'2pm'
p1023
sS'date'
p1024
S'saturday'
p1025
sS'moviename'
p1026
S'deadpool'
p1027
ssa(dp1028
g3
(dp1029
g171
g6
sS'moviename'
p1030
g6
sg29
g6
ssg7
g8
sg9
(dp1031
S'city'
p1032
S'seattle'
p1033
sg68
S'5'
sS'distanceconstraints'
p1034
S'downtown'
p1035
sS'critic_rating'
p1036
S'good'
p1037
sS'greeting'
p1038
S'hi'
p1039
sS'other'
p1040
S'restaurant'
p1041
sS'mpaa_rating'
p1042
S'best'
p1043
sS'date'
p1044
S'this weekend'
p1045
ssa(dp1046
g3
(dp1047
S'ticket'
p1048
g6
ssg7
g8
sg9
(dp1049
S'city'
p1050
S'miami'
p1051
sS'numberofpeople'
p1052
S'3'
sS'theater'
p1053
S'cobb dolphin cinemas'
p1054
sS'distanceconstraints'
p1055
S'south beach'
p1056
sS'state'
p1057
S'florida'
p1058
sS'starttime'
p1059
S'9:05'
p1060
sS'date'
p1061
S'tonight'
p1062
sS'moviename'
p1063
S'whiskey tango foxtrot'
p1064
ssa(dp1065
g3
(dp1066
g171
g6
sS'moviename'
p1067
g6
ssg7
g8
sg9
(dp1068
S'theater_chain'
p1069
S'amc'
p1070
sg68
S'3'
sS'city'
p1071
S'seattle'
p1072
sS'date'
p1073
S'this week'
p1074
sS'starttime'
p1075
S'9:30 pm'
p1076
sS'genre'
p1077
S'action'
p1078
ssa(dp1079
g3
(dp1080
g270
g6
sg171
g6
sS'moviename'
p1081
g6
sg29
g6
ssg7
g8
sg9
(dp1082
S'genre'
p1083
S'scary'
p1084
sS'city'
p1085
S'chicago'
p1086
sS'state'
p1087
S'il'
p1088
sg68
S'1'
sS'greeting'
p1089
S'hi'
p1090
ssa(dp1091
g3
(dp1092
g171
g6
sS'moviename'
p1093
g6
ssg7
g8
sg9
(dp1094
S'city'
p1095
S'nyc'
p1096
sg68
S'4'
sS'zip'
p1097
S'10035'
p1098
sS'date'
p1099
S'today'
p1100
sS'starttime'
p1101
S'7:00pm'
p1102
sS'genre'
p1103
S'horror'
p1104
ssa(dp1105
g3
(dp1106
S'ticket'
p1107
g6
ssg7
g8
sg9
(dp1108
S'city'
p1109
S'sacramento'
p1110
sS'numberofpeople'
p1111
S'two'
p1112
sS'theater'
p1113
S'Natomas Marketplace Stadium'
p1114
sS'starttime'
p1115
S'5:25pm'
p1116
sS'date'
p1117
S'tomorrow'
p1118
sS'moviename'
p1119
S'gods of egypt'
p1120
ssa(dp1121
g3
(dp1122
S'moviename'
p1123
g6
ssg7
g8
sg9
(dp1124
S'city'
p1125
S'pittsburgh'
p1126
sS'numberofpeople'
p1127
S'two'
p1128
sS'theater'
p1129
S'richland cinemas'
p1130
sS'critic_rating'
p1131
S'good'
p1132
sS'genre'
p1133
S'showing'
p1134
sS'state'
p1135
S'pa'
p1136
sS'starttime'
p1137
S'night'
p1138
sS'date'
p1139
S'3/9/2016'
p1140
ssa(dp1141
g3
(dp1142
g171
g6
sS'moviename'
p1143
g6
ssg7
g8
sg9
(dp1144
S'city'
p1145
S'south barrington'
p1146
sS'numberofpeople'
p1147
S'2'
sS'distanceconstraints'
p1148
S'south barrington'
p1149
sS'greeting'
p1150
S'hello'
p1151
sS'date'
p1152
S'march 12th'
p1153
sS'state'
p1154
S'il'
p1155
sS'starttime'
p1156
S'9pm'
p1157
sS'genre'
p1158
S'horror'
p1159
sS'moviename'
p1160
S'the witch'
p1161
ssa(dp1162
g3
(dp1163
S'ticket'
p1164
g6
ssg7
g8
sg9
(dp1165
S'city'
p1166
S'los angeles'
p1167
sS'numberofpeople'
p1168
S'3'
sS'theater'
p1169
S'regal la stadium 14'
p1170
sS'starttime'
p1171
S'12:45pm'
p1172
sS'date'
p1173
S'tomorrow'
p1174
sS'moviename'
p1175
S'10 cloverfield lane'
p1176
ssa(dp1177
g3
(dp1178
S'ticket'
p1179
g6
sS'theater'
p1180
g6
ssg7
g8
sg9
(dp1181
S'city'
p1182
S'seattle'
p1183
sS'numberofpeople'
p1184
S'2'
sS'distanceconstraints'
p1185
S'near me'
p1186
sS'critic_rating'
p1187
S'good'
p1188
sS'video_format'
p1189
S'3d'
p1190
sS'state'
p1191
S'wa'
p1192
sS'other'
p1193
S'restaurant'
p1194
sS'starttime'
p1195
S'7:30'
p1196
sS'date'
p1197
S'tomorrow'
p1198
sS'moviename'
p1199
S'zootopia'
p1200
ssa(dp1201
g3
(dp1202
S'theater'
p1203
g6
ssg7
g8
sg9
(dp1204
S'city'
p1205
S'seattle'
p1206
sS'numberofpeople'
p1207
S'2'
sS'distanceconstraints'
p1208
S'south side'
p1209
sS'video_format'
p1210
S'imax 3d'
p1211
sS'state'
p1212
S'wa'
p1213
sS'starttime'
p1214
S'7:30'
p1215
sS'date'
p1216
S'this evening'
p1217
sS'moviename'
p1218
S'zootopia'
p1219
ssa(dp1220
g3
(dp1221
S'starttime'
p1222
g6
ssg7
g8
sg9
(dp1223
S'date'
p1224
S'tonight'
p1225
sS'city'
p1226
S'dallas'
p1227
sS'numberofpeople'
p1228
S'two'
p1229
sS'theater'
p1230
S'alamo draft house'
p1231
sS'moviename'
p1232
S'deadpool'
p1233
ssa(dp1234
g3
(dp1235
g64
g6
sg171
g6
sg29
g6
ssg7
g8
sg9
(dp1236
S'date'
p1237
S'tonight'
p1238
sS'city'
p1239
S'st louis park'
p1240
sS'state'
p1241
S'mn'
p1242
sg68
S'4'
sS'moviename'
p1243
S'deadpool'
p1244
ssa(dp1245
g3
(dp1246
S'ticket'
p1247
g6
ssg7
g8
sg9
(dp1248
S'city'
p1249
S'seattle'
p1250
sS'numberofpeople'
p1251
S'2'
sS'theater'
p1252
S'regal meridian 16'
p1253
sS'starttime'
p1254
S'9:25 pm'
p1255
sS'date'
p1256
S'tomorrow'
p1257
sS'moviename'
p1258
S'zoolander 2'
p1259
ssa(dp1260
g3
(dp1261
S'starttime'
p1262
g6
ssg7
g8
sg9
(dp1263
S'date'
p1264
S'tomorrow'
p1265
sS'moviename'
p1266
S'risen'
p1267
sS'numberofpeople'
p1268
S'two'
p1269
sS'theater'
p1270
S'regency commerce 14'
p1271
ssa(dp1272
g3
(dp1273
g270
g6
sg354
g6
sS'theater'
p1274
g6
sg29
g6
ssg7
g8
sg9
(dp1275
g68
S'5'
sS'other'
p1276
S'look up date'
p1277
ssa(dp1278
g3
(dp1279
g64
g6
ssg7
g8
sg9
(dp1280
S'city'
p1281
S'portland'
p1282
sS'numberofpeople'
p1283
S'2'
sS'theater'
p1284
S'regal lloyd center 10'
p1285
sS'state'
p1286
S'oregon'
p1287
sS'starttime'
p1288
S'6:25'
p1289
sS'date'
p1290
S'this friday'
p1291
sS'moviename'
p1292
S'star wars'
p1293
ssa(dp1294
g3
(dp1295
g64
g6
ssg7
g8
sg9
(dp1296
S'city'
p1297
S'portland'
p1298
sS'numberofpeople'
p1299
S'4'
sS'theater'
p1300
S'regal pioneer place'
p1301
sS'video_format'
p1302
S'standard'
p1303
sS'state'
p1304
S'oregon'
p1305
sS'starttime'
p1306
S'after 5 pm'
p1307
sS'date'
p1308
S'friday'
p1309
sS'moviename'
p1310
S'zootopia'
p1311
ssa(dp1312
g3
(dp1313
S'critic_rating'
p1314
g6
sS'ticket'
p1315
g6
sS'moviename'
p1316
g6
ssg7
g8
sg9
(dp1317
S'city'
p1318
S'seattle'
p1319
sS'numberofpeople'
p1320
S'two'
p1321
sS'theater'
p1322
S'regal meridian 16'
p1323
sS'greeting'
p1324
S'hello'
p1325
sS'starttime'
p1326
S'9:20'
p1327
sS'date'
p1328
S'tonight'
p1329
ssa(dp1330
g3
(dp1331
S'ticket'
p1332
g6
sg171
g6
sg29
g6
ssg7
g8
sg9
(dp1333
S'date'
p1334
S'tonight'
p1335
sS'city'
p1336
S'seattle'
p1337
sS'numberofpeople'
p1338
S'2'
sS'moviename'
p1339
S'zootopia'
p1340
sS'other'
p1341
S'Master User'
p1342
ssa(dp1343
g3
(dp1344
g64
g6
ssg7
g8
sg9
(dp1345
S'city'
p1346
S'portland'
p1347
sS'numberofpeople'
p1348
S'2 adult'
p1349
sS'theater'
p1350
S'century 16 EASTPORT PLAZA'
p1351
sS'state'
p1352
S'oregon'
p1353
sS'starttime'
p1354
S'10 pm'
p1355
sS'date'
p1356
S'friday'
p1357
sS'moviename'
p1358
S'star wars'
p1359
ssa(dp1360
g3
(dp1361
S'ticket'
p1362
g6
ssg7
g8
sg9
(dp1363
S'city'
p1364
S'seattle'
p1365
sS'numberofpeople'
p1366
S'2'
sS'theater'
p1367
S'regal meridian 16'
p1368
sS'starttime'
p1369
S'9:10 pm'
p1370
sS'date'
p1371
S'tomorrow'
p1372
sS'moviename'
p1373
S'zootopia'
p1374
ssa(dp1375
g3
(dp1376
S'ticket'
p1377
g6
sg171
g6
sg29
g6
ssg7
g8
sg9
(dp1378
S'date'
p1379
S'tonight'
p1380
sS'city'
p1381
S'seattle'
p1382
sS'numberofpeople'
p1383
S'2'
sS'moviename'
p1384
S'zootopia'
p1385
sS'other'
p1386
S'master user'
p1387
ssa(dp1388
g3
(dp1389
S'ticket'
p1390
g6
ssg7
g8
sg9
(dp1391
S'city'
p1392
S'seattle'
p1393
sS'numberofpeople'
p1394
S'2'
sS'theater'
p1395
S'regal meridian 16'
p1396
sS'starttime'
p1397
S'8:45 pm'
p1398
sS'date'
p1399
S'tomorrow'
p1400
sS'moviename'
p1401
S'hail caesar'
p1402
ssa(dp1403
g3
(dp1404
S'theater'
p1405
g6
ssg7
g8
sg9
(dp1406
S'city'
p1407
S'Monroe'
p1408
sS'numberofpeople'
p1409
S'2'
sS'zip'
p1410
S'98272'
p1411
sS'distanceconstraints'
p1412
S'near me'
p1413
sS'greeting'
p1414
S'hi'
p1415
sS'state'
p1416
S'wa'
p1417
sS'starttime'
p1418
S'around 8pm'
p1419
sS'date'
p1420
S'tonight'
p1421
sS'moviename'
p1422
S'kung fu panda 3'
p1423
ssa(dp1424
g3
(dp1425
S'theater'
p1426
g6
ssg7
g8
sg9
(dp1427
S'city'
p1428
S'cary'
p1429
sS'numberofpeople'
p1430
S'4'
sS'video_format'
p1431
S'3d'
p1432
sS'state'
p1433
S'north carolina'
p1434
sS'mpaa_rating'
p1435
S'appropriate for the whole family'
p1436
sS'starttime'
p1437
S'around 6pm'
p1438
sS'date'
p1439
S'saturday'
p1440
sS'moviename'
p1441
S'zootopia'
p1442
ssa(dp1443
g3
(dp1444
S'ticket'
p1445
g6
ssg7
g8
sg9
(dp1446
S'city'
p1447
S'seattle'
p1448
sS'numberofpeople'
p1449
S'2'
sS'theater'
p1450
S'regal meridian 16'
p1451
sS'starttime'
p1452
S'8:45 pm'
p1453
sS'date'
p1454
S'tomorrow'
p1455
sS'moviename'
p1456
S'hail caesar'
p1457
ssa(dp1458
g3
(dp1459
g171
g6
sS'moviename'
p1460
g6
ssg7
g8
sg9
(dp1461
S'city'
p1462
S'birmingham'
p1463
sS'numberofpeople'
p1464
S'2'
sS'date'
p1465
S'today'
p1466
sS'state'
p1467
S'al'
p1468
sS'starttime'
p1469
S'around 2pm'
p1470
sS'genre'
p1471
S'action'
p1472
ssa(dp1473
g3
(dp1474
S'ticket'
p1475
g6
sg171
g6
ssg7
g8
sg9
(dp1476
S'date'
p1477
S'next sunday'
p1478
sS'numberofpeople'
p1479
S'two'
p1480
sS'moviename'
p1481
S'london has fallen'
p1482
sS'starttime'
p1483
S'between noon and 4pm'
p1484
sS'zip'
p1485
S'90602'
p1486
ssa(dp1487
g3
(dp1488
S'ticket'
p1489
g6
sg171
g6
ssg7
g8
sg9
(dp1490
S'numberofpeople'
p1491
S'two'
p1492
sS'zip'
p1493
S'90601'
p1494
sS'other'
p1495
S'two'
p1496
sS'starttime'
p1497
S'early'
p1498
sS'date'
p1499
S'tomorrow'
p1500
sS'moviename'
p1501
S'the witch'
p1502
ssa(dp1503
g3
(dp1504
g171
g6
sS'ticket'
p1505
g6
sS'moviename'
p1506
g6
ssg7
g8
sg9
(dp1507
S'city'
p1508
S'Shiloh'
p1509
sS'numberofpeople'
p1510
S'2'
sS'date'
p1511
S'Tuesday the 8th'
p1512
sS'state'
p1513
S'illinois'
p1514
sS'other'
p1515
S'check again'
p1516
sS'starttime'
p1517
S'between 2 and 4pm'
p1518
sS'genre'
p1519
S'romantic comedies'
p1520
ssa(dp1521
g3
(dp1522
S'ticket'
p1523
g6
ssg7
g8
sg9
(dp1524
S'city'
p1525
S'seattle'
p1526
sS'numberofpeople'
p1527
S'2'
sS'theater'
p1528
S'regal meridian 16'
p1529
sS'starttime'
p1530
S'9:10 pm'
p1531
sS'date'
p1532
S'tomorrow'
p1533
sS'moviename'
p1534
S'zootopia'
p1535
ssa(dp1536
g3
(dp1537
S'ticket'
p1538
g6
sg171
g6
sg29
g6
ssg7
g8
sg9
(dp1539
S'date'
p1540
S'tomorrow night'
p1541
sS'city'
p1542
S'seattle'
p1543
sS'numberofpeople'
p1544
S'one'
p1545
sS'moviename'
p1546
S'zootopia'
p1547
ssa(dp1548
g3
(dp1549
S'ticket'
p1550
g6
sS'theater'
p1551
g6
sS'starttime'
p1552
g6
ssg7
g8
sg9
(dp1553
S'date'
p1554
S'tonight'
p1555
sS'city'
p1556
S'seattle'
p1557
sS'numberofpeople'
p1558
S'two'
p1559
sS'moviename'
p1560
S'deadpool'
p1561
ssa(dp1562
g3
(dp1563
S'date'
p1564
g6
sS'theater'
p1565
g6
sg29
g6
ssg7
g8
sg9
(dp1566
g68
S'2'
sS'moviename'
p1567
S'first'
p1568
ssa(dp1569
g3
(dp1570
g64
g6
ssg7
g8
sg9
(dp1571
S'city'
p1572
S'birmingham'
p1573
sS'numberofpeople'
p1574
S'3'
sS'theater'
p1575
S'carmike summit 16'
p1576
sS'video_format'
p1577
S'standard'
p1578
sS'date'
p1579
S'saturday'
p1580
sS'state'
p1581
S'alabama'
p1582
sS'starttime'
p1583
S'2:15pm'
p1584
sS'genre'
p1585
S'family friendly'
p1586
sS'moviename'
p1587
S'zootopia'
p1588
ssa(dp1589
g3
(dp1590
g64
g6
sg171
g6
ssg7
g8
sg9
(dp1591
S'city'
p1592
S'seattle'
p1593
sS'numberofpeople'
p1594
S'2'
sS'distanceconstraints'
p1595
S'east side'
p1596
sS'starttime'
p1597
S'around 2pm'
p1598
sS'date'
p1599
S'saturday'
p1600
sS'moviename'
p1601
S'zootopia'
p1602
ssa(dp1603
g3
(dp1604
S'ticket'
p1605
g6
sS'theater'
p1606
g6
ssg7
g8
sg9
(dp1607
S'city'
p1608
S'seattle'
p1609
sS'numberofpeople'
p1610
S'4'
sS'state'
p1611
S'wa'
p1612
sS'starttime'
p1613
S'10:20'
p1614
sS'date'
p1615
S'tonight'
p1616
sS'moviename'
p1617
S'zootopia'
p1618
ssa(dp1619
g3
(dp1620
g270
g6
sS'ticket'
p1621
g6
ssg7
g8
sg9
(dp1622
S'city'
p1623
S'albany'
p1624
sS'numberofpeople'
p1625
S'two'
p1626
sS'theater'
p1627
S'any'
p1628
sS'state'
p1629
S'ny'
p1630
sS'starttime'
p1631
S'soonest'
p1632
sS'moviename'
p1633
S'whiskey tango foxtrot'
p1634
ssa(dp1635
g3
(dp1636
g171
g6
sS'moviename'
p1637
g6
ssg7
g8
sg9
(dp1638
S'date'
p1639
S'friday'
p1640
sS'city'
p1641
S'portland'
p1642
sS'state'
p1643
S'oregon'
p1644
sS'numberofpeople'
p1645
S'2'
sS'starttime'
p1646
S'10 o clock'
p1647
ssa(dp1648
g3
(dp1649
g171
g6
sS'critic_rating'
p1650
g6
sS'actor'
p1651
g6
sg29
g6
sg270
g6
sS'moviename'
p1652
g6
ssg7
g8
sg9
(dp1653
S'genre'
p1654
S'action'
p1655
sg68
S'1'
sS'greeting'
p1656
S'hello'
p1657
sS'description'
p1658
S'violence'
p1659
ssa(dp1660
g3
(dp1661
g171
g6
sS'moviename'
p1662
g6
ssg7
g8
sg9
(dp1663
S'city'
p1664
S'houma'
p1665
sS'numberofpeople'
p1666
S'4'
sS'description'
p1667
S'good intelligent'
p1668
sS'greeting'
p1669
S'hi'
p1670
sS'genre'
p1671
S'comedy'
p1672
sS'state'
p1673
S'louisiana'
p1674
sS'starttime'
p1675
S'740'
p1676
sS'date'
p1677
S'9th'
p1678
ssa(dp1679
g3
(dp1680
g171
g6
sS'moviename'
p1681
g6
ssg7
g8
sg9
(dp1682
S'genre'
p1683
S'action'
p1684
sS'city'
p1685
S'la'
p1686
sS'numberofpeople'
p1687
S'4'
sS'date'
p1688
S'tomorrow'
p1689
sS'starttime'
p1690
S'night'
p1691
ssa(dp1692
g3
(dp1693
g270
g6
sg171
g6
sS'price'
p1694
g6
sg354
g6
sg29
g6
ssg7
g8
sg9
(dp1695
S'distanceconstraints'
p1696
S'local theater'
p1697
sS'theater_chain'
p1698
S'century'
p1699
sS'state'
p1700
S'illinois'
p1701
sg68
S'3'
sS'city'
p1702
S'evanston'
p1703
ssa(dp1704
g3
(dp1705
S'theater'
p1706
g6
ssg7
g8
sg9
(dp1707
S'city'
p1708
S'Seattle'
p1709
sS'numberofpeople'
p1710
S'2'
sS'video_format'
p1711
S'3d'
p1712
sS'state'
p1713
S'WA'
p1714
sS'starttime'
p1715
S'8'
sS'date'
p1716
S'tomorrow night'
p1717
sS'moviename'
p1718
S'zootopia'
p1719
ssa(dp1720
g3
(dp1721
g171
g6
sS'moviename'
p1722
g6
sg29
g6
ssg7
g8
sg9
(dp1723
S'date'
p1724
S'today'
p1725
sg68
S'3'
sS'greeting'
p1726
S'hello'
p1727
ssa(dp1728
g3
(dp1729
S'moviename'
p1730
g6
ssg7
g8
sg9
(dp1731
S'city'
p1732
S'madison heights'
p1733
sS'numberofpeople'
p1734
S'2'
sS'theater'
p1735
S'any'
p1736
sS'zip'
p1737
S'48071'
p1738
sS'theater_chain'
p1739
S'amc star john r 15'
p1740
sS'state'
p1741
S'mi'
p1742
sS'other'
p1743
S'new release'
p1744
sS'starttime'
p1745
S'7'
sS'date'
p1746
S'tonight'
p1747
ssa(dp1748
g3
(dp1749
S'theater'
p1750
g6
sS'moviename'
p1751
g6
ssg7
g8
sg9
(dp1752
S'city'
p1753
S'carbondale'
p1754
sg68
S'5'
sS'greeting'
p1755
S'hi'
p1756
sS'date'
p1757
S'tomorrow'
p1758
sS'state'
p1759
S'illinois'
p1760
sS'starttime'
p1761
S'afternoon'
p1762
sS'genre'
p1763
S'action'
p1764
ssa(dp1765
g3
(dp1766
S'moviename'
p1767
g6
sS'theater'
p1768
g6
ssg7
g8
sg9
(dp1769
S'city'
p1770
S'monroe'
p1771
sS'numberofpeople'
p1772
S'2'
sS'zip'
p1773
S'98272'
p1774
sS'distanceconstraints'
p1775
S'near'
p1776
sS'state'
p1777
S'wa'
p1778
sS'starttime'
p1779
S'around 8pm'
p1780
sS'date'
p1781
S'tonight'
p1782
sS'moviename'
p1783
S'kung fu panda 3'
p1784
ssa(dp1785
g3
(dp1786
g270
g6
sg171
g6
sS'starttime'
p1787
g6
ssg7
g8
sg9
(dp1788
g68
S'4'
sS'moviename'
p1789
S'london has fallen'
p1790
ssa(dp1791
g3
(dp1792
S'theater'
p1793
g6
sS'moviename'
p1794
g6
ssg7
g8
sg9
(dp1795
S'city'
p1796
S'seattle'
p1797
sg68
S'1'
sS'distanceconstraints'
p1798
S' seattle area'
p1799
sS'other'
p1800
S'place that serves seafood'
p1801
sS'starttime'
p1802
S'after 7:30pm'
p1803
sS'date'
p1804
S'friday'
p1805
ssa(dp1806
g3
(dp1807
S'critic_rating'
p1808
g6
sg171
g6
ssg7
g8
sg9
(dp1809
S'city'
p1810
S'birmingham'
p1811
sS'numberofpeople'
p1812
S'4'
sS'date'
p1813
S'friday'
p1814
sS'state'
p1815
S'al'
p1816
sS'starttime'
p1817
S'8pm'
p1818
sS'genre'
p1819
S'action'
p1820
sS'moviename'
p1821
S'london has fallen'
p1822
ssa(dp1823
g3
(dp1824
g270
g6
sS'theater'
p1825
g6
sS'ticket'
p1826
g6
sS'moviename'
p1827
g6
sg29
g6
ssg7
g8
sg9
(dp1828
S'genre'
p1829
S'drama'
p1830
sS'city'
p1831
S'seattle'
p1832
sS'numberofpeople'
p1833
S'one'
p1834
sS'greeting'
p1835
S'hello'
p1836
ssa(dp1837
g3
(dp1838
g270
g6
sg64
g6
ssg7
g8
sg9
(dp1839
S'city'
p1840
S'Long Island'
p1841
sS'numberofpeople'
p1842
S'two'
p1843
sS'theater'
p1844
S'amc loews stony brook'
p1845
sS'state'
p1846
S'NY'
p1847
sS'starttime'
p1848
S'8:15am'
p1849
sS'moviename'
p1850
S'Deadpool'
p1851
ssa(dp1852
g3
(dp1853
S'ticket'
p1854
g6
sS'theater'
p1855
g6
ssg7
g8
sg9
(dp1856
S'city'
p1857
S'portland'
p1858
sS'numberofpeople'
p1859
S'6'
sS'state'
p1860
S'oregon'
p1861
sS'starttime'
p1862
S'after 6 pm'
p1863
sS'date'
p1864
S'saturday'
p1865
sS'moviename'
p1866
S'whiskey tango foxtrot'
p1867
ssa(dp1868
g3
(dp1869
g270
g6
sg64
g6
sg171
g6
sg29
g6
ssg7
g8
sg9
(dp1870
g68
S'4'
sS'other'
p1871
S'worth watching'
p1872
sS'moviename'
p1873
S'deadpool'
p1874
ssa(dp1875
g3
(dp1876
S'moviename'
p1877
g6
ssg7
g8
sg9
(dp1878
S'city'
p1879
S'des moines'
p1880
sS'numberofpeople'
p1881
S'4'
sS'theater'
p1882
S'any'
p1883
sS'state'
p1884
S'iowa'
p1885
sS'mpaa_rating'
p1886
S'pg'
p1887
sS'starttime'
p1888
S' around 7pm'
p1889
sS'date'
p1890
S'tomorrow'
p1891
ssa(dp1892
g3
(dp1893
S'starttime'
p1894
g6
ssg7
g8
sg9
(dp1895
S'city'
p1896
S'northern san francisco'
p1897
sS'numberofpeople'
p1898
S'3'
sS'theater'
p1899
S'AMC Van Ness'
p1900
sS'video_format'
p1901
S'standard'
p1902
sS'date'
p1903
S'tomorrow'
p1904
sS'moviename'
p1905
S'Zootopia'
p1906
ssa(dp1907
g3
(dp1908
S'ticket'
p1909
g6
ssg7
g8
sg9
(dp1910
S'city'
p1911
S'seattle'
p1912
sS'numberofpeople'
p1913
S'2'
sS'theater'
p1914
S'amc lowes oak tree 6'
p1915
sS'starttime'
p1916
S'4:25 pm'
p1917
sS'date'
p1918
S'tomorrow'
p1919
sS'moviename'
p1920
S'risen'
p1921
ssa(dp1922
g3
(dp1923
g64
g6
ssg7
g8
sg9
(dp1924
S'city'
p1925
S'seattle'
p1926
sS'numberofpeople'
p1927
S'2'
sS'theater'
p1928
S'regal crossroad'
p1929
sS'starttime'
p1930
S'7:15'
p1931
sS'date'
p1932
S'march 11th'
p1933
sS'moviename'
p1934
S'whiskey tango foxtrot'
p1935
ssa(dp1936
g3
(dp1937
S'ticket'
p1938
g6
ssg7
g8
sg9
(dp1939
S'city'
p1940
S'seattle'
p1941
sS'numberofpeople'
p1942
S'2'
sS'theater'
p1943
S'pacific place 11 theater'
p1944
sS'date'
p1945
S'tomorrow'
p1946
sS'starttime'
p1947
S'9:30 pm'
p1948
sS'theater_chain'
p1949
S'amc'
p1950
sS'moviename'
p1951
S'room'
p1952
ssa(dp1953
g3
(dp1954
g270
g6
sS'theater'
p1955
g6
sS'moviename'
p1956
g6
sg29
g6
ssg7
g8
sg9
(dp1957
S'city'
p1958
S'louis'
p1959
sg68
S'5'
sS'distanceconstraints'
p1960
S'near here'
p1961
sS'critic_rating'
p1962
S'nice'
p1963
sS'greeting'
p1964
S'hi'
p1965
sS'other'
p1966
S'subtitiles'
p1967
sS'genre'
p1968
S'foreign'
p1969
ssa(dp1970
g3
(dp1971
S'theater'
p1972
g6
sS'starttime'
p1973
g6
ssg7
g8
sg9
(dp1974
S'date'
p1975
S'21-mar'
p1976
sS'city'
p1977
S'seattle'
p1978
sg68
S'1'
sS'moviename'
p1979
S'big'
p1980
sS'zip'
p1981
S'98121'
p1982
ssa(dp1983
g3
(dp1984
S'ticket'
p1985
g6
ssg7
g8
sg9
(dp1986
S'city'
p1987
S'norfolk'
p1988
sS'numberofpeople'
p1989
S'2'
sS'theater'
p1990
S'regal'
p1991
sS'state'
p1992
S'virginia'
p1993
sS'starttime'
p1994
S'7pm'
p1995
sS'date'
p1996
S'march 12th'
p1997
sS'moviename'
p1998
S'london has fallen'
p1999
ssa(dp2000
g3
(dp2001
S'ticket'
p2002
g6
sS'moviename'
p2003
g6
sg29
g6
ssg7
g8
sg9
(dp2004
S'city'
p2005
S'seattle'
p2006
sS'numberofpeople'
p2007
S'three'
p2008
sS'theater'
p2009
S'regal meridian 16'
p2010
sS'greeting'
p2011
S'hey'
p2012
sS'other'
p2013
S'latest showing'
p2014
sS'date'
p2015
S'tonight'
p2016
ssa(dp2017
g3
(dp2018
g171
g6
sS'moviename'
p2019
g6
ssg7
g8
sg9
(dp2020
S'city'
p2021
S'st louis'
p2022
sS'numberofpeople'
p2023
S'2'
sS'numberofkids'
p2024
S'2'
sS'critic_rating'
p2025
S'good'
p2026
sS'genre'
p2027
S'kids'
p2028
sS'starttime'
p2029
S'130pm'
p2030
sS'date'
p2031
S'thursday'
p2032
ssa(dp2033
g3
(dp2034
g270
g6
sg171
g6
sg64
g6
sg354
g6
sg29
g6
ssg7
g8
sg9
(dp2035
S'city'
p2036
S'seattle'
p2037
sg68
S'3'
sS'other'
p2038
S'Italian restaurant'
p2039
ssa(dp2040
g3
(dp2041
S'ticket'
p2042
g6
ssg7
g8
sg9
(dp2043
S'city'
p2044
S'seattle'
p2045
sS'numberofpeople'
p2046
S'2'
sS'theater'
p2047
S'amc lowes oak tree 6'
p2048
sS'other'
p2049
S'restaurant'
p2050
sS'starttime'
p2051
S'7:25 pm'
p2052
sS'date'
p2053
S'tomorrow'
p2054
sS'moviename'
p2055
S'spotlight'
p2056
ssa(dp2057
g3
(dp2058
g64
g6
sg171
g6
ssg7
g8
sg9
(dp2059
S'date'
p2060
S'tomorrow'
p2061
sS'city'
p2062
S'los angeles'
p2063
sS'numberofpeople'
p2064
S'2'
sS'moviename'
p2065
S'deadpool'
p2066
sS'starttime'
p2067
S'8pm'
p2068
ssa(dp2069
g3
(dp2070
S'ticket'
p2071
g6
ssg7
g8
sg9
(dp2072
S'city'
p2073
S'portland'
p2074
sS'numberofpeople'
p2075
S'2'
sS'theater'
p2076
S'century Eastport 16'
p2077
sS'state'
p2078
S'oregon'
p2079
sS'starttime'
p2080
S'10 pm'
p2081
sS'date'
p2082
S'Saturday'
p2083
sS'moviename'
p2084
S'star wars'
p2085
ssa(dp2086
g3
(dp2087
S'starttime'
p2088
g6
ssg7
g8
sg9
(dp2089
S'city'
p2090
S'seattle'
p2091
sS'numberofpeople'
p2092
S'2'
sS'theater'
p2093
S'pacific science center'
p2094
sS'zip'
p2095
S'98101'
p2096
sS'distanceconstraints'
p2097
S'near me'
p2098
sS'video_format'
p2099
S'standard'
p2100
sS'state'
p2101
S'wa'
p2102
sS'date'
p2103
S'tomorrow'
p2104
sS'moviename'
p2105
S'zootopia'
p2106
ssa(dp2107
g3
(dp2108
g270
g6
sg171
g6
sS'ticket'
p2109
g6
sg354
g6
sS'starttime'
p2110
g6
ssg7
g8
sg9
(dp2111
S'city'
p2112
S'bellevue'
p2113
sg68
S'5'
sS'zip'
p2114
S'98119'
p2115
sS'distanceconstraints'
p2116
S'near'
p2117
sS'actor'
p2118
S'ryan reynolds'
p2119
sS'state'
p2120
S'washington'
p2121
sS'other'
p2122
S"can't think of"
p2123
sS'genre'
p2124
S'superhero movie'
p2125
ssa(dp2126
g3
(dp2127
g171
g6
sg64
g6
sg354
g6
sg29
g6
ssg7
g8
sg9
(dp2128
S'distanceconstraints'
p2129
S'near me'
p2130
sS'city'
p2131
S'campcreek area'
p2132
sg68
S'2'
sS'date'
p2133
S'coming saturday'
p2134
ssa(dp2135
g3
(dp2136
S'ticket'
p2137
g6
sg171
g6
ssg7
g8
sg9
(dp2138
S'city'
p2139
S'bellevue'
p2140
sS'numberofpeople'
p2141
S'3'
sS'video_format'
p2142
S'3d'
p2143
sS'state'
p2144
S'washington'
p2145
sS'starttime'
p2146
S'between 5pm and 6pm'
p2147
sS'date'
p2148
S'saturday'
p2149
sS'moviename'
p2150
S'kung fu panda 3'
p2151
ssa(dp2152
g3
(dp2153
g64
g6
sg171
g6
ssg7
g8
sg9
(dp2154
S'date'
p2155
S'tomorrow'
p2156
sS'city'
p2157
S'detroit'
p2158
sS'numberofpeople'
p2159
S'2'
sS'moviename'
p2160
S'deadpool'
p2161
sS'starttime'
p2162
S'7pm'
p2163
ssa(dp2164
g3
(dp2165
S'ticket'
p2166
g6
ssg7
g8
sg9
(dp2167
S'date'
p2168
S'tomorrow'
p2169
sS'moviename'
p2170
S'creed'
p2171
sS'numberofpeople'
p2172
S'four'
p2173
sS'theater'
p2174
S'regency academy 6'
p2175
sS'starttime'
p2176
S'around noon'
p2177
ssa(dp2178
g3
(dp2179
g64
g6
sg171
g6
ssg7
g8
sg9
(dp2180
S'city'
p2181
S'los angeles'
p2182
sS'numberofpeople'
p2183
S'2'
sS'video_format'
p2184
S'standard'
p2185
sS'starttime'
p2186
S'8pm'
p2187
sS'date'
p2188
S'tomorrow'
p2189
sS'moviename'
p2190
S'zootopia'
p2191
ssa(dp2192
g3
(dp2193
g64
g6
sg171
g6
ssg7
g8
sg9
(dp2194
S'city'
p2195
S'seattle'
p2196
sS'numberofpeople'
p2197
S'2'
sS'date'
p2198
S'tomorrow'
p2199
sS'starttime'
p2200
S'4:25 pm'
p2201
sS'theater_chain'
p2202
S'amc lowes oak tree 6'
p2203
sS'moviename'
p2204
S'risen'
p2205
ssa(dp2206
g3
(dp2207
g171
g6
sg354
g6
sg29
g6
sS'actor'
p2208
g6
ssg7
g8
sg9
(dp2209
S'date'
p2210
S'tonight'
p2211
sS'city'
p2212
S'arlington'
p2213
sS'state'
p2214
S'texas'
p2215
sS'numberofpeople'
p2216
S'2'
sS'actor'
p2217
S'ryan reynolds'
p2218
ssa(dp2219
g3
(dp2220
g64
g6
ssg7
g8
sg9
(dp2221
S'city'
p2222
S'seattle'
p2223
sS'numberofpeople'
p2224
S'2'
sS'theater'
p2225
S'amc pacific place 11 theater'
p2226
sS'starttime'
p2227
S'9:30 pm'
p2228
sS'date'
p2229
S'tomorrow'
p2230
sS'moviename'
p2231
S'room'
p2232
ssa(dp2233
g3
(dp2234
g270
g6
sS'ticket'
p2235
g6
sg171
g6
ssg7
g8
sg9
(dp2236
S'city'
p2237
S'seattle'
p2238
sS'numberofpeople'
p2239
S'one'
p2240
sS'moviename'
p2241
S'whiskey tango foxtrot'
p2242
sS'greeting'
p2243
S'good evening'
p2244
sS'starttime'
p2245
S'soonest upcoming showing'
p2246
ssa(dp2247
g3
(dp2248
g171
g6
sS'moviename'
p2249
g6
ssg7
g8
sg9
(dp2250
S'date'
p2251
S'tomorrow'
p2252
sS'city'
p2253
S'seattle'
p2254
sS'numberofpeople'
p2255
S'2'
sS'genre'
p2256
S'drama'
p2257
sS'starttime'
p2258
S'7:25'
p2259
ssa(dp2260
g3
(dp2261
g64
g6
ssg7
g8
sg9
(dp2262
S'city'
p2263
S'birmingham'
p2264
sg68
S'4'
sS'theater'
p2265
S'carmike summit 16'
p2266
sS'state'
p2267
S'al'
p2268
sS'starttime'
p2269
S'around 2pm'
p2270
sS'date'
p2271
S'today'
p2272
sS'moviename'
p2273
S'london had fallen'
p2274
ssa(dp2275
g3
(dp2276
S'critic_rating'
p2277
g6
sS'ticket'
p2278
g6
sS'moviename'
p2279
g6
ssg7
g8
sg9
(dp2280
S'city'
p2281
S'seattle'
p2282
sS'numberofpeople'
p2283
S'two'
p2284
sS'theater'
p2285
S'regal meridian 16'
p2286
sS'greeting'
p2287
S'hello'
p2288
sS'starttime'
p2289
S'9:20'
p2290
sS'date'
p2291
S'tonight'
p2292
ssa(dp2293
g3
(dp2294
S'ticket'
p2295
g6
ssg7
g8
sg9
(dp2296
S'city'
p2297
S'seattle'
p2298
sS'numberofpeople'
p2299
S'2'
sS'theater'
p2300
S'amc lowes oak tree 6'
p2301
sS'starttime'
p2302
S'4:50 pm'
p2303
sS'date'
p2304
S'tomorrow'
p2305
sS'moviename'
p2306
S'room'
p2307
ssa(dp2308
g3
(dp2309
S'moviename'
p2310
g6
sS'starttime'
p2311
g6
ssg7
g8
sg9
(dp2312
S'city'
p2313
S'seattle'
p2314
sg68
S'5'
sS'theater'
p2315
S'regal meridian 16'
p2316
sS'distanceconstraints'
p2317
S'safeco field'
p2318
sS'date'
p2319
S'tonight'
p2320
sS'state'
p2321
S'washington'
p2322
sS'genre'
p2323
S'comedy'
p2324
ssa(dp2325
g3
(dp2326
S'ticket'
p2327
g6
sg171
g6
ssg7
g8
sg9
(dp2328
S'city'
p2329
S'philadelphia'
p2330
sg68
S'5'
sS'zip'
p2331
S'19101'
p2332
sS'distanceconstraints'
p2333
S'near'
p2334
sS'starttime'
p2335
S'7:30pm'
p2336
sS'date'
p2337
S'tomorrow'
p2338
sS'moviename'
p2339
S'deadpool'
p2340
ssa(dp2341
g3
(dp2342
g171
g6
sS'moviename'
p2343
g6
ssg7
g8
sg9
(dp2344
S'city'
p2345
S'princeton'
p2346
sS'numberofpeople'
p2347
S'3'
sS'date'
p2348
S'tomorrow'
p2349
sS'state'
p2350
S'nj'
p2351
sS'starttime'
p2352
S'7pm'
p2353
sS'genre'
p2354
S'dramas'
p2355
ssa(dp2356
g3
(dp2357
g64
g6
ssg7
g8
sg9
(dp2358
S'city'
p2359
S'birmingham'
p2360
sS'numberofpeople'
p2361
S'2'
sS'theater'
p2362
S'carmike summit 16'
p2363
sS'state'
p2364
S'al'
p2365
sS'starttime'
p2366
S'4:20pm'
p2367
sS'date'
p2368
S'tomorrow'
p2369
sS'moviename'
p2370
S'deadpool'
p2371
ssa(dp2372
g3
(dp2373
g171
g6
sS'ticket'
p2374
g6
sS'moviename'
p2375
g6
ssg7
g8
sg9
(dp2376
S'city'
p2377
S'carbondale'
p2378
sg68
S'3'
sS'critic_rating'
p2379
S'good'
p2380
sS'greeting'
p2381
S'hi'
p2382
sS'date'
p2383
S'tomorrow'
p2384
sS'state'
p2385
S'illinois'
p2386
sS'starttime'
p2387
S'afternoon'
p2388
sS'genre'
p2389
S'action'
p2390
ssa(dp2391
g3
(dp2392
S'moviename'
p2393
g6
ssg7
g8
sg9
(dp2394
S'city'
p2395
S'birmingham'
p2396
sS'numberofpeople'
p2397
S'3'
sS'theater'
p2398
S'carmike summit 16'
p2399
sS'date'
p2400
S'saturday'
p2401
sS'state'
p2402
S'al'
p2403
sS'starttime'
p2404
S'2:15pm'
p2405
sS'genre'
p2406
S'family friendly'
p2407
ssa(dp2408
g3
(dp2409
g171
g6
sS'moviename'
p2410
g6
ssg7
g8
sg9
(dp2411
S'city'
p2412
S'birmingham'
p2413
sS'numberofpeople'
p2414
S'2'
sS'critic_rating'
p2415
S'good'
p2416
sS'genre'
p2417
S'action'
p2418
sS'state'
p2419
S'alabama'
p2420
sS'starttime'
p2421
S'2:00 pm'
p2422
sS'date'
p2423
S'this saturday'
p2424
ssa(dp2425
g3
(dp2426
g64
g6
ssg7
g8
sg9
(dp2427
S'city'
p2428
S'seattle'
p2429
sS'numberofpeople'
p2430
S'2'
sS'theater'
p2431
S'regal meridian 16'
p2432
sS'starttime'
p2433
S'8:45 pm'
p2434
sS'date'
p2435
S'tomorrow'
p2436
sS'moviename'
p2437
S'The big short'
p2438
ssa(dp2439
g3
(dp2440
g270
g6
sS'ticket'
p2441
g6
sS'starttime'
p2442
g6
ssg7
g8
sg9
(dp2443
S'city'
p2444
S'seattle'
p2445
sS'numberofpeople'
p2446
S'two'
p2447
sS'theater'
p2448
S'regal meridian 16'
p2449
sS'zip'
p2450
S'98126'
p2451
sS'distanceconstraints'
p2452
S'closest'
p2453
sS'other'
p2454
S'cheapest'
p2455
sS'moviename'
p2456
S'zoolander 2'
p2457
ssa(dp2458
g3
(dp2459
S'ticket'
p2460
g6
sg171
g6
ssg7
g8
sg9
(dp2461
S'date'
p2462
S'friday'
p2463
sS'numberofpeople'
p2464
S'2'
sS'moviename'
p2465
S'deadpool'
p2466
sS'zip'
p2467
S'98119'
p2468
sS'starttime'
p2469
S'around 8pm'
p2470
ssa(dp2471
g3
(dp2472
S'moviename'
p2473
g6
sS'starttime'
p2474
g6
sS'actor'
p2475
g6
ssg7
g8
sg9
(dp2476
S'city'
p2477
S'buford'
p2478
sg68
S'2'
sS'theater'
p2479
S'mall of georgia movie theater'
p2480
sS'genre'
p2481
S'comedy'
p2482
sS'state'
p2483
S'georgia'
p2484
sS'other'
p2485
S'date night'
p2486
sS'date'
p2487
S'friday'
p2488
ssa(dp2489
g3
(dp2490
S'ticket'
p2491
g6
ssg7
g8
sg9
(dp2492
S'city'
p2493
S'seattle'
p2494
sS'numberofpeople'
p2495
S'2'
sS'theater'
p2496
S'regal thornton place'
p2497
sS'distanceconstraints'
p2498
S'north side'
p2499
sS'greeting'
p2500
S'hi'
p2501
sS'starttime'
p2502
S'6:40 pm'
p2503
sS'date'
p2504
S'tomorrow'
p2505
sS'moviename'
p2506
S'zootopia'
p2507
ssa(dp2508
g3
(dp2509
S'ticket'
p2510
g6
ssg7
g8
sg9
(dp2511
S'city'
p2512
S'Fresno'
p2513
sS'numberofpeople'
p2514
S'two'
p2515
sS'theater'
p2516
S'Visalia'
p2517
sS'date'
p2518
S'march 12'
p2519
sS'state'
p2520
S'california'
p2521
sS'starttime'
p2522
S'afternoon'
p2523
sS'genre'
p2524
S'action'
p2525
sS'moviename'
p2526
S'london has fallen'
p2527
ssa(dp2528
g3
(dp2529
g270
g6
sS'ticket'
p2530
g6
sg171
g6
ssg7
g8
sg9
(dp2531
S'city'
p2532
S'seattle'
p2533
sS'numberofpeople'
p2534
S'one'
p2535
sS'moviename'
p2536
S'whiskey tango foxtrot'
p2537
sS'starttime'
p2538
S'sonnest'
p2539
ssa(dp2540
g3
(dp2541
g64
g6
ssg7
g8
sg9
(dp2542
S'city'
p2543
S'las vegas'
p2544
sS'numberofpeople'
p2545
S'two'
p2546
sS'theater'
p2547
S'regal colonnade 14'
p2548
sS'greeting'
p2549
S'hi'
p2550
sS'video_format'
p2551
S'3d'
p2552
sS'starttime'
p2553
S'matinee'
p2554
sS'date'
p2555
S'tomorrow'
p2556
sS'moviename'
p2557
S'zootopia'
p2558
ssa(dp2559
g3
(dp2560
S'ticket'
p2561
g6
ssg7
g8
sg9
(dp2562
S'city'
p2563
S'norfolk'
p2564
sS'numberofpeople'
p2565
S'2'
sS'theater'
p2566
S'zeus'
p2567
sS'state'
p2568
S'va'
p2569
sS'starttime'
p2570
S'2pm'
p2571
sS'date'
p2572
S'march 10 2016'
p2573
sS'moviename'
p2574
S'london has fallen'
p2575
ssa(dp2576
g3
(dp2577
g64
g6
ssg7
g8
sg9
(dp2578
S'city'
p2579
S'la'
p2580
sS'numberofpeople'
p2581
S'2'
sS'theater'
p2582
S'AMC La Mirada'
p2583
sS'distanceconstraints'
p2584
S'downtown'
p2585
sS'video_format'
p2586
S'2d'
p2587
sS'starttime'
p2588
S'7pm'
p2589
sS'date'
p2590
S'tomorrow'
p2591
sS'moviename'
p2592
S'creed'
p2593
ssa(dp2594
g3
(dp2595
g64
g6
ssg7
g8
sg9
(dp2596
S'city'
p2597
S'birmingham'
p2598
sS'numberofpeople'
p2599
S'2'
sS'theater'
p2600
S'carmike summit 16'
p2601
sS'state'
p2602
S'al'
p2603
sS'starttime'
p2604
S'1:30'
p2605
sS'date'
p2606
S'today'
p2607
sS'moviename'
p2608
S'zootopia'
p2609
ssa(dp2610
g3
(dp2611
g64
g6
ssg7
g8
sg9
(dp2612
S'city'
p2613
S'seattle'
p2614
sS'numberofpeople'
p2615
S'2'
sS'theater'
p2616
S'regal meridian 16'
p2617
sS'starttime'
p2618
S'9:00 pm'
p2619
sS'date'
p2620
S'tomorrow'
p2621
sS'moviename'
p2622
S'spotlight'
p2623
ssa(dp2624
g3
(dp2625
S'moviename'
p2626
g6
sS'starttime'
p2627
g6
sS'actor'
p2628
g6
ssg7
g8
sg9
(dp2629
S'date'
p2630
S'friday'
p2631
sS'genre'
p2632
S'comedy'
p2633
sg68
S'1'
sS'theater'
p2634
S'mall of georgia'
p2635
sS'starttime'
p2636
S'night'
p2637
ssa(dp2638
g3
(dp2639
S'date'
p2640
g6
sS'theater'
p2641
g6
sg29
g6
ssg7
g8
sg9
(dp2642
g68
S'2'
sS'moviename'
p2643
S'finding dory'
p2644
sS'greeting'
p2645
S'hey'
p2646
ssa(dp2647
g3
(dp2648
S'ticket'
p2649
g6
ssg7
g8
sg9
(dp2650
S'city'
p2651
S'seattle'
p2652
sS'numberofpeople'
p2653
S'2'
sS'theater'
p2654
S'regal meridian 16'
p2655
sS'starttime'
p2656
S'9:00 pm'
p2657
sS'date'
p2658
S'tomorrow'
p2659
sS'moviename'
p2660
S'spotlight'
p2661
ssa(dp2662
g3
(dp2663
S'ticket'
p2664
g6
ssg7
g8
sg9
(dp2665
S'city'
p2666
S'seattle'
p2667
sS'numberofpeople'
p2668
S'2'
sS'theater'
p2669
S'regal meridian 16'
p2670
sS'starttime'
p2671
S'8:45 pm'
p2672
sS'date'
p2673
S'tomorrow'
p2674
sS'moviename'
p2675
S'hail caesar'
p2676
ssa(dp2677
g3
(dp2678
S'ticket'
p2679
g6
ssg7
g8
sg9
(dp2680
S'city'
p2681
S'birmingham'
p2682
sS'numberofpeople'
p2683
S'2'
sS'theater'
p2684
S'carmike 16'
p2685
sS'state'
p2686
S'al'
p2687
sS'starttime'
p2688
S'2pm'
p2689
sS'date'
p2690
S'today'
p2691
sS'moviename'
p2692
S'zootopia'
p2693
ssa(dp2694
g3
(dp2695
S'ticket'
p2696
g6
sS'theater'
p2697
g6
sS'starttime'
p2698
g6
ssg7
g8
sg9
(dp2699
S'date'
p2700
S'tonight'
p2701
sS'city'
p2702
S'seattle'
p2703
sS'numberofpeople'
p2704
S'two'
p2705
sS'moviename'
p2706
S'deadpool'
p2707
ssa(dp2708
g3
(dp2709
S'moviename'
p2710
g6
ssg7
g8
sg9
(dp2711
S'city'
p2712
S'Clear Lake'
p2713
sS'numberofpeople'
p2714
S'one'
p2715
sS'theater'
p2716
S'Mason city IA cinema west'
p2717
sS'state'
p2718
S'IA'
p2719
sS'starttime'
p2720
S'any time'
p2721
sS'date'
p2722
S'tomorrow'
p2723
ssa(dp2724
g3
(dp2725
S'ticket'
p2726
g6
sS'theater'
p2727
g6
sS'description'
p2728
g6
ssg7
g8
sg9
(dp2729
S'city'
p2730
S'carbondale'
p2731
sS'numberofpeople'
p2732
S'5'
sS'state'
p2733
S'illinois'
p2734
sS'starttime'
p2735
S'anytime after 6pm'
p2736
sS'date'
p2737
S'Friday the 11th'
p2738
sS'moviename'
p2739
S'10 cloverfield lane'
p2740
ssa(dp2741
g3
(dp2742
S'ticket'
p2743
g6
sg171
g6
ssg7
g8
sg9
(dp2744
S'city'
p2745
S'altoona'
p2746
sS'numberofpeople'
p2747
S'6'
sS'state'
p2748
S'pennsylvania'
p2749
sS'starttime'
p2750
S'7:40pm'
p2751
sS'date'
p2752
S'wednesday'
p2753
sS'moviename'
p2754
S'whiskey tango foxtrot'
p2755
ssa(dp2756
g3
(dp2757
g171
g6
sS'ticket'
p2758
g6
sg354
g6
ssg7
g8
sg9
(dp2759
S'city'
p2760
S'seattle'
p2761
sS'numberofpeople'
p2762
S'2'
sS'date'
p2763
S'tomorrow'
p2764
sS'other'
p2765
S'restaurant'
p2766
sS'starttime'
p2767
S'7:00 pm'
p2768
sS'theater_chain'
p2769
S'amc pacific place 11'
p2770
ssa(dp2771
g3
(dp2772
S'ticket'
p2773
g6
ssg7
g8
sg9
(dp2774
S'city'
p2775
S'seattle'
p2776
sS'numberofpeople'
p2777
S'2'
sS'theater'
p2778
S'regal meridian 16'
p2779
sS'starttime'
p2780
S'8:45 pm'
p2781
sS'date'
p2782
S'tomorrow'
p2783
sS'moviename'
p2784
S'hail caesar'
p2785
ssa(dp2786
g3
(dp2787
g64
g6
ssg7
g8
sg9
(dp2788
S'city'
p2789
S'portland'
p2790
sg68
S'5'
sS'theater'
p2791
S'Living Room Theaters'
p2792
sS'state'
p2793
S'oregon'
p2794
sS'starttime'
p2795
S'between 8 and 10 pm'
p2796
sS'date'
p2797
S'friday'
p2798
sS'moviename'
p2799
S'star wars'
p2800
ssa(dp2801
g3
(dp2802
g270
g6
sS'ticket'
p2803
g6
sS'theater'
p2804
g6
sS'starttime'
p2805
g6
ssg7
g8
sg9
(dp2806
S'city'
p2807
S'seattle'
p2808
sS'numberofpeople'
p2809
S'two'
p2810
sS'zip'
p2811
S'98126'
p2812
sS'distanceconstraints'
p2813
S'closest'
p2814
sS'price'
p2815
S'cheapest'
p2816
sS'moviename'
p2817
S'zoolander 2'
p2818
ssa(dp2819
g3
(dp2820
g64
g6
sg171
g6
ssg7
g8
sg9
(dp2821
S'city'
p2822
S'los angeles'
p2823
sS'numberofpeople'
p2824
S'2'
sS'theater_chain'
p2825
S'amc'
p2826
sS'starttime'
p2827
S'8 pm'
p2828
sS'date'
p2829
S'saturday'
p2830
sS'moviename'
p2831
S'deadpool'
p2832
ssa(dp2833
g3
(dp2834
g171
g6
sS'moviename'
p2835
g6
sg29
g6
ssg7
g8
sg9
(dp2836
S'date'
p2837
S'weekend'
p2838
sg68
S'5'
ssa(dp2839
g3
(dp2840
S'ticket'
p2841
g6
sg171
g6
ssg7
g8
sg9
(dp2842
S'city'
p2843
S'orlando'
p2844
sS'numberofpeople'
p2845
S'3'
sS'distanceconstraints'
p2846
S'far away from disney'
p2847
sS'video_format'
p2848
S'3d'
p2849
sS'state'
p2850
S'fl'
p2851
sS'starttime'
p2852
S'1:30 pm'
p2853
sS'date'
p2854
S'tomorrow'
p2855
sS'moviename'
p2856
S'kung fu panda 3'
p2857
ssa(dp2858
g3
(dp2859
S'ticket'
p2860
g6
sg171
g6
ssg7
g8
sg9
(dp2861
S'date'
p2862
S'tomorrow'
p2863
sS'city'
p2864
S'regency academy 6 theater'
p2865
sS'numberofpeople'
p2866
S'four'
p2867
sS'moviename'
p2868
S'creed'
p2869
sS'starttime'
p2870
S'around noon'
p2871
ssa(dp2872
g3
(dp2873
g64
g6
ssg7
g8
sg9
(dp2874
S'city'
p2875
S'seattle'
p2876
sS'numberofpeople'
p2877
S'2'
sS'theater'
p2878
S'regal meridian 16'
p2879
sS'other'
p2880
S'indian restaurant'
p2881
sS'starttime'
p2882
S'9:20 pm'
p2883
sS'date'
p2884
S'tomorrow'
p2885
sS'moviename'
p2886
S'london has fallen'
p2887
ssa(dp2888
g3
(dp2889
S'ticket'
p2890
g6
ssg7
g8
sg9
(dp2891
S'city'
p2892
S'seattle'
p2893
sS'numberofpeople'
p2894
S'2'
sS'theater'
p2895
S'regal meridian 16'
p2896
sS'starttime'
p2897
S'9:00 pm'
p2898
sS'date'
p2899
S'tomorrow'
p2900
sS'moviename'
p2901
S'spotlight'
p2902
ssa(dp2903
g3
(dp2904
g171
g6
sS'moviename'
p2905
g6
ssg7
g8
sg9
(dp2906
S'city'
p2907
S'baltimore'
p2908
sS'numberofpeople'
p2909
S'2'
sS'video_format'
p2910
S'3d'
p2911
sS'state'
p2912
S'maryland'
p2913
sS'starttime'
p2914
S'9:45pm'
p2915
sS'date'
p2916
S'friday'
p2917
ssa(dp2918
g3
(dp2919
g64
g6
ssg7
g8
sg9
(dp2920
S'city'
p2921
S'seattle'
p2922
sS'numberofpeople'
p2923
S'2'
sS'theater'
p2924
S'amc lowes oak tree 6'
p2925
sS'other'
p2926
S'restaurant'
p2927
sS'starttime'
p2928
S'7:25 pm'
p2929
sS'date'
p2930
S'tomorrow'
p2931
sS'moviename'
p2932
S'spotlight'
p2933
ssa(dp2934
g3
(dp2935
S'ticket'
p2936
g6
sg171
g6
sg29
g6
ssg7
g8
sg9
(dp2937
S'date'
p2938
S'tomorrow night'
p2939
sS'city'
p2940
S'los angeles'
p2941
sS'numberofpeople'
p2942
S'2'
sS'moviename'
p2943
S'deadpool'
p2944
ssa(dp2945
g3
(dp2946
S'ticket'
p2947
g6
sg171
g6
ssg7
g8
sg9
(dp2948
S'numberofpeople'
p2949
S'two'
p2950
sS'zip'
p2951
S'90601'
p2952
sS'distanceconstraints'
p2953
S'closest'
p2954
sS'other'
p2955
S'two'
p2956
sS'starttime'
p2957
S'early'
p2958
sS'date'
p2959
S'tomorrow'
p2960
sS'moviename'
p2961
S'the witch'
p2962
ssa(dp2963
g3
(dp2964
g64
g6
sg171
g6
ssg7
g8
sg9
(dp2965
S'city'
p2966
S'johnstown'
p2967
sS'numberofpeople'
p2968
S'two'
p2969
sS'state'
p2970
S'pennsylvania'
p2971
sS'starttime'
p2972
S'9:50pm'
p2973
sS'date'
p2974
S'3/9/2016'
p2975
sS'moviename'
p2976
S'deadpool'
p2977
ssa(dp2978
g3
(dp2979
S'ticket'
p2980
g6
sg171
g6
ssg7
g8
sg9
(dp2981
S'city'
p2982
S'portland'
p2983
sS'numberofpeople'
p2984
S'2 adult'
p2985
sS'theater_chain'
p2986
S'century eastport 16'
p2987
sS'state'
p2988
S'oregon'
p2989
sS'starttime'
p2990
S'10 pm'
p2991
sS'date'
p2992
S'friday evening'
p2993
sS'genre'
p2994
S'super great day'
p2995
sS'moviename'
p2996
S'star wars'
p2997
ssa(dp2998
g3
(dp2999
S'ticket'
p3000
g6
sS'theater'
p3001
g6
ssg7
g8
sg9
(dp3002
S'city'
p3003
S'seattle'
p3004
sS'numberofpeople'
p3005
S'5'
sS'state'
p3006
S'washington'
p3007
sS'mpaa_rating'
p3008
S'pg'
p3009
sS'starttime'
p3010
S'matinee'
p3011
sS'date'
p3012
S'Saturday'
p3013
sS'moviename'
p3014
S'kung fu panda 3'
p3015
ssa(dp3016
g3
(dp3017
S'ticket'
p3018
g6
sg354
g6
ssg7
g8
sg9
(dp3019
S'date'
p3020
S'tomorrow'
p3021
sS'city'
p3022
S'seattle'
p3023
sS'numberofpeople'
p3024
S'2'
sS'theater'
p3025
S'amc pacific place 11 theater'
p3026
sS'starttime'
p3027
S'9:30 pm'
p3028
ssa(dp3029
g3
(dp3030
g270
g6
sS'ticket'
p3031
g6
sg171
g6
ssg7
g8
sg9
(dp3032
S'city'
p3033
S'los angeles'
p3034
sS'numberofpeople'
p3035
S'two'
p3036
sS'moviename'
p3037
S'the witch'
p3038
sS'starttime'
p3039
S'11pm'
p3040
ssa(dp3041
g3
(dp3042
S'starttime'
p3043
g6
ssg7
g8
sg9
(dp3044
S'date'
p3045
S'tomorrow'
p3046
sS'moviename'
p3047
S'star wars'
p3048
sS'numberofpeople'
p3049
S'2'
sS'theater'
p3050
S'Imagine theater Shelby Township'
p3051
ssa(dp3052
g3
(dp3053
S'ticket'
p3054
g6
sg171
g6
ssg7
g8
sg9
(dp3055
S'city'
p3056
S'philadelphia'
p3057
sg68
S'4'
sS'zip'
p3058
S'19101'
p3059
sS'starttime'
p3060
S'7:30pm'
p3061
sS'date'
p3062
S'tomorrow'
p3063
sS'moviename'
p3064
S'deadpool'
p3065
ssa(dp3066
g3
(dp3067
g171
g6
sS'moviename'
p3068
g6
ssg7
g8
sg9
(dp3069
S'city'
p3070
S'seattle'
p3071
sS'numberofpeople'
p3072
S'3'
sS'genre'
p3073
S'comedy'
p3074
sS'state'
p3075
S'washington'
p3076
sS'starttime'
p3077
S'9:00 pm'
p3078
sS'date'
p3079
S'tomorrow'
p3080
ssa(dp3081
g3
(dp3082
S'ticket'
p3083
g6
ssg7
g8
sg9
(dp3084
S'city'
p3085
S'northern san francisco'
p3086
sg68
S'2'
sS'theater'
p3087
S'amc'
p3088
sS'video_format'
p3089
S'standard'
p3090
sS'starttime'
p3091
S'2:25'
p3092
sS'date'
p3093
S'tomorrow afternoon'
p3094
sS'moviename'
p3095
S'kung fu panda 3'
p3096
ssa(dp3097
g3
(dp3098
S'ticket'
p3099
g6
ssg7
g8
sg9
(dp3100
S'city'
p3101
S'seattle'
p3102
sS'numberofpeople'
p3103
S'2'
sS'theater'
p3104
S'regal meridian 16'
p3105
sS'starttime'
p3106
S'9:10 pm'
p3107
sS'date'
p3108
S'tomorrow'
p3109
sS'moviename'
p3110
S'zootopia'
p3111
ssa(dp3112
g3
(dp3113
S'moviename'
p3114
g6
sS'starttime'
p3115
g6
ssg7
g8
sg9
(dp3116
S'city'
p3117
S'seattle'
p3118
sg68
S'1'
sS'theater'
p3119
S'regal meridian 16'
p3120
sS'distanceconstraints'
p3121
S'near my location'
p3122
sS'date'
p3123
S'tonight'
p3124
sS'state'
p3125
S'washington'
p3126
sS'other'
p3127
S'safeco field'
p3128
sS'genre'
p3129
S'comedy'
p3130
ssa(dp3131
g3
(dp3132
S'ticket'
p3133
g6
ssg7
g8
sg9
(dp3134
S'city'
p3135
S'seattle'
p3136
sS'numberofpeople'
p3137
S'2'
sS'theater'
p3138
S'amc pacific place 11 theater'
p3139
sS'starttime'
p3140
S'9:00 pm'
p3141
sS'date'
p3142
S'tomorrow'
p3143
sS'moviename'
p3144
S'deadpool'
p3145
ssa(dp3146
g3
(dp3147
S'theater'
p3148
g6
sS'moviename'
p3149
g6
ssg7
g8
sg9
(dp3150
S'city'
p3151
S'st louis'
p3152
sS'numberofpeople'
p3153
S'2'
sS'numberofkids'
p3154
S'2'
sS'genre'
p3155
S'not live action'
p3156
sS'other'
p3157
S'pizza place'
p3158
sS'starttime'
p3159
S'between say 4pm and 7pm'
p3160
sS'date'
p3161
S'saturday'
p3162
ssa(dp3163
g3
(dp3164
S'ticket'
p3165
g6
sg171
g6
ssg7
g8
sg9
(dp3166
S'city'
p3167
S'knoxville'
p3168
sS'numberofpeople'
p3169
S'2'
sS'distanceconstraints'
p3170
S'downtown'
p3171
sS'video_format'
p3172
S'3d'
p3173
sS'state'
p3174
S'tn'
p3175
sS'starttime'
p3176
S'evening around 7'
p3177
sS'date'
p3178
S'tomorrow'
p3179
sS'moviename'
p3180
S'the witch'
p3181
ssa(dp3182
g3
(dp3183
S'ticket'
p3184
g6
ssg7
g8
sg9
(dp3185
S'city'
p3186
S'seattle'
p3187
sS'numberofpeople'
p3188
S'2'
sS'theater'
p3189
S'amc pacific place 11 theater'
p3190
sS'starttime'
p3191
S'10:00 pm'
p3192
sS'date'
p3193
S'tomorrow'
p3194
sS'moviename'
p3195
S'race'
p3196
ssa(dp3197
g3
(dp3198
g64
g6
ssg7
g8
sg9
(dp3199
S'theater_chain'
p3200
S'amc theater'
p3201
sS'numberofpeople'
p3202
S'2'
sS'theater'
p3203
S'mesa grand 24'
p3204
sS'zip'
p3205
S'85249'
p3206
sS'actress'
p3207
S'tina fey'
p3208
sS'date'
p3209
S'friday'
p3210
sS'starttime'
p3211
S'7:25'
p3212
sS'genre'
p3213
S'comedy'
p3214
sS'moviename'
p3215
S'moviename'
p3216
ssa(dp3217
g3
(dp3218
g171
g6
sS'ticket'
p3219
g6
sS'moviename'
p3220
g6
ssg7
g8
sg9
(dp3221
S'numberofpeople'
p3222
S'2'
sS'distanceconstraints'
p3223
S'near safeco field'
p3224
sS'date'
p3225
S'tonight'
p3226
sS'other'
p3227
S'pizza restaurant'
p3228
sS'starttime'
p3229
S'the next'
p3230
sS'genre'
p3231
S'drama'
p3232
ssa(dp3233
g3
(dp3234
S'ticket'
p3235
g6
ssg7
g8
sg9
(dp3236
S'city'
p3237
S'seattle'
p3238
sS'numberofpeople'
p3239
S'2'
sS'theater'
p3240
S'regal meridian 16'
p3241
sS'starttime'
p3242
S'9:10 pm'
p3243
sS'date'
p3244
S'tomorrow'
p3245
sS'moviename'
p3246
S'zootopia'
p3247
ssa(dp3248
g3
(dp3249
g171
g6
sS'ticket'
p3250
g6
sS'moviename'
p3251
g6
ssg7
g8
sg9
(dp3252
S'city'
p3253
S'safeco field'
p3254
sS'numberofpeople'
p3255
S'2'
sS'description'
p3256
S'highest rated pizza'
p3257
sS'distanceconstraints'
p3258
S'near'
p3259
sS'date'
p3260
S'tonight'
p3261
sS'other'
p3262
S'restaurant'
p3263
sS'starttime'
p3264
S'the next showing'
p3265
sS'genre'
p3266
S'drama'
p3267
ssa(dp3268
g3
(dp3269
g64
g6
ssg7
g8
sg9
(dp3270
S'city'
p3271
S'birmingham'
p3272
sS'numberofpeople'
p3273
S'2'
sS'theater'
p3274
S'carmike summit 16'
p3275
sS'state'
p3276
S'al'
p3277
sS'starttime'
p3278
S'around 2pm'
p3279
sS'date'
p3280
S'sunday'
p3281
sS'moviename'
p3282
S'deadpool'
p3283
ssa(dp3284
g3
(dp3285
S'ticket'
p3286
g6
sS'moviename'
p3287
g6
sS'description'
p3288
g6
ssg7
g8
sg9
(dp3289
S'date'
p3290
S'thursday'
p3291
sS'numberofpeople'
p3292
S'2'
sS'theater'
p3293
S'fairview'
p3294
sS'starttime'
p3295
S'night'
p3296
ssa(dp3297
g3
(dp3298
S'ticket'
p3299
g6
ssg7
g8
sg9
(dp3300
S'city'
p3301
S'miami'
p3302
sS'numberofpeople'
p3303
S'2'
sS'theater'
p3304
S'regal south beach'
p3305
sS'starttime'
p3306
S'7:40'
p3307
sS'date'
p3308
S'friday'
p3309
sS'moviename'
p3310
S'brothers grimsby'
p3311
ssa(dp3312
g3
(dp3313
S'ticket'
p3314
g6
ssg7
g8
sg9
(dp3315
S'city'
p3316
S'seattle'
p3317
sS'numberofpeople'
p3318
S'2'
sS'theater'
p3319
S'regal meridian 16'
p3320
sS'starttime'
p3321
S'8:45 pm'
p3322
sS'date'
p3323
S'tomorrow'
p3324
sS'moviename'
p3325
S'big short'
p3326
ssa(dp3327
g3
(dp3328
S'city'
p3329
g6
sS'ticket'
p3330
g6
sS'moviename'
p3331
g6
sg171
g6
ssg7
g8
sg9
(dp3332
S'city'
p3333
S'st louis'
p3334
sS'numberofpeople'
p3335
S'2'
sS'numberofkids'
p3336
S'2'
sS'genre'
p3337
S'not live action'
p3338
sS'other'
p3339
S'pizza place'
p3340
sS'starttime'
p3341
S'between 4pm and 7pm'
p3342
sS'date'
p3343
S'saturday'
p3344
ssa(dp3345
g3
(dp3346
S'ticket'
p3347
g6
sS'moviename'
p3348
g6
ssg7
g8
sg9
(dp3349
S'city'
p3350
S'la'
p3351
sS'numberofpeople'
p3352
S'3'
sS'theater'
p3353
S'amc la mirada'
p3354
sS'date'
p3355
S'saturday'
p3356
sS'other'
p3357
S'laughable'
p3358
sS'starttime'
p3359
S'7:20'
p3360
sS'genre'
p3361
S'horror'
p3362
ssa(dp3363
g3
(dp3364
g270
g6
sS'theater'
p3365
g6
sS'moviename'
p3366
g6
sg29
g6
ssg7
g8
sg9
(dp3367
S'city'
p3368
S'st louis'
p3369
sg68
S'2'
sS'distanceconstraints'
p3370
S'near here'
p3371
sS'critic_rating'
p3372
S'nice'
p3373
sS'greeting'
p3374
S'hi'
p3375
sS'other'
p3376
S'subtitles'
p3377
sS'genre'
p3378
S'foreign'
p3379
ssa(dp3380
g3
(dp3381
S'theater'
p3382
g6
ssg7
g8
sg9
(dp3383
S'city'
p3384
S'seattle'
p3385
sS'numberofpeople'
p3386
S'2'
sS'distanceconstraints'
p3387
S'south side'
p3388
sS'video_format'
p3389
S'imax 3d'
p3390
sS'state'
p3391
S'wa'
p3392
sS'starttime'
p3393
S'7:30'
p3394
sS'date'
p3395
S'this evening'
p3396
sS'moviename'
p3397
S'zootopia'
p3398
ssa(dp3399
g3
(dp3400
S'ticket'
p3401
g6
ssg7
g8
sg9
(dp3402
S'city'
p3403
S'seattle'
p3404
sS'numberofpeople'
p3405
S'2'
sS'theater'
p3406
S'regal meridian 16'
p3407
sS'starttime'
p3408
S'9:30 pm'
p3409
sS'date'
p3410
S'tomorrow'
p3411
sS'moviename'
p3412
S'the witch'
p3413
ssa(dp3414
g3
(dp3415
S'ticket'
p3416
g6
ssg7
g8
sg9
(dp3417
S'city'
p3418
S'seattle'
p3419
sS'numberofpeople'
p3420
S'2'
sS'theater'
p3421
S'regal meridian 16'
p3422
sS'starttime'
p3423
S'9:10 pm'
p3424
sS'date'
p3425
S'tomorrow'
p3426
sS'moviename'
p3427
S'zootopia'
p3428
ssa(dp3429
g3
(dp3430
S'starttime'
p3431
g6
ssg7
g8
sg9
(dp3432
S'city'
p3433
S'chico'
p3434
sS'numberofpeople'
p3435
S'1'
sS'theater'
p3436
S'cinemark 14'
p3437
sS'date'
p3438
S'tomorrow'
p3439
sS'state'
p3440
S'ca'
p3441
sS'genre'
p3442
S'drama'
p3443
sS'moviename'
p3444
S'risen'
p3445
ssa(dp3446
g3
(dp3447
g270
g6
sS'price'
p3448
g6
sS'starttime'
p3449
g6
ssg7
g8
sg9
(dp3450
S'moviename'
p3451
S'10 cloverfield lane'
p3452
sS'numberofpeople'
p3453
S'4'
sS'other'
p3454
S'matinee'
p3455
sS'theater'
p3456
S'beaver creek stadium 12'
p3457
ssa(dp3458
g3
(dp3459
S'ticket'
p3460
g6
sS'theater'
p3461
g6
ssg7
g8
sg9
(dp3462
S'city'
p3463
S'seattle'
p3464
sS'numberofpeople'
p3465
S'2'
sS'distanceconstraints'
p3466
S'near me'
p3467
sS'critic_rating'
p3468
S'good'
p3469
sS'video_format'
p3470
S'3d'
p3471
sS'state'
p3472
S'wa'
p3473
sS'other'
p3474
S'good restaurant'
p3475
sS'starttime'
p3476
S'7:30'
p3477
sS'date'
p3478
S'tomorrow'
p3479
sS'moviename'
p3480
S'zootopia'
p3481
ssa(dp3482
g3
(dp3483
g171
g6
sS'moviename'
p3484
g6
ssg7
g8
sg9
(dp3485
S'genre'
p3486
S'action'
p3487
sS'date'
p3488
S'next saturday'
p3489
sg68
S'2'
sS'starttime'
p3490
S'closest to noon'
p3491
sS'zip'
p3492
S'90601'
p3493
ssa(dp3494
g3
(dp3495
g64
g6
ssg7
g8
sg9
(dp3496
S'city'
p3497
S'seattle'
p3498
sS'numberofpeople'
p3499
S'2'
sS'theater'
p3500
S'regal meridian 16'
p3501
sS'starttime'
p3502
S'9:00 pm'
p3503
sS'date'
p3504
S'tomorrow'
p3505
sS'moviename'
p3506
S'spotlight'
p3507
ssa(dp3508
g3
(dp3509
g171
g6
sS'moviename'
p3510
g6
ssg7
g8
sg9
(dp3511
S'city'
p3512
S'evanston'
p3513
sS'numberofpeople'
p3514
S'2'
sS'critic_rating'
p3515
S'top rated'
p3516
sS'state'
p3517
S'illinois'
p3518
sS'starttime'
p3519
S'4:05pm'
p3520
sS'date'
p3521
S'tomorrow'
p3522
ssa(dp3523
g3
(dp3524
g64
g6
sg171
g6
ssg7
g8
sg9
(dp3525
S'city'
p3526
S'wilmington'
p3527
sS'numberofpeople'
p3528
S'2'
sS'state'
p3529
S'nc'
p3530
sS'other'
p3531
S'george on the riverwak'
p3532
sS'starttime'
p3533
S'kinky there'
p3534
sS'date'
p3535
S'this date'
p3536
sS'moviename'
p3537
S'the perfect match'
p3538
ssa(dp3539
g3
(dp3540
S'ticket'
p3541
g6
sS'theater'
p3542
g6
ssg7
g8
sg9
(dp3543
S'city'
p3544
S'seattle'
p3545
sS'numberofpeople'
p3546
S'4'
sS'distanceconstraints'
p3547
S'downtown'
p3548
sS'state'
p3549
S'oregon'
p3550
sS'other'
p3551
S'little late'
p3552
sS'starttime'
p3553
S'after 7pm'
p3554
sS'date'
p3555
S'tomorrow'
p3556
sS'moviename'
p3557
S'star wars the force awakens'
p3558
ssa(dp3559
g3
(dp3560
S'ticket'
p3561
g6
ssg7
g8
sg9
(dp3562
S'city'
p3563
S'seattle'
p3564
sS'numberofpeople'
p3565
S'2'
sS'theater'
p3566
S'amc lowes oak tree 6'
p3567
sS'starttime'
p3568
S'4:50 pm'
p3569
sS'date'
p3570
S'tomorrow'
p3571
sS'moviename'
p3572
S'race'
p3573
ssa(dp3574
g3
(dp3575
S'ticket'
p3576
g6
ssg7
g8
sg9
(dp3577
S'city'
p3578
S'seattle'
p3579
sS'numberofpeople'
p3580
S'2'
sS'theater'
p3581
S'amc pacific place 11 theater'
p3582
sS'starttime'
p3583
S'10:00 pm'
p3584
sS'date'
p3585
S'tomorrow'
p3586
sS'moviename'
p3587
S'race'
p3588
ssa(dp3589
g3
(dp3590
g171
g6
sS'moviename'
p3591
g6
sg29
g6
ssg7
g8
sg9
(dp3592
S'date'
p3593
S'this weekend'
p3594
sg68
S'3'
ssa(dp3595
g3
(dp3596
S'ticket'
p3597
g6
ssg7
g8
sg9
(dp3598
S'city'
p3599
S'seattle'
p3600
sS'numberofpeople'
p3601
S'2'
sS'theater'
p3602
S'regal meridian 16'
p3603
sS'starttime'
p3604
S'9:30 pm'
p3605
sS'date'
p3606
S'tomorrow'
p3607
sS'moviename'
p3608
S'the witch'
p3609
ssa(dp3610
g3
(dp3611
S'ticket'
p3612
g6
ssg7
g8
sg9
(dp3613
S'city'
p3614
S'seattle'
p3615
sS'numberofpeople'
p3616
S'2'
sS'theater'
p3617
S'regal meridian 16'
p3618
sS'starttime'
p3619
S'9:30 pm'
p3620
sS'date'
p3621
S'tomorrow'
p3622
sS'moviename'
p3623
S'the witch'
p3624
ssa(dp3625
g3
(dp3626
g64
g6
ssg7
g8
sg9
(dp3627
S'city'
p3628
S'birmingham'
p3629
sg68
S'2'
sS'theater'
p3630
S'carmike summit 16'
p3631
sS'state'
p3632
S'al'
p3633
sS'starttime'
p3634
S'2pm'
p3635
sS'date'
p3636
S'tomorrow'
p3637
sS'moviename'
p3638
S'deadpool'
p3639
ssa(dp3640
g3
(dp3641
S'theater'
p3642
g6
sS'starttime'
p3643
g6
ssg7
g8
sg9
(dp3644
S'city'
p3645
S'seattle'
p3646
sg68
S'2'
sS'zip'
p3647
S'98121'
p3648
sS'state'
p3649
S'wa'
p3650
sS'date'
p3651
S'21-mar'
p3652
sS'moviename'
p3653
S'deadpool'
p3654
ssa(dp3655
g3
(dp3656
g64
g6
ssg7
g8
sg9
(dp3657
S'city'
p3658
S'birmingham'
p3659
sS'numberofpeople'
p3660
S'2'
sS'theater'
p3661
S'carmike summit 16'
p3662
sS'state'
p3663
S'al'
p3664
sS'starttime'
p3665
S'around 2pm'
p3666
sS'date'
p3667
S'thursday'
p3668
sS'moviename'
p3669
S'deadpool'
p3670
ssa(dp3671
g3
(dp3672
S'ticket'
p3673
g6
sg171
g6
ssg7
g8
sg9
(dp3674
S'date'
p3675
S'next friday'
p3676
sS'numberofpeople'
p3677
S'4'
sS'moviename'
p3678
S'eddie the eagle'
p3679
sS'starttime'
p3680
S'4:20'
p3681
sS'zip'
p3682
S'94952'
p3683
ssa(dp3684
g3
(dp3685
S'ticket'
p3686
g6
sg171
g6
ssg7
g8
sg9
(dp3687
S'date'
p3688
S'next sunday'
p3689
sS'numberofpeople'
p3690
S'two'
p3691
sS'moviename'
p3692
S'london has fallen'
p3693
sS'starttime'
p3694
S'between noon and 4pm'
p3695
sS'zip'
p3696
S'90602'
p3697
ssa(dp3698
g3
(dp3699
g64
g6
ssg7
g8
sg9
(dp3700
S'city'
p3701
S'lansing'
p3702
sS'numberofpeople'
p3703
S'2'
sS'theater'
p3704
S'ncg eastwood cinemas'
p3705
sS'greeting'
p3706
S'hey there'
p3707
sS'genre'
p3708
S'comedy'
p3709
sS'state'
p3710
S'michigan'
p3711
sS'starttime'
p3712
S'4:25'
p3713
sS'date'
p3714
S'tomorrow'
p3715
sS'moviename'
p3716
S'whiskey tango foxtrot'
p3717
ssa(dp3718
g3
(dp3719
g270
g6
sg354
g6
sS'theater'
p3720
g6
sg29
g6
ssg7
g8
sg9
(dp3721
S'distanceconstraints'
p3722
S'near the space needle'
p3723
sg68
S'1'
sS'other'
p3724
S'I can order beer in'
p3725
ssa(dp3726
g3
(dp3727
g171
g6
sS'moviename'
p3728
g6
ssg7
g8
sg9
(dp3729
S'city'
p3730
S'seattle'
p3731
sS'numberofpeople'
p3732
S'2'
sS'zip'
p3733
S'70070'
p3734
sS'date'
p3735
S'tomorrow'
p3736
sS'starttime'
p3737
S'5pm'
p3738
sS'genre'
p3739
S'funny'
p3740
ssa(dp3741
g3
(dp3742
g171
g6
sS'ticket'
p3743
g6
sS'moviename'
p3744
g6
sS'description'
p3745
g6
ssg7
g8
sg9
(dp3746
S'date'
p3747
S'thursday'
p3748
sS'city'
p3749
S'bayou vista'
p3750
sS'state'
p3751
S'la'
p3752
sS'numberofpeople'
p3753
S'2'
sS'starttime'
p3754
S'anytime'
p3755
ssa(dp3756
g3
(dp3757
S'ticket'
p3758
g6
sS'theater'
p3759
g6
ssg7
g8
sg9
(dp3760
S'date'
p3761
S'friday march 11'
p3762
sS'state'
p3763
S'california'
p3764
sS'numberofpeople'
p3765
S'three'
p3766
sS'moviename'
p3767
S'zootopia'
p3768
sS'starttime'
p3769
S'4:25pm'
p3770
ssa(dp3771
g3
(dp3772
g171
g6
sS'moviename'
p3773
g6
ssg7
g8
sg9
(dp3774
S'city'
p3775
S'seattle'
p3776
sg68
S'2'
sS'critic_rating'
p3777
S'best'
p3778
sS'date'
p3779
S'tonight'
p3780
sS'state'
p3781
S'washington'
p3782
sS'other'
p3783
S"don't know"
p3784
sS'starttime'
p3785
S'9'
sS'genre'
p3786
S'romance'
p3787
ssa(dp3788
g3
(dp3789
g64
g6
ssg7
g8
sg9
(dp3790
S'city'
p3791
S'portland'
p3792
sS'numberofpeople'
p3793
S'2'
sS'theater'
p3794
S'regal pioneer place stadium'
p3795
sS'state'
p3796
S'oregon'
p3797
sS'starttime'
p3798
S'10 pm#some time close to that'
p3799
sS'date'
p3800
S'saturday'
p3801
sS'moviename'
p3802
S'10 cloverfield lane'
p3803
ssa(dp3804
g3
(dp3805
g171
g6
sS'moviename'
p3806
g6
ssg7
g8
sg9
(dp3807
S'city'
p3808
S'houma'
p3809
sS'numberofpeople'
p3810
S'4'
sS'description'
p3811
S'good intelligent'
p3812
sS'greeting'
p3813
S'hi'
p3814
sS'genre'
p3815
S'comedy'
p3816
sS'state'
p3817
S'louisiana'
p3818
sS'starttime'
p3819
S'740'
p3820
sS'date'
p3821
S'9th'
p3822
ssa(dp3823
g3
(dp3824
g171
g6
sS'moviename'
p3825
g6
ssg7
g8
sg9
(dp3826
S'date'
p3827
S'march 12'
p3828
sS'city'
p3829
S'tulare'
p3830
sS'state'
p3831
S'california'
p3832
sS'numberofpeople'
p3833
S'two'
p3834
sS'starttime'
p3835
S'7:20'
p3836
ssa(dp3837
g3
(dp3838
g171
g6
sS'ticket'
p3839
g6
sS'moviename'
p3840
g6
ssg7
g8
sg9
(dp3841
S'city'
p3842
S'shiloh'
p3843
sS'numberofpeople'
p3844
S'2'
sS'date'
p3845
S'Tuesday the 8th'
p3846
sS'state'
p3847
S'illinois'
p3848
sS'other'
p3849
S'closed'
p3850
sS'starttime'
p3851
S'between 2 and 4pm'
p3852
sS'genre'
p3853
S'romantic comedies'
p3854
ssa(dp3855
g3
(dp3856
g270
g6
sg64
g6
ssg7
g8
sg9
(dp3857
S'moviename'
p3858
S'deadpool'
p3859
sS'numberofpeople'
p3860
S'2'
sS'theater'
p3861
S'royal oak emagine theater'
p3862
sS'greeting'
p3863
S'hi there'
p3864
sS'starttime'
p3865
S'between 8-10 pm'
p3866
ssa(dp3867
g3
(dp3868
S'ticket'
p3869
g6
ssg7
g8
sg9
(dp3870
S'city'
p3871
S'seattle'
p3872
sS'numberofpeople'
p3873
S'2'
sS'theater'
p3874
S'regal meridian 16'
p3875
sS'starttime'
p3876
S'9:25 pm'
p3877
sS'date'
p3878
S'tomorrow'
p3879
sS'moviename'
p3880
S'zoolander 2'
p3881
ssa(dp3882
g3
(dp3883
g270
g6
sS'moviename'
p3884
g6
sS'theater'
p3885
g6
ssg7
g8
sg9
(dp3886
S'genre'
p3887
S'comedies'
p3888
sS'city'
p3889
S'seattle'
p3890
sS'numberofpeople'
p3891
S'2'
sS'other'
p3892
S'serve alcohol'
p3893
sS'starttime'
p3894
S'6pm'
p3895
ssa(dp3896
g3
(dp3897
S'ticket'
p3898
g6
sg354
g6
ssg7
g8
sg9
(dp3899
S'date'
p3900
S'tomorrow'
p3901
sS'city'
p3902
S'seattle'
p3903
sS'numberofpeople'
p3904
S'2'
sS'theater'
p3905
S'amc lowes oak tree 6'
p3906
sS'starttime'
p3907
S'4:50 pm'
p3908
ssa(dp3909
g3
(dp3910
S'ticket'
p3911
g6
ssg7
g8
sg9
(dp3912
S'city'
p3913
S'las vegas'
p3914
sS'numberofpeople'
p3915
S'two'
p3916
sS'theater'
p3917
S'southpoint casino'
p3918
sS'starttime'
p3919
S'10:35'
p3920
sS'date'
p3921
S'3/10'
p3922
sS'moviename'
p3923
S'the other side of the door'
p3924
ssa(dp3925
g3
(dp3926
g270
g6
sg171
g6
sS'moviename'
p3927
g6
sg29
g6
ssg7
g8
sg9
(dp3928
S'genre'
p3929
S'scary'
p3930
sS'city'
p3931
S'chicago'
p3932
sS'state'
p3933
S'il'
p3934
sg68
S'1'
sS'greeting'
p3935
S'hi'
p3936
ssa(dp3937
g3
(dp3938
S'ticket'
p3939
g6
ssg7
g8
sg9
(dp3940
S'city'
p3941
S'seattle'
p3942
sS'numberofpeople'
p3943
S'2'
sS'theater'
p3944
S'regal thornton place'
p3945
sS'distanceconstraints'
p3946
S'north side'
p3947
sS'greeting'
p3948
S'hi'
p3949
sS'starttime'
p3950
S'6:40 pm'
p3951
sS'date'
p3952
S'tomorrow'
p3953
sS'moviename'
p3954
S'zootopia'
p3955
ssa(dp3956
g3
(dp3957
S'ticket'
p3958
g6
sg171
g6
sS'description'
p3959
g6
ssg7
g8
sg9
(dp3960
S'city'
p3961
S'carbondale'
p3962
sS'numberofpeople'
p3963
S'5'
sS'distanceconstraints'
p3964
S'general'
p3965
sS'state'
p3966
S'illinois'
p3967
sS'other'
p3968
S"I'm not from around here"
p3969
sS'starttime'
p3970
S'after 6pm'
p3971
sS'date'
p3972
S'friday11th'
p3973
sS'moviename'
p3974
S'10 cloverfield lane'
p3975
ssa(dp3976
g3
(dp3977
S'ticket'
p3978
g6
sg171
g6
sg29
g6
ssg7
g8
sg9
(dp3979
S'date'
p3980
S'Friday the 10th'
p3981
sS'city'
p3982
S'seattle'
p3983
sS'numberofpeople'
p3984
S'8'
sS'moviename'
p3985
S'gods egypt'
p3986
ssa(dp3987
g3
(dp3988
g64
g6
ssg7
g8
sg9
(dp3989
S'city'
p3990
S'seattle'
p3991
sS'numberofpeople'
p3992
S'2'
sS'theater'
p3993
S'regal meridian 16 theater'
p3994
sS'starttime'
p3995
S'8:45 pm'
p3996
sS'date'
p3997
S'tomorrow'
p3998
sS'moviename'
p3999
S'hail caesar'
p4000
ssa(dp4001
g3
(dp4002
S'ticket'
p4003
g6
sg171
g6
ssg7
g8
sg9
(dp4004
S'date'
p4005
S'tomorrow'
p4006
sS'city'
p4007
S'seattle'
p4008
sS'numberofpeople'
p4009
S'one'
p4010
sS'moviename'
p4011
S'zootopia'
p4012
sS'starttime'
p4013
S'night'
p4014
ssa(dp4015
g3
(dp4016
S'ticket'
p4017
g6
ssg7
g8
sg9
(dp4018
S'city'
p4019
S'seattle'
p4020
sS'numberofpeople'
p4021
S'2'
sS'theater'
p4022
S'amc pacific place 11 theater'
p4023
sS'starttime'
p4024
S'10:00 pm'
p4025
sS'date'
p4026
S'tomorrow'
p4027
sS'moviename'
p4028
S'race'
p4029
ssa(dp4030
g3
(dp4031
S'ticket'
p4032
g6
ssg7
g8
sg9
(dp4033
g68
S'4'
sS'theater'
p4034
S'amc river east 21'
p4035
sS'greeting'
p4036
S'hello'
p4037
sS'video_format'
p4038
S'2d'
p4039
sS'starttime'
p4040
S'night'
p4041
sS'date'
p4042
S'tomorrow'
p4043
sS'moviename'
p4044
S'zootopia'
p4045
ssa(dp4046
g3
(dp4047
g64
g6
ssg7
g8
sg9
(dp4048
S'city'
p4049
S'seattle'
p4050
sS'numberofpeople'
p4051
S'2'
sS'theater'
p4052
S'amc pacific place 11 theater'
p4053
sS'starttime'
p4054
S'10:00 pm'
p4055
sS'date'
p4056
S'tomorrow'
p4057
sS'moviename'
p4058
S'race'
p4059
ssa(dp4060
g3
(dp4061
S'ticket'
p4062
g6
ssg7
g8
sg9
(dp4063
S'city'
p4064
S'seattle'
p4065
sS'numberofpeople'
p4066
S'2'
sS'theater'
p4067
S'regal meridian 16'
p4068
sS'greeting'
p4069
S'hello'
p4070
sS'other'
p4071
S'indian restaurant'
p4072
sS'starttime'
p4073
S'9:20 pm'
p4074
sS'date'
p4075
S'tomorrow'
p4076
sS'moviename'
p4077
S'london has fallen'
p4078
ssa(dp4079
g3
(dp4080
g270
g6
sg171
g6
sg64
g6
sg354
g6
sg29
g6
ssg7
g8
sg9
(dp4081
S'city'
p4082
S'seattle'
p4083
sg68
S'5'
sS'other'
p4084
S'restaurants'
p4085
ssa(dp4086
g3
(dp4087
g64
g6
sg354
g6
ssg7
g8
sg9
(dp4088
S'city'
p4089
S'miami'
p4090
sS'numberofpeople'
p4091
S'one'
p4092
sS'theater'
p4093
S'cinepolis coconut grove'
p4094
sS'date'
p4095
S'tomorrow'
p4096
sS'starttime'
p4097
S'around noon'
p4098
sS'genre'
p4099
S'sci-fi'
p4100
ssa(dp4101
g3
(dp4102
g171
g6
sS'moviename'
p4103
g6
ssg7
g8
sg9
(dp4104
S'theater_chain'
p4105
S'regency'
p4106
sg68
S'3'
sS'city'
p4107
S'seattle'
p4108
sS'date'
p4109
S'any day this week'
p4110
sS'starttime'
p4111
S'9:30 pm'
p4112
sS'genre'
p4113
S'action'
p4114
ssa(dp4115
g3
(dp4116
S'ticket'
p4117
g6
ssg7
g8
sg9
(dp4118
S'city'
p4119
S'seattle'
p4120
sS'numberofpeople'
p4121
S'2'
sS'theater'
p4122
S'amc lowes oak tree 6'
p4123
sS'starttime'
p4124
S'7:15 pm'
p4125
sS'date'
p4126
S'tomorrow'
p4127
sS'moviename'
p4128
S'hail caesar'
p4129
ssa(dp4130
g3
(dp4131
g64
g6
ssg7
g8
sg9
(dp4132
S'city'
p4133
S'seattle'
p4134
sS'numberofpeople'
p4135
S'6'
sS'theater'
p4136
S'amc lowes oak tree'
p4137
sS'starttime'
p4138
S'7:10 pm'
p4139
sS'date'
p4140
S'tomorrow'
p4141
sS'moviename'
p4142
S'triple 9'
p4143
ssa(dp4144
g3
(dp4145
g171
g6
sS'ticket'
p4146
g6
sS'moviename'
p4147
g6
ssg7
g8
sg9
(dp4148
S'city'
p4149
S'carbondale'
p4150
sS'numberofpeople'
p4151
S'4'
sS'description'
p4152
S'scary'
p4153
sS'greeting'
p4154
S'hi'
p4155
sS'date'
p4156
S'tuesday'
p4157
sS'state'
p4158
S'illinois'
p4159
sS'other'
p4160
S'before dinner'
p4161
sS'starttime'
p4162
S'anytime after 7pm'
p4163
sS'genre'
p4164
S'thriller'
p4165
ssa(dp4166
g3
(dp4167
S'ticket'
p4168
g6
sS'moviename'
p4169
g6
sS'starttime'
p4170
g6
ssg7
g8
sg9
(dp4171
S'city'
p4172
S'seattle'
p4173
sS'numberofpeople'
p4174
S'two'
p4175
sS'theater'
p4176
S'regal meridian'
p4177
sS'numberofkids'
p4178
S'two'
p4179
sS'date'
p4180
S'tomorrow'
p4181
sS'moviename'
p4182
S'zootopia'
p4183
ssa(dp4184
g3
(dp4185
g64
g6
sg171
g6
ssg7
g8
sg9
(dp4186
S'city'
p4187
S'las vegas'
p4188
sS'numberofpeople'
p4189
S'two'
p4190
sS'state'
p4191
S'nv'
p4192
sS'starttime'
p4193
S'10:05 pm'
p4194
sS'date'
p4195
S'tomrrow'
p4196
sS'moviename'
p4197
S'zootopia'
p4198
ssa(dp4199
g3
(dp4200
S'ticket'
p4201
g6
ssg7
g8
sg9
(dp4202
S'city'
p4203
S'seattle'
p4204
sS'numberofpeople'
p4205
S'2'
sS'theater'
p4206
S'amc pacific place 11 theater'
p4207
sS'starttime'
p4208
S'9:00 pm'
p4209
sS'date'
p4210
S'tomorrow'
p4211
sS'moviename'
p4212
S'deadpool'
p4213
ssa.