(lp1
(dp2
S'request_slots'
p3
(dp4
sS'diaact'
p5
S'request'
p6
sS'inform_slots'
p7
(dp8
S'city'
p9
S'birmingham'
p10
sS'numberofpeople'
p11
S'1'
sS'theater'
p12
S'carmike summit 16'
p13
sS'state'
p14
S'al'
p15
sS'starttime'
p16
S'around 2pm'
p17
sS'date'
p18
S'today'
p19
sS'moviename'
p20
S'zootopia'
p21
ssa(dp22
g3
(dp23
sg5
g6
sg7
(dp24
S'city'
p25
S'seattle'
p26
sS'numberofpeople'
p27
S'2'
sS'theater'
p28
S'amc pacific place 11 theater'
p29
sS'starttime'
p30
S'9:00 pm'
p31
sS'date'
p32
S'tomorrow'
p33
sS'moviename'
p34
S'deadpool'
p35
ssa(dp36
g3
(dp37
sg5
g6
sg7
(dp38
S'city'
p39
S'birmingham'
p40
sg11
S'4'
sS'theater'
p41
S'carmike summit 16'
p42
sS'state'
p43
S'al'
p44
sS'starttime'
p45
S'around 6pm'
p46
sS'date'
p47
S'today'
p48
sS'moviename'
p49
S'deadpool'
p50
ssa(dp51
g3
(dp52
sg5
g6
sg7
(dp53
S'city'
p54
S'seattle'
p55
sS'numberofpeople'
p56
S'2'
sS'theater'
p57
S'regal meridian 16'
p58
sS'starttime'
p59
S'9:10 pm'
p60
sS'date'
p61
S'tomorrow'
p62
sS'moviename'
p63
S'zootopia'
p64
ssa(dp65
g3
(dp66
sg5
g6
sg7
(dp67
S'city'
p68
S'seattle'
p69
sS'numberofpeople'
p70
S'2'
sS'theater'
p71
S'regal meridian 16'
p72
sS'starttime'
p73
S'8:45 pm'
p74
sS'date'
p75
S'tomorrow'
p76
sS'moviename'
p77
S'hail caesar'
p78
ssa(dp79
g3
(dp80
S'date'
p81
S'UNK'
p82
sS'theater'
p83
g82
sS'starttime'
p84
g82
ssg5
g6
sg7
(dp85
S'city'
p86
S'portland'
p87
sS'state'
p88
S'oregon'
p89
sg11
S'5'
sS'moviename'
p90
S'star wars'
p91
ssa(dp92
g3
(dp93
sg5
g6
sg7
(dp94
S'city'
p95
S'seattle'
p96
sS'numberofpeople'
p97
S'2'
sS'theater'
p98
S'amc pacific place 11 theater'
p99
sS'starttime'
p100
S'9:30 pm'
p101
sS'date'
p102
S'tomorrow'
p103
sS'moviename'
p104
S'room'
p105
ssa(dp106
g3
(dp107
sg5
g6
sg7
(dp108
S'city'
p109
S'seattle'
p110
sS'numberofpeople'
p111
S'2'
sS'theater'
p112
S'regal meridian 16'
p113
sS'starttime'
p114
S'9:30 pm'
p115
sS'date'
p116
S'tomorrow'
p117
sS'moviename'
p118
S'the witch'
p119
ssa(dp120
g3
(dp121
sg5
g6
sg7
(dp122
S'city'
p123
S'seattle'
p124
sS'numberofpeople'
p125
S'2'
sS'theater'
p126
S'regal meridian 16'
p127
sS'starttime'
p128
S'9:30 pm'
p129
sS'date'
p130
S'tomorrow'
p131
sS'moviename'
p132
S'the witch'
p133
ssa(dp134
g3
(dp135
sg5
g6
sg7
(dp136
S'city'
p137
S'seattle'
p138
sS'numberofpeople'
p139
S'6'
sS'theater'
p140
S'amc lowes oak tree'
p141
sS'starttime'
p142
S'7:10 pm'
p143
sS'date'
p144
S'tomorrow'
p145
sS'moviename'
p146
S'triple 9'
p147
ssa(dp148
g3
(dp149
sg5
g6
sg7
(dp150
S'city'
p151
S'seattle'
p152
sS'numberofpeople'
p153
S'2'
sS'theater'
p154
S'regal meridian 16'
p155
sS'starttime'
p156
S'9:10 pm'
p157
sS'date'
p158
S'tomorrow'
p159
sS'moviename'
p160
S'zootopia'
p161
ssa(dp162
g3
(dp163
g83
g82
ssg5
g6
sg7
(dp164
S'city'
p165
S'birmingham'
p166
sS'numberofpeople'
p167
S'2'
sS'state'
p168
S'al'
p169
sS'starttime'
p170
S'4 pm'
p171
sS'date'
p172
S'today'
p173
sS'moviename'
p174
S'deadpool'
p175
ssa(dp176
g3
(dp177
sg5
g6
sg7
(dp178
S'city'
p179
S'seattle'
p180
sS'numberofpeople'
p181
S'2'
sS'theater'
p182
S'regal meridian 16'
p183
sS'starttime'
p184
S'8:45 pm'
p185
sS'date'
p186
S'tomorrow'
p187
sS'moviename'
p188
S'the big short'
p189
ssa(dp190
g3
(dp191
sg5
g6
sg7
(dp192
S'city'
p193
S'seattle'
p194
sS'numberofpeople'
p195
S'2'
sS'theater'
p196
S'regal meridian 16'
p197
sS'starttime'
p198
S'8:45 pm'
p199
sS'date'
p200
S'tomorrow'
p201
sS'moviename'
p202
S'the big short'
p203
ssa(dp204
g3
(dp205
sg5
g6
sg7
(dp206
S'city'
p207
S'seattle'
p208
sS'numberofpeople'
p209
S'2'
sS'theater'
p210
S'regal meridian 16'
p211
sS'starttime'
p212
S'9:10 pm'
p213
sS'date'
p214
S'tomorrow'
p215
sS'moviename'
p216
S'zootopia'
p217
ssa(dp218
g3
(dp219
g81
g82
sg83
g82
ssg5
g6
sg7
(dp220
S'city'
p221
S'stony brook'
p222
sS'state'
p223
S'ny'
p224
sg11
S'1'
sS'moviename'
p225
S' Young Messiah'
p226
sS'starttime'
p227
S' Matinee'
p228
ssa(dp229
g3
(dp230
g81
g82
sg83
g82
sg84
g82
ssg5
g6
sg7
(dp231
S'city'
p232
S'Petaluma'
p233
sS'numberofpeople'
p234
S'4'
sS'moviename'
p235
S'eddie the eagle'
p236
ssa(dp237
g3
(dp238
S'starttime'
p239
g82
ssg5
g6
sg7
(dp240
S'date'
p241
S'tomorrow'
p242
sS'moviename'
p243
S'risen'
p244
sg11
S'3'
sS'theater'
p245
S'regency commerce 14'
p246
ssa(dp247
g3
(dp248
sg5
g6
sg7
(dp249
S'city'
p250
S'seattle'
p251
sS'numberofpeople'
p252
S'2'
sS'theater'
p253
S'regal meridian 16'
p254
sS'starttime'
p255
S'9:25 pm'
p256
sS'date'
p257
S'tomorrow'
p258
sS'moviename'
p259
S'zoolander 2'
p260
ssa(dp261
g3
(dp262
sg5
g6
sg7
(dp263
S'city'
p264
S'seattle'
p265
sS'numberofpeople'
p266
S'2'
sS'theater'
p267
S'amc pacific place 11 theater'
p268
sS'starttime'
p269
S'9:00 pm'
p270
sS'date'
p271
S'tomorrow'
p272
sS'moviename'
p273
S'deadpool'
p274
ssa(dp275
g3
(dp276
g83
g82
ssg5
g6
sg7
(dp277
S'date'
p278
S'saturday'
p279
sg11
S'1'
sS'moviename'
p280
S'zootopia'
p281
sS'starttime'
p282
S'around 2pm'
p283
ssa(dp284
g3
(dp285
sg5
g6
sg7
(dp286
S'city'
p287
S'seattle'
p288
sS'numberofpeople'
p289
S'2'
sS'theater'
p290
S'regal meridian 16'
p291
sS'starttime'
p292
S'9:30 pm'
p293
sS'date'
p294
S'tomorrow'
p295
sS'moviename'
p296
S'the witch'
p297
ssa(dp298
g3
(dp299
g81
g82
sg83
g82
sg84
g82
ssg5
g6
sg7
(dp300
S'numberofpeople'
p301
S'4'
sS'moviename'
p302
S'zootopia'
p303
ssa(dp304
g3
(dp305
g81
g82
sg83
g82
sg84
g82
ssg5
g6
sg7
(dp306
g11
S'4'
sS'moviename'
p307
S'Avengers'
p308
ssa(dp309
g3
(dp310
g81
g82
sg83
g82
sg84
g82
ssg5
g6
sg7
(dp311
S'distanceconstraints'
p312
S'close to 95833'
p313
sg11
S'3'
sS'moviename'
p314
S'zoology'
p315
ssa(dp316
g3
(dp317
sg5
g6
sg7
(dp318
S'city'
p319
S'seattle'
p320
sS'numberofpeople'
p321
S'2'
sS'theater'
p322
S'amc lowes oak tree 6'
p323
sS'starttime'
p324
S'4:50 pm'
p325
sS'date'
p326
S'tomorrow'
p327
sS'moviename'
p328
S'race'
p329
ssa(dp330
g3
(dp331
g81
g82
sg83
g82
sS'starttime'
p332
g82
ssg5
g6
sg7
(dp333
g11
S'3'
sS'moviename'
p334
S'deadpool'
p335
ssa(dp336
g3
(dp337
sg5
g6
sg7
(dp338
S'city'
p339
S'seattle'
p340
sS'numberofpeople'
p341
S'2'
sS'theater'
p342
S'amc lowes oak tree 6'
p343
sS'starttime'
p344
S'7:15 pm'
p345
sS'date'
p346
S'tomorrow'
p347
sS'moviename'
p348
S'hail caesar'
p349
ssa(dp350
g3
(dp351
g83
g82
ssg5
g6
sg7
(dp352
S'city'
p353
S'birmingham'
p354
sS'numberofpeople'
p355
S'2'
sS'state'
p356
S'al'
p357
sS'starttime'
p358
S'around 4pm'
p359
sS'date'
p360
S'today'
p361
sS'moviename'
p362
S'zootopia'
p363
ssa(dp364
g3
(dp365
S'theater'
p366
g82
ssg5
g6
sg7
(dp367
S'date'
p368
S'tomorrow'
p369
sg11
S'5'
sS'moviename'
p370
S'zootopia'
p371
sS'starttime'
p372
S'night'
p373
ssa(dp374
g3
(dp375
sg5
g6
sg7
(dp376
S'city'
p377
S'seattle'
p378
sS'numberofpeople'
p379
S'2'
sS'theater'
p380
S'regal meridian 16'
p381
sS'starttime'
p382
S'9:25 pm'
p383
sS'date'
p384
S'tomorrow'
p385
sS'moviename'
p386
S'zoolander 2'
p387
ssa(dp388
g3
(dp389
S'theater'
p390
g82
sg84
g82
ssg5
g6
sg7
(dp391
S'date'
p392
S'tonight'
p393
sg11
S'1'
sS'moviename'
p394
S'zootopia'
p395
ssa(dp396
g3
(dp397
sg5
g6
sg7
(dp398
S'city'
p399
S'birmingham'
p400
sg11
S'3'
sS'theater'
p401
S'carmike summit 16'
p402
sS'state'
p403
S'al'
p404
sS'starttime'
p405
S'2pm'
p406
sS'date'
p407
S'saturday'
p408
sS'moviename'
p409
S'deadpool'
p410
ssa(dp411
g3
(dp412
g84
g82
ssg5
g6
sg7
(dp413
S'date'
p414
S'tomorrow'
p415
sS'moviename'
p416
S'gods of egypt'
p417
sg11
S'4'
sS'theater'
p418
S'regal theater'
p419
sS'city'
p420
S'sacramento'
p421
ssa(dp422
g3
(dp423
g83
g82
sg84
g82
ssg5
g6
sg7
(dp424
S'date'
p425
S'tomorrow'
p426
sg11
S'3'
sS'moviename'
p427
S'10 cloverfield lane'
p428
ssa(dp429
g3
(dp430
g81
g82
sS'theater'
p431
g82
sg84
g82
ssg5
g6
sg7
(dp432
g11
S'2'
sS'moviename'
p433
S'zootopia'
p434
ssa(dp435
g3
(dp436
sg5
g6
sg7
(dp437
S'city'
p438
S'seattle'
p439
sS'numberofpeople'
p440
S'2'
sS'theater'
p441
S'regal meridian 16'
p442
sS'starttime'
p443
S'9:25 pm'
p444
sS'date'
p445
S'tomorrow'
p446
sS'moviename'
p447
S'zoolander 2'
p448
ssa(dp449
g3
(dp450
S'starttime'
p451
g82
ssg5
g6
sg7
(dp452
S'date'
p453
S'tomorrow'
p454
sS'moviename'
p455
S'risen'
p456
sg11
S'2'
sS'theater'
p457
S'regency commerce 14'
p458
ssa(dp459
g3
(dp460
g83
g82
sg84
g82
ssg5
g6
sg7
(dp461
S'date'
p462
S'this friday'
p463
sg11
S'4'
sS'moviename'
p464
S'star wars'
p465
ssa(dp466
g3
(dp467
g81
g82
sg83
g82
sg84
g82
ssg5
g6
sg7
(dp468
S'city'
p469
S'portland'
p470
sS'state'
p471
S'oregon'
p472
sg11
S'3'
sS'moviename'
p473
S'zootopia'
p474
ssa(dp475
g3
(dp476
g83
g82
sg84
g82
ssg5
g6
sg7
(dp477
S'date'
p478
S'tonight'
p479
sg11
S'5'
sS'moviename'
p480
S'zootopia'
p481
ssa(dp482
g3
(dp483
g81
g82
sg83
g82
sg84
g82
ssg5
g6
sg7
(dp484
S'city'
p485
S'portland'
p486
sS'state'
p487
S'oregon'
p488
sg11
S'5'
sS'moviename'
p489
S'star wars'
p490
ssa(dp491
g3
(dp492
sg5
g6
sg7
(dp493
S'city'
p494
S'seattle'
p495
sS'numberofpeople'
p496
S'2'
sS'theater'
p497
S'regal meridian 16'
p498
sS'starttime'
p499
S'9:10 pm'
p500
sS'date'
p501
S'tomorrow'
p502
sS'moviename'
p503
S'zootopia'
p504
ssa(dp505
g3
(dp506
g83
g82
sg84
g82
ssg5
g6
sg7
(dp507
S'date'
p508
S'tonight'
p509
sg11
S'1'
sS'moviename'
p510
S'zootopia'
p511
ssa(dp512
g3
(dp513
sg5
g6
sg7
(dp514
S'city'
p515
S'seattle'
p516
sS'numberofpeople'
p517
S'2'
sS'theater'
p518
S'regal meridian 16'
p519
sS'starttime'
p520
S'8:45 pm'
p521
sS'date'
p522
S'tomorrow'
p523
sS'moviename'
p524
S'hail caesar'
p525
ssa(dp526
g3
(dp527
g81
g82
sS'theater'
p528
g82
sg84
g82
ssg5
g6
sg7
(dp529
S'distanceconstraints'
p530
S'near me'
p531
sg11
S'4'
sS'moviename'
p532
S'kung fu panda 3'
p533
ssa(dp534
g3
(dp535
sg5
g6
sg7
(dp536
S'city'
p537
S'seattle'
p538
sS'numberofpeople'
p539
S'2'
sS'theater'
p540
S'regal meridian 16'
p541
sS'starttime'
p542
S'8:45 pm'
p543
sS'date'
p544
S'tomorrow'
p545
sS'moviename'
p546
S'hail caesar'
p547
ssa(dp548
g3
(dp549
g81
g82
sg83
g82
sg84
g82
ssg5
g6
sg7
(dp550
S'numberofpeople'
p551
S'two'
p552
sS'moviename'
p553
S'london has fallen'
p554
sS'zip'
p555
S'90602'
p556
ssa(dp557
g3
(dp558
sg5
g6
sg7
(dp559
S'city'
p560
S'seattle'
p561
sS'numberofpeople'
p562
S'2'
sS'theater'
p563
S'regal meridian 16'
p564
sS'starttime'
p565
S'9:10 pm'
p566
sS'date'
p567
S'tomorrow'
p568
sS'moviename'
p569
S'zootopia'
p570
ssa(dp571
g3
(dp572
g83
g82
sg84
g82
ssg5
g6
sg7
(dp573
S'date'
p574
S'tomorrow night'
p575
sS'city'
p576
S'seattle'
p577
sS'numberofpeople'
p578
S'one'
p579
sS'moviename'
p580
S'zootopia'
p581
ssa(dp582
g3
(dp583
g81
g82
sS'theater'
p584
g82
sg84
g82
ssg5
g6
sg7
(dp585
g11
S'2'
sS'moviename'
p586
S'first'
p587
ssa(dp588
g3
(dp589
g83
g82
ssg5
g6
sg7
(dp590
S'date'
p591
S'saturday'
p592
sg11
S'4'
sS'moviename'
p593
S'zootopia'
p594
sS'starttime'
p595
S'around 2pm'
p596
ssa(dp597
g3
(dp598
S'theater'
p599
g82
sg84
g82
ssg5
g6
sg7
(dp600
S'date'
p601
S'tonight'
p602
sg11
S'3'
sS'moviename'
p603
S'zootopia'
p604
ssa(dp605
g3
(dp606
g81
g82
sg83
g82
sg84
g82
ssg5
g6
sg7
(dp607
g11
S'3'
sS'moviename'
p608
S'whiskey tango foxtrot'
p609
ssa(dp610
g3
(dp611
S'theater'
p612
g82
sg84
g82
ssg5
g6
sg7
(dp613
S'date'
p614
S'tomorrow night'
p615
sg11
S'5'
sS'moviename'
p616
S'zootopia'
p617
ssa(dp618
g3
(dp619
g81
g82
sS'theater'
p620
g82
sg84
g82
ssg5
g6
sg7
(dp621
S'distanceconstraints'
p622
S'near me'
p623
sg11
S'1'
sS'moviename'
p624
S'kung fu panda 3'
p625
ssa(dp626
g3
(dp627
g81
g82
sg83
g82
sS'starttime'
p628
g82
ssg5
g6
sg7
(dp629
g11
S'5'
sS'moviename'
p630
S'london has fallen'
p631
ssa(dp632
g3
(dp633
g81
g82
sg83
g82
sg84
g82
ssg5
g6
sg7
(dp634
S'city'
p635
S'portland'
p636
sS'state'
p637
S'oregon'
p638
sg11
S'4'
sS'moviename'
p639
S'whiskey tango foxtrot'
p640
ssa(dp641
g3
(dp642
g81
g82
sg83
g82
sg84
g82
ssg5
g6
sg7
(dp643
g11
S'5'
sS'moviename'
p644
S'deadpool'
p645
ssa(dp646
g3
(dp647
sg5
g6
sg7
(dp648
S'city'
p649
S'seattle'
p650
sS'numberofpeople'
p651
S'2'
sS'theater'
p652
S'amc lowes oak tree 6'
p653
sS'starttime'
p654
S'4:25 pm'
p655
sS'date'
p656
S'tomorrow'
p657
sS'moviename'
p658
S'risen'
p659
ssa(dp660
g3
(dp661
sg5
g6
sg7
(dp662
S'city'
p663
S'seattle'
p664
sS'numberofpeople'
p665
S'2'
sS'theater'
p666
S'pacific place 11 theater'
p667
sS'date'
p668
S'tomorrow'
p669
sS'starttime'
p670
S'9:30 pm'
p671
sS'theater_chain'
p672
S'amc'
p673
sS'moviename'
p674
S'room'
p675
ssa(dp676
g3
(dp677
g81
g82
sS'theater'
p678
g82
sg84
g82
ssg5
g6
sg7
(dp679
S'city'
p680
S'seattle'
p681
sg11
S'2'
sS'moviename'
p682
S'deadpool'
p683
ssa(dp684
g3
(dp685
g83
g82
ssg5
g6
sg7
(dp686
S'date'
p687
S'tomorrow'
p688
sS'city'
p689
S'los angeles'
p690
sg11
S'4'
sS'moviename'
p691
S'deadpool'
p692
sS'starttime'
p693
S'8pm'
p694
ssa(dp695
g3
(dp696
g83
g82
sg84
g82
ssg5
g6
sg7
(dp697
S'date'
p698
S'this weekend'
p699
sg11
S'1'
sS'moviename'
p700
S'batman moviename'
p701
ssa(dp702
g3
(dp703
g81
g82
sg83
g82
sS'starttime'
p704
g82
ssg5
g6
sg7
(dp705
S'distanceconstraints'
p706
S'near me'
p707
sg11
S'5'
sS'moviename'
p708
S'zootopia'
p709
ssa(dp710
g3
(dp711
g83
g82
ssg5
g6
sg7
(dp712
S'date'
p713
S'tomorrow'
p714
sS'city'
p715
S'detroit'
p716
sg11
S'3'
sS'moviename'
p717
S'deadpool'
p718
sS'starttime'
p719
S'7pm'
p720
ssa(dp721
g3
(dp722
g83
g82
ssg5
g6
sg7
(dp723
S'date'
p724
S'tomorrow'
p725
sS'city'
p726
S'regency'
p727
sS'numberofpeople'
p728
S'four'
p729
sS'moviename'
p730
S'creed'
p731
sS'starttime'
p732
S'around noon'
p733
ssa(dp734
g3
(dp735
g83
g82
ssg5
g6
sg7
(dp736
S'date'
p737
S'tomorrow'
p738
sS'city'
p739
S'los angeles'
p740
sg11
S'5'
sS'moviename'
p741
S'zootopia'
p742
sS'starttime'
p743
S'8pm'
p744
ssa(dp745
g3
(dp746
sg5
g6
sg7
(dp747
S'city'
p748
S'seattle'
p749
sS'numberofpeople'
p750
S'2'
sS'theater'
p751
S'amc lowes oak tree 6'
p752
sS'starttime'
p753
S'4:25 pm'
p754
sS'date'
p755
S'tomorrow'
p756
sS'moviename'
p757
S'risen'
p758
ssa(dp759
g3
(dp760
sg5
g6
sg7
(dp761
S'city'
p762
S'seattle'
p763
sS'numberofpeople'
p764
S'2'
sS'theater'
p765
S'amc pacific place 11 theater'
p766
sS'starttime'
p767
S'9:30 pm'
p768
sS'date'
p769
S'tomorrow'
p770
sS'moviename'
p771
S'room'
p772
ssa(dp773
g3
(dp774
sg5
g6
sg7
(dp775
S'city'
p776
S'birmingham'
p777
sg11
S'2'
sS'theater'
p778
S'carmike summit 16'
p779
sS'state'
p780
S'al'
p781
sS'starttime'
p782
S'around 2pm'
p783
sS'date'
p784
S'today'
p785
sS'moviename'
p786
S'london had fallen'
p787
ssa(dp788
g3
(dp789
sg5
g6
sg7
(dp790
S'city'
p791
S'seattle'
p792
sS'numberofpeople'
p793
S'2'
sS'theater'
p794
S'amc lowes oak tree 6'
p795
sS'starttime'
p796
S'4:50 pm'
p797
sS'date'
p798
S'tomorrow'
p799
sS'moviename'
p800
S'room'
p801
ssa(dp802
g3
(dp803
g83
g82
sg84
g82
ssg5
g6
sg7
(dp804
S'date'
p805
S'tomorrow'
p806
sS'city'
p807
S'philadelphia'
p808
sg11
S'3'
sS'moviename'
p809
S'deadpool'
p810
sS'zip'
p811
S'19101'
p812
ssa(dp813
g3
(dp814
sg5
g6
sg7
(dp815
S'city'
p816
S'birmingham'
p817
sS'numberofpeople'
p818
S'2'
sS'theater'
p819
S'carmike summit 16'
p820
sS'state'
p821
S'al'
p822
sS'starttime'
p823
S'around 5pm'
p824
sS'date'
p825
S'tomorrow'
p826
sS'moviename'
p827
S'deadpool'
p828
ssa(dp829
g3
(dp830
sg5
g6
sg7
(dp831
S'city'
p832
S'seattle'
p833
sS'numberofpeople'
p834
S'2'
sS'theater'
p835
S'regal meridian 16'
p836
sS'starttime'
p837
S'8:45 pm'
p838
sS'date'
p839
S'tomorrow'
p840
sS'moviename'
p841
S'The big short'
p842
ssa(dp843
g3
(dp844
g81
g82
sg83
g82
ssg5
g6
sg7
(dp845
g11
S'4'
sS'moviename'
p846
S'zootopia'
p847
sS'starttime'
p848
S'matinee'
p849
ssa(dp850
g3
(dp851
g83
g82
ssg5
g6
sg7
(dp852
S'city'
p853
S'la'
p854
sS'numberofpeople'
p855
S'2'
sS'distanceconstraints'
p856
S'downtown'
p857
sS'video_format'
p858
S'3d'
p859
sS'starttime'
p860
S'7pm'
p861
sS'date'
p862
S'tomorrow'
p863
sS'moviename'
p864
S'creed'
p865
ssa(dp866
g3
(dp867
g81
g82
sg83
g82
sg84
g82
ssg5
g6
sg7
(dp868
S'city'
p869
S'birmingham'
p870
sS'state'
p871
S'al'
p872
sS'numberofpeople'
p873
S'2'
sS'moviename'
p874
S'zootopia'
p875
ssa(dp876
g3
(dp877
sg5
g6
sg7
(dp878
S'city'
p879
S'seattle'
p880
sS'numberofpeople'
p881
S'2'
sS'theater'
p882
S'regal meridian 16'
p883
sS'starttime'
p884
S'9:00 pm'
p885
sS'date'
p886
S'tomorrow'
p887
sS'moviename'
p888
S'spotlight'
p889
ssa(dp890
g3
(dp891
g81
g82
sS'theater'
p892
g82
sg84
g82
ssg5
g6
sg7
(dp893
g11
S'5'
sS'moviename'
p894
S'avengers'
p895
ssa(dp896
g3
(dp897
sg5
g6
sg7
(dp898
S'city'
p899
S'seattle'
p900
sS'numberofpeople'
p901
S'2'
sS'theater'
p902
S'regal meridian 16'
p903
sS'starttime'
p904
S'9:00 pm'
p905
sS'date'
p906
S'tomorrow'
p907
sS'moviename'
p908
S'spotlight'
p909
ssa(dp910
g3
(dp911
sg5
g6
sg7
(dp912
S'city'
p913
S'seattle'
p914
sS'numberofpeople'
p915
S'2'
sS'theater'
p916
S'regal meridian 16'
p917
sS'starttime'
p918
S'8:45 pm'
p919
sS'date'
p920
S'tomorrow'
p921
sS'moviename'
p922
S'hail caesar'
p923
ssa(dp924
g3
(dp925
sg5
g6
sg7
(dp926
S'city'
p927
S'birmingham'
p928
sS'numberofpeople'
p929
S'2'
sS'theater'
p930
S'carmike 16'
p931
sS'state'
p932
S'al'
p933
sS'starttime'
p934
S'2pm'
p935
sS'date'
p936
S'today'
p937
sS'moviename'
p938
S'zootopia'
p939
ssa(dp940
g3
(dp941
g81
g82
sS'theater'
p942
g82
sg84
g82
ssg5
g6
sg7
(dp943
S'city'
p944
S'du quoin'
p945
sS'state'
p946
S'illinois'
p947
sg11
S'2'
sS'moviename'
p948
S'star wars'
p949
ssa(dp950
g3
(dp951
sg5
g6
sg7
(dp952
S'city'
p953
S'seattle'
p954
sS'numberofpeople'
p955
S'2'
sS'theater'
p956
S'regal meridian 16'
p957
sS'starttime'
p958
S'8:45 pm'
p959
sS'date'
p960
S'tomorrow'
p961
sS'moviename'
p962
S'hail caesar'
p963
ssa(dp964
g3
(dp965
g81
g82
sg83
g82
sg84
g82
ssg5
g6
sg7
(dp966
S'city'
p967
S'portland'
p968
sS'state'
p969
S'oregon'
p970
sg11
S'2'
sS'moviename'
p971
S'star wars'
p972
ssa(dp973
g3
(dp974
g81
g82
sg83
g82
sg84
g82
ssg5
g6
sg7
(dp975
S'city'
p976
S'los angeles'
p977
sg11
S'1'
sS'moviename'
p978
S'deadpool'
p979
ssa(dp980
g3
(dp981
g83
g82
ssg5
g6
sg7
(dp982
S'date'
p983
S'tomorrow'
p984
sS'city'
p985
S'regency academy 6 theater'
p986
sS'numberofpeople'
p987
S'four'
p988
sS'moviename'
p989
S'creed'
p990
sS'starttime'
p991
S'around noon'
p992
ssa(dp993
g3
(dp994
sg5
g6
sg7
(dp995
S'city'
p996
S'seattle'
p997
sS'numberofpeople'
p998
S'2'
sS'theater'
p999
S'regal meridian 16'
p1000
sS'starttime'
p1001
S'9:00 pm'
p1002
sS'date'
p1003
S'tomorrow'
p1004
sS'moviename'
p1005
S'spotlight'
p1006
ssa(dp1007
g3
(dp1008
g83
g82
sg84
g82
ssg5
g6
sg7
(dp1009
S'date'
p1010
S'tomorrow night'
p1011
sg11
S'1'
sS'moviename'
p1012
S'deadpool'
p1013
ssa(dp1014
g3
(dp1015
g81
g82
sg83
g82
sg84
g82
ssg5
g6
sg7
(dp1016
S'city'
p1017
S'portland'
p1018
sS'state'
p1019
S'oregon'
p1020
sg11
S'4'
sS'moviename'
p1021
S'star wars'
p1022
ssa(dp1023
g3
(dp1024
g81
g82
sS'starttime'
p1025
g82
ssg5
g6
sg7
(dp1026
S'moviename'
p1027
S'star wars'
p1028
sg11
S'2'
sS'theater'
p1029
S'shelby township'
p1030
ssa(dp1031
g3
(dp1032
g83
g82
sg84
g82
ssg5
g6
sg7
(dp1033
S'date'
p1034
S'tomorrow'
p1035
sS'city'
p1036
S'philadelphia'
p1037
sg11
S'4'
sS'moviename'
p1038
S'deadpool'
p1039
sS'zip'
p1040
S'19101'
p1041
ssa(dp1042
g3
(dp1043
sg5
g6
sg7
(dp1044
S'city'
p1045
S'seattle'
p1046
sS'numberofpeople'
p1047
S'2'
sS'theater'
p1048
S'regal meridian 16'
p1049
sS'starttime'
p1050
S'9:10 pm'
p1051
sS'date'
p1052
S'tomorrow'
p1053
sS'moviename'
p1054
S'zootopia'
p1055
ssa(dp1056
g3
(dp1057
sg5
g6
sg7
(dp1058
S'city'
p1059
S'seattle'
p1060
sS'numberofpeople'
p1061
S'2'
sS'theater'
p1062
S'amc pacific place 11 theater'
p1063
sS'starttime'
p1064
S'9:00 pm'
p1065
sS'date'
p1066
S'tomorrow'
p1067
sS'moviename'
p1068
S'deadpool'
p1069
ssa(dp1070
g3
(dp1071
g83
g82
ssg5
g6
sg7
(dp1072
S'city'
p1073
S'knoxville'
p1074
sS'numberofpeople'
p1075
S'2'
sS'distanceconstraints'
p1076
S'downtown'
p1077
sS'video_format'
p1078
S'3d'
p1079
sS'state'
p1080
S'tn'
p1081
sS'starttime'
p1082
S'evening around 7'
p1083
sS'date'
p1084
S'tomorrow'
p1085
sS'moviename'
p1086
S'the witch'
p1087
ssa(dp1088
g3
(dp1089
sg5
g6
sg7
(dp1090
S'city'
p1091
S'seattle'
p1092
sS'numberofpeople'
p1093
S'2'
sS'theater'
p1094
S'amc pacific place 11 theater'
p1095
sS'starttime'
p1096
S'10:00 pm'
p1097
sS'date'
p1098
S'tomorrow'
p1099
sS'moviename'
p1100
S'race'
p1101
ssa(dp1102
g3
(dp1103
sg5
g6
sg7
(dp1104
S'city'
p1105
S'seattle'
p1106
sS'numberofpeople'
p1107
S'2'
sS'theater'
p1108
S'regal meridian 16'
p1109
sS'starttime'
p1110
S'9:10 pm'
p1111
sS'date'
p1112
S'tomorrow'
p1113
sS'moviename'
p1114
S'zootopia'
p1115
ssa(dp1116
g3
(dp1117
sg5
g6
sg7
(dp1118
S'city'
p1119
S'birmingham'
p1120
sS'numberofpeople'
p1121
S'2'
sS'theater'
p1122
S'carmike summit 16'
p1123
sS'state'
p1124
S'al'
p1125
sS'starttime'
p1126
S'around 2pm'
p1127
sS'date'
p1128
S'sunday'
p1129
sS'moviename'
p1130
S'deadpool'
p1131
ssa(dp1132
g3
(dp1133
g81
g82
sg83
g82
sg84
g82
ssg5
g6
sg7
(dp1134
g11
S'4'
sS'moviename'
p1135
S'brothers grimsby'
p1136
ssa(dp1137
g3
(dp1138
sg5
g6
sg7
(dp1139
S'city'
p1140
S'seattle'
p1141
sS'numberofpeople'
p1142
S'2'
sS'theater'
p1143
S'regal meridian 16'
p1144
sS'starttime'
p1145
S'8:45 pm'
p1146
sS'date'
p1147
S'tomorrow'
p1148
sS'moviename'
p1149
S'big short'
p1150
ssa(dp1151
g3
(dp1152
g81
g82
sS'theater'
p1153
g82
sg84
g82
ssg5
g6
sg7
(dp1154
g11
S'5'
sS'moviename'
p1155
S'zootopia'
p1156
ssa(dp1157
g3
(dp1158
sg5
g6
sg7
(dp1159
S'city'
p1160
S'seattle'
p1161
sS'numberofpeople'
p1162
S'2'
sS'theater'
p1163
S'regal meridian 16'
p1164
sS'starttime'
p1165
S'9:30 pm'
p1166
sS'date'
p1167
S'tomorrow'
p1168
sS'moviename'
p1169
S'the witch'
p1170
ssa(dp1171
g3
(dp1172
sg5
g6
sg7
(dp1173
S'city'
p1174
S'seattle'
p1175
sS'numberofpeople'
p1176
S'2'
sS'theater'
p1177
S'regal meridian 16'
p1178
sS'starttime'
p1179
S'9:10 pm'
p1180
sS'date'
p1181
S'tomorrow'
p1182
sS'moviename'
p1183
S'zootopia'
p1184
ssa(dp1185
g3
(dp1186
g81
g82
sS'starttime'
p1187
g82
ssg5
g6
sg7
(dp1188
S'moviename'
p1189
S'10 cloverfield lane'
p1190
sg11
S'3'
sS'theater'
p1191
S'beaver creek stadium 12'
p1192
ssa(dp1193
g3
(dp1194
sg5
g6
sg7
(dp1195
S'city'
p1196
S'seattle'
p1197
sS'numberofpeople'
p1198
S'2'
sS'theater'
p1199
S'regal meridian 16'
p1200
sS'starttime'
p1201
S'9:00 pm'
p1202
sS'date'
p1203
S'tomorrow'
p1204
sS'moviename'
p1205
S'spotlight'
p1206
ssa(dp1207
g3
(dp1208
sg5
g6
sg7
(dp1209
S'city'
p1210
S'seattle'
p1211
sS'numberofpeople'
p1212
S'2'
sS'theater'
p1213
S'amc lowes oak tree 6'
p1214
sS'starttime'
p1215
S'4:50 pm'
p1216
sS'date'
p1217
S'tomorrow'
p1218
sS'moviename'
p1219
S'race'
p1220
ssa(dp1221
g3
(dp1222
sg5
g6
sg7
(dp1223
S'city'
p1224
S'seattle'
p1225
sS'numberofpeople'
p1226
S'2'
sS'theater'
p1227
S'amc pacific place 11 theater'
p1228
sS'starttime'
p1229
S'10:00 pm'
p1230
sS'date'
p1231
S'tomorrow'
p1232
sS'moviename'
p1233
S'race'
p1234
ssa(dp1235
g3
(dp1236
sg5
g6
sg7
(dp1237
S'city'
p1238
S'seattle'
p1239
sS'numberofpeople'
p1240
S'2'
sS'theater'
p1241
S'regal meridian 16'
p1242
sS'starttime'
p1243
S'9:30 pm'
p1244
sS'date'
p1245
S'tomorrow'
p1246
sS'moviename'
p1247
S'the witch'
p1248
ssa(dp1249
g3
(dp1250
sg5
g6
sg7
(dp1251
S'city'
p1252
S'seattle'
p1253
sS'numberofpeople'
p1254
S'2'
sS'theater'
p1255
S'regal meridian 16'
p1256
sS'starttime'
p1257
S'9:30 pm'
p1258
sS'date'
p1259
S'tomorrow'
p1260
sS'moviename'
p1261
g1087
ssa(dp1262
g3
(dp1263
sg5
g6
sg7
(dp1264
S'city'
p1265
S'birmingham'
p1266
sg11
S'1'
sS'theater'
p1267
S'carmike summit 16'
p1268
sS'state'
p1269
S'al'
p1270
sS'starttime'
p1271
S'2pm'
p1272
sS'date'
p1273
S'tomorrow'
p1274
sS'moviename'
p1275
S'deadpool'
p1276
ssa(dp1277
g3
(dp1278
g81
g82
sS'theater'
p1279
g82
sg84
g82
ssg5
g6
sg7
(dp1280
S'city'
p1281
S'seattle'
p1282
sg11
S'2'
sS'moviename'
p1283
S'deadpool'
p1284
ssa(dp1285
g3
(dp1286
sg5
g6
sg7
(dp1287
S'city'
p1288
S'birmingham'
p1289
sS'numberofpeople'
p1290
S'2'
sS'theater'
p1291
S'carmike summit 16'
p1292
sS'state'
p1293
S'al'
p1294
sS'starttime'
p1295
S'around 2pm'
p1296
sS'date'
p1297
S'thursday'
p1298
sS'moviename'
p1299
S'deadpool'
p1300
ssa(dp1301
g3
(dp1302
g81
g82
sg83
g82
sg84
g82
ssg5
g6
sg7
(dp1303
S'numberofpeople'
p1304
S'4'
sS'moviename'
p1305
S'eddie the eagle'
p1306
sS'zip'
p1307
S'94952'
p1308
ssa(dp1309
g3
(dp1310
g81
g82
sg83
g82
sg84
g82
ssg5
g6
sg7
(dp1311
S'numberofpeople'
p1312
S'two'
p1313
sS'moviename'
p1314
S'london has fallen'
p1315
sS'zip'
p1316
S'90602'
p1317
ssa(dp1318
g3
(dp1319
g81
g82
sS'theater'
p1320
g82
sg84
g82
ssg5
g6
sg7
(dp1321
S'state'
p1322
S'california'
p1323
sg11
S'4'
sS'moviename'
p1324
S'zootopia'
p1325
ssa(dp1326
g3
(dp1327
sg5
g6
sg7
(dp1328
S'city'
p1329
S'seattle'
p1330
sS'numberofpeople'
p1331
S'2'
sS'theater'
p1332
S'regal meridian 16'
p1333
sS'starttime'
p1334
S'9:25 pm'
p1335
sS'date'
p1336
S'tomorrow'
p1337
sS'moviename'
p1338
S'zoolander 2'
p1339
ssa(dp1340
g3
(dp1341
g81
g82
sg84
g82
ssg5
g6
sg7
(dp1342
S'moviename'
p1343
S'the other side of the door'
p1344
sS'numberofpeople'
p1345
S'two'
p1346
sS'theater'
p1347
S'southpoint casino'
p1348
sS'city'
p1349
S'las vegas'
p1350
ssa(dp1351
g3
(dp1352
g81
g82
sg83
g82
sg84
g82
ssg5
g6
sg7
(dp1353
S'city'
p1354
S'du Quoin'
p1355
sS'state'
p1356
S'illinois'
p1357
sg11
S'2'
sS'moviename'
p1358
S'star wars'
p1359
ssa(dp1360
g3
(dp1361
g81
g82
sg83
g82
sg84
g82
ssg5
g6
sg7
(dp1362
S'numberofpeople'
p1363
S'3'
sS'moviename'
p1364
S'gods egypt'
p1365
ssa(dp1366
g3
(dp1367
sg5
g6
sg7
(dp1368
S'city'
p1369
S'seattle'
p1370
sS'numberofpeople'
p1371
S'2'
sS'theater'
p1372
S'regal meridian 16 theater'
p1373
sS'starttime'
p1374
S'8:45 pm'
p1375
sS'date'
p1376
S'tomorrow'
p1377
sS'moviename'
p1378
S'hail caesar'
p1379
ssa(dp1380
g3
(dp1381
g83
g82
ssg5
g6
sg7
(dp1382
S'date'
p1383
S'tomorrow'
p1384
sS'city'
p1385
S'seattle'
p1386
sS'numberofpeople'
p1387
S'one'
p1388
sS'moviename'
p1389
S'zootopia'
p1390
sS'starttime'
p1391
S'night'
p1392
ssa(dp1393
g3
(dp1394
sg5
g6
sg7
(dp1395
S'city'
p1396
S'seattle'
p1397
sS'numberofpeople'
p1398
S'2'
sS'theater'
p1399
S'amc pacific place 11 theater'
p1400
sS'starttime'
p1401
S'10:00 pm'
p1402
sS'date'
p1403
S'tomorrow'
p1404
sS'moviename'
p1405
S'race'
p1406
ssa(dp1407
g3
(dp1408
sg5
g6
sg7
(dp1409
S'city'
p1410
S'seattle'
p1411
sS'numberofpeople'
p1412
S'2'
sS'theater'
p1413
S'amc pacific place 11 theater'
p1414
sS'starttime'
p1415
S'10:00 pm'
p1416
sS'date'
p1417
S'tomorrow'
p1418
sS'moviename'
p1419
S'race'
p1420
ssa(dp1421
g3
(dp1422
sg5
g6
sg7
(dp1423
S'city'
p1424
S'seattle'
p1425
sS'numberofpeople'
p1426
S'2'
sS'theater'
p1427
S'amc lowes oak tree 6'
p1428
sS'starttime'
p1429
S'7:15 pm'
p1430
sS'date'
p1431
S'tomorrow'
p1432
sS'moviename'
p1433
S'hail caesar'
p1434
ssa(dp1435
g3
(dp1436
sg5
g6
sg7
(dp1437
S'city'
p1438
S'seattle'
p1439
sS'numberofpeople'
p1440
S'6'
sS'theater'
p1441
S'amc lowes oak tree'
p1442
sS'starttime'
p1443
S'7:10 pm'
p1444
sS'date'
p1445
S'tomorrow'
p1446
sS'moviename'
p1447
S'triple 9'
p1448
ssa(dp1449
g3
(dp1450
g81
g82
sg83
g82
sg84
g82
ssg5
g6
sg7
(dp1451
S'numberofpeople'
p1452
S'two'
p1453
sS'moviename'
p1454
S'zootopia'
p1455
ssa(dp1456
g3
(dp1457
sg5
g6
sg7
(dp1458
S'city'
p1459
S'seattle'
p1460
sS'numberofpeople'
p1461
S'2'
sS'theater'
p1462
S'amc pacific place 11 theater'
p1463
sS'starttime'
p1464
S'9:00 pm'
p1465
sS'date'
p1466
S'tomorrow'
p1467
sS'moviename'
p1468
S'deadpool'
p1469
ssa.