(lp1
(dp2
S'request_slots'
p3
(dp4
S'date'
p5
S'UNK'
p6
sS'theater'
p7
g6
sS'moviename'
p8
g6
sS'starttime'
p9
g6
ssS'diaact'
p10
S'request'
p11
sS'inform_slots'
p12
(dp13
S'genre'
p14
S'comedy'
p15
sS'critic_rating'
p16
S'good'
p17
sS'numberofpeople'
p18
S'3'
ssa(dp19
g3
(dp20
S'moviename'
p21
g6
sS'theater'
p22
g6
sg9
g6
ssg10
g11
sg12
(dp23
S'date'
p24
S'this weekend'
p25
sg18
S'2'
sS'mpaa_rating'
p26
S'pg'
p27
ssa(dp28
g3
(dp29
sg10
g11
sg12
(dp30
S'city'
p31
S'birmingham'
p32
sg18
S'1'
sS'theater'
p33
S'carmike summit 16'
p34
sS'state'
p35
S'al'
p36
sS'starttime'
p37
S'around 2pm'
p38
sS'date'
p39
S'today'
p40
sS'moviename'
p41
S'zootopia'
p42
ssa(dp43
g3
(dp44
sg10
g11
sg12
(dp45
S'city'
p46
S'seattle'
p47
sS'numberofpeople'
p48
S'2'
sS'theater'
p49
S'amc pacific place 11 theater'
p50
sS'starttime'
p51
S'9:00 pm'
p52
sS'date'
p53
S'tomorrow'
p54
sS'moviename'
p55
S'deadpool'
p56
ssa(dp57
g3
(dp58
sg10
g11
sg12
(dp59
S'city'
p60
S'birmingham'
p61
sg18
S'4'
sS'theater'
p62
S'carmike summit 16'
p63
sS'state'
p64
S'al'
p65
sS'starttime'
p66
S'around 6pm'
p67
sS'date'
p68
S'today'
p69
sS'moviename'
p70
S'deadpool'
p71
ssa(dp72
g3
(dp73
sg10
g11
sg12
(dp74
S'city'
p75
S'seattle'
p76
sS'numberofpeople'
p77
S'2'
sS'theater'
p78
S'regal meridian 16'
p79
sS'starttime'
p80
S'9:10 pm'
p81
sS'date'
p82
S'tomorrow'
p83
sS'moviename'
p84
S'zootopia'
p85
ssa(dp86
g3
(dp87
sg10
g11
sg12
(dp88
S'city'
p89
S'seattle'
p90
sS'numberofpeople'
p91
S'2'
sS'theater'
p92
S'regal meridian 16'
p93
sS'starttime'
p94
S'8:45 pm'
p95
sS'date'
p96
S'tomorrow'
p97
sS'moviename'
p98
S'hail caesar'
p99
ssa(dp100
g3
(dp101
g5
g6
sg7
g6
sg9
g6
ssg10
g11
sg12
(dp102
S'city'
p103
S'portland'
p104
sS'state'
p105
S'oregon'
p106
sg18
S'5'
sS'moviename'
p107
S'star wars'
p108
ssa(dp109
g3
(dp110
g5
g6
sg7
g6
sS'moviename'
p111
g6
sg9
g6
ssg10
g11
sg12
(dp112
S'genre'
p113
S'kid'
p114
sg18
S'4'
ssa(dp115
g3
(dp116
sg10
g11
sg12
(dp117
S'city'
p118
S'seattle'
p119
sS'numberofpeople'
p120
S'2'
sS'theater'
p121
S'amc pacific place 11 theater'
p122
sS'starttime'
p123
S'9:30 pm'
p124
sS'date'
p125
S'tomorrow'
p126
sS'moviename'
p127
S'room'
p128
ssa(dp129
g3
(dp130
sg10
g11
sg12
(dp131
S'city'
p132
S'seattle'
p133
sS'numberofpeople'
p134
S'2'
sS'theater'
p135
S'regal meridian 16'
p136
sS'starttime'
p137
S'9:30 pm'
p138
sS'date'
p139
S'tomorrow'
p140
sS'moviename'
p141
S'the witch'
p142
ssa(dp143
g3
(dp144
g7
g6
sS'moviename'
p145
g6
sg9
g6
ssg10
g11
sg12
(dp146
S'date'
p147
S'now'
p148
sg18
S'5'
sS'mpaa_rating'
p149
S'rated pg'
p150
ssa(dp151
g3
(dp152
sg10
g11
sg12
(dp153
S'city'
p154
S'seattle'
p155
sS'numberofpeople'
p156
S'2'
sS'theater'
p157
S'regal meridian 16'
p158
sS'starttime'
p159
S'9:30 pm'
p160
sS'date'
p161
S'tomorrow'
p162
sS'moviename'
p163
S'the witch'
p164
ssa(dp165
g3
(dp166
g5
g6
sg7
g6
sS'moviename'
p167
g6
sg9
g6
ssg10
g11
sg12
(dp168
S'distanceconstraints'
p169
S'visalia'
p170
sS'state'
p171
S'california'
p172
sg18
S'5'
ssa(dp173
g3
(dp174
g5
g6
sg7
g6
sg21
g6
sg9
g6
ssg10
g11
sg12
(dp175
S'distanceconstraints'
p176
S'near the space needle'
p177
sg18
S'5'
sS'other'
p178
S'pub serves good burgers'
p179
ssa(dp180
g3
(dp181
g7
g6
sg21
g6
ssg10
g11
sg12
(dp182
S'date'
p183
S'Friday'
p184
sS'city'
p185
S'seattle'
p186
sg18
S'3'
sS'other'
p187
S'serves seafood'
p188
sS'starttime'
p189
S'night'
p190
ssa(dp191
g3
(dp192
g5
g6
sg7
g6
sg21
g6
sg9
g6
ssg10
g11
sg12
(dp193
S'city'
p194
S'seattle'
p195
sS'state'
p196
S'washington'
p197
sg18
S'5'
ssa(dp198
g3
(dp199
sg10
g11
sg12
(dp200
S'city'
p201
S'seattle'
p202
sS'numberofpeople'
p203
S'6'
sS'theater'
p204
S'amc lowes oak tree'
p205
sS'starttime'
p206
S'7:10 pm'
p207
sS'date'
p208
S'tomorrow'
p209
sS'moviename'
p210
S'triple 9'
p211
ssa(dp212
g3
(dp213
sg10
g11
sg12
(dp214
S'city'
p215
S'seattle'
p216
sS'numberofpeople'
p217
S'2'
sS'theater'
p218
S'regal meridian 16'
p219
sS'starttime'
p220
S'9:10 pm'
p221
sS'date'
p222
S'tomorrow'
p223
sS'moviename'
p224
S'zootopia'
p225
ssa(dp226
g3
(dp227
g7
g6
ssg10
g11
sg12
(dp228
S'city'
p229
S'birmingham'
p230
sS'numberofpeople'
p231
S'2'
sS'state'
p232
S'al'
p233
sS'starttime'
p234
S'4 pm'
p235
sS'date'
p236
S'today'
p237
sS'moviename'
p238
S'deadpool'
p239
ssa(dp240
g3
(dp241
sg10
g11
sg12
(dp242
S'city'
p243
S'seattle'
p244
sS'numberofpeople'
p245
S'2'
sS'theater'
p246
S'regal meridian 16'
p247
sS'starttime'
p248
S'8:45 pm'
p249
sS'date'
p250
S'tomorrow'
p251
sS'moviename'
p252
S'the big short'
p253
ssa(dp254
g3
(dp255
g5
g6
sg7
g6
sg21
g6
sg9
g6
ssg10
g11
sg12
(dp256
S'distanceconstraints'
p257
S'space needle'
p258
sg18
S'4'
sS'other'
p259
S'restaurant'
p260
ssa(dp261
g3
(dp262
sg10
g11
sg12
(dp263
S'city'
p264
S'seattle'
p265
sS'numberofpeople'
p266
S'2'
sS'theater'
p267
S'regal meridian 16'
p268
sS'starttime'
p269
S'8:45 pm'
p270
sS'date'
p271
S'tomorrow'
p272
sS'moviename'
p273
S'the big short'
p274
ssa(dp275
g3
(dp276
sg10
g11
sg12
(dp277
S'city'
p278
S'seattle'
p279
sS'numberofpeople'
p280
S'2'
sS'theater'
p281
S'regal meridian 16'
p282
sS'starttime'
p283
S'9:10 pm'
p284
sS'date'
p285
S'tomorrow'
p286
sS'moviename'
p287
S'zootopia'
p288
ssa(dp289
g3
(dp290
g5
g6
sg7
g6
ssg10
g11
sg12
(dp291
S'city'
p292
S'stony brook'
p293
sS'state'
p294
S'ny'
p295
sg18
S'1'
sS'moviename'
p296
S' Young Messiah'
p297
sS'starttime'
p298
S' Matinee'
p299
ssa(dp300
g3
(dp301
g5
g6
sg7
g6
sg9
g6
ssg10
g11
sg12
(dp302
S'city'
p303
S'94952'
p304
sS'numberofpeople'
p305
S'4'
sS'moviename'
p306
S'eddie the eagle'
p307
ssa(dp308
g3
(dp309
S'starttime'
p310
g6
ssg10
g11
sg12
(dp311
S'date'
p312
S'tomorrow'
p313
sS'moviename'
p314
S'risen'
p315
sg18
S'3'
sS'theater'
p316
S'regency commerce 14'
p317
ssa(dp318
g3
(dp319
sg10
g11
sg12
(dp320
S'city'
p321
S'seattle'
p322
sS'numberofpeople'
p323
S'2'
sS'theater'
p324
S'regal meridian 16'
p325
sS'starttime'
p326
S'9:25 pm'
p327
sS'date'
p328
S'tomorrow'
p329
sS'moviename'
p330
S'zoolander 2'
p331
ssa(dp332
g3
(dp333
sg10
g11
sg12
(dp334
S'city'
p335
S'seattle'
p336
sS'numberofpeople'
p337
S'2'
sS'theater'
p338
S'amc pacific place 11 theater'
p339
sS'starttime'
p340
S'9:00 pm'
p341
sS'date'
p342
S'tomorrow'
p343
sS'moviename'
p344
S'deadpool'
p345
ssa(dp346
g3
(dp347
g7
g6
ssg10
g11
sg12
(dp348
S'date'
p349
S'saturday'
p350
sg18
S'1'
sS'moviename'
p351
S'zootopia'
p352
sS'starttime'
p353
S'around 2pm'
p354
ssa(dp355
g3
(dp356
sg10
g11
sg12
(dp357
S'city'
p358
S'seattle'
p359
sS'numberofpeople'
p360
S'2'
sS'theater'
p361
S'regal meridian 16'
p362
sS'starttime'
p363
S'9:30 pm'
p364
sS'date'
p365
S'tomorrow'
p366
sS'moviename'
p367
S'the witch'
p368
ssa(dp369
g3
(dp370
g5
g6
sg7
g6
sg9
g6
ssg10
g11
sg12
(dp371
S'numberofpeople'
p372
S'4'
sS'moviename'
p373
S'zootopia'
p374
ssa(dp375
g3
(dp376
g5
g6
sg7
g6
sg9
g6
ssg10
g11
sg12
(dp377
g18
S'4'
sS'moviename'
p378
S'Avengers'
p379
sS'description'
p380
S'is still playing in theaters'
p381
ssa(dp382
g3
(dp383
g5
g6
sg7
g6
sg9
g6
ssg10
g11
sg12
(dp384
S'distanceconstraints'
p385
S'close to 95833'
p386
sg18
S'3'
sS'moviename'
p387
S'zoology'
p388
ssa(dp389
g3
(dp390
sg10
g11
sg12
(dp391
S'city'
p392
S'seattle'
p393
sS'numberofpeople'
p394
S'2'
sS'theater'
p395
S'amc lowes oak tree 6'
p396
sS'starttime'
p397
S'4:50 pm'
p398
sS'date'
p399
S'tomorrow'
p400
sS'moviename'
p401
S'race'
p402
ssa(dp403
g3
(dp404
g5
g6
sg7
g6
sS'starttime'
p405
g6
ssg10
g11
sg12
(dp406
g18
S'3'
sS'moviename'
p407
S'deadpool'
p408
ssa(dp409
g3
(dp410
sg10
g11
sg12
(dp411
S'city'
p412
S'seattle'
p413
sS'numberofpeople'
p414
S'2'
sS'theater'
p415
S'amc lowes oak tree 6'
p416
sS'starttime'
p417
S'7:15 pm'
p418
sS'date'
p419
S'tomorrow'
p420
sS'moviename'
p421
S'hail caesar'
p422
ssa(dp423
g3
(dp424
g7
g6
ssg10
g11
sg12
(dp425
S'city'
p426
S'birmingham'
p427
sS'numberofpeople'
p428
S'2'
sS'state'
p429
S'al'
p430
sS'starttime'
p431
S'around 4pm'
p432
sS'date'
p433
S'today'
p434
sS'moviename'
p435
S'zootopia'
p436
ssa(dp437
g3
(dp438
S'theater'
p439
g6
ssg10
g11
sg12
(dp440
S'date'
p441
S'tomorrow'
p442
sg18
S'5'
sS'moviename'
p443
S'zootopia'
p444
sS'starttime'
p445
S'night'
p446
ssa(dp447
g3
(dp448
g5
g6
sg7
g6
sS'moviename'
p449
g6
ssg10
g11
sg12
(dp450
S'genre'
p451
S'funny'
p452
sS'city'
p453
S'seattle'
p454
sg18
S'1'
sS'starttime'
p455
S'5pm'
p456
ssa(dp457
g3
(dp458
g5
g6
sg7
g6
sg21
g6
sg9
g6
ssg10
g11
sg12
(dp459
S'city'
p460
S'Seattle'
p461
sg18
S'1'
sS'other'
p462
S'best restaurant'
p463
ssa(dp464
g3
(dp465
g7
g6
sS'moviename'
p466
g6
ssg10
g11
sg12
(dp467
S'genre'
p468
S'kids'
p469
sS'city'
p470
S'st louis'
p471
sg18
S'5'
sS'date'
p472
S'thursday'
p473
sS'starttime'
p474
S'afternoon'
p475
ssa(dp476
g3
(dp477
g5
g6
sg7
g6
sS'moviename'
p478
g6
sg9
g6
ssg10
g11
sg12
(dp479
S'genre'
p480
S'action'
p481
sS'distanceconstraints'
p482
S'closest'
p483
sg18
S'5'
sS'zip'
p484
S'90601'
p485
ssa(dp486
g3
(dp487
sg10
g11
sg12
(dp488
S'city'
p489
S'seattle'
p490
sS'numberofpeople'
p491
S'2'
sS'theater'
p492
S'regal meridian 16'
p493
sS'starttime'
p494
S'9:25 pm'
p495
sS'date'
p496
S'tomorrow'
p497
sS'moviename'
p498
S'zoolander 2'
p499
ssa(dp500
g3
(dp501
g5
g6
sg7
g6
sg21
g6
sg9
g6
ssg10
g11
sg12
(dp502
S'city'
p503
S'seattle'
p504
sg18
S'1'
sS'other'
p505
S'japanese restaurant'
p506
ssa(dp507
g3
(dp508
S'theater'
p509
g6
sg9
g6
ssg10
g11
sg12
(dp510
S'date'
p511
S'tonight'
p512
sg18
S'1'
sS'moviename'
p513
S'zootopia'
p514
ssa(dp515
g3
(dp516
g5
g6
sg7
g6
sg21
g6
sg9
g6
ssg10
g11
sg12
(dp517
S'distanceconstraints'
p518
S'near space needle'
p519
sg18
S'1'
sS'other'
p520
S'pub'
p521
ssa(dp522
g3
(dp523
sg10
g11
sg12
(dp524
S'city'
p525
S'birmingham'
p526
sg18
S'3'
sS'theater'
p527
S'carmike summit 16'
p528
sS'state'
p529
S'al'
p530
sS'starttime'
p531
S'2pm'
p532
sS'date'
p533
S'saturday'
p534
sS'moviename'
p535
S'deadpool'
p536
ssa(dp537
g3
(dp538
g7
g6
sg21
g6
sg9
g6
ssg10
g11
sg12
(dp539
S'date'
p540
S'tonight'
p541
sg18
S'5'
ssa(dp542
g3
(dp543
g7
g6
sS'moviename'
p544
g6
sg9
g6
ssg10
g11
sg12
(dp545
S'genre'
p546
S'action'
p547
sS'date'
p548
S'this weekend'
p549
sg18
S'4'
ssa(dp550
g3
(dp551
g9
g6
ssg10
g11
sg12
(dp552
S'date'
p553
S'tomorrow'
p554
sS'moviename'
p555
S'gods of egypt'
p556
sg18
S'4'
sS'theater'
p557
S'regal theater'
p558
sS'city'
p559
S'sacramento'
p560
ssa(dp561
g3
(dp562
g7
g6
sS'moviename'
p563
g6
sg9
g6
ssg10
g11
sg12
(dp564
S'date'
p565
S'now'
p566
sS'critic_rating'
p567
S'good'
p568
sg18
S'5'
ssa(dp569
g3
(dp570
g7
g6
sg9
g6
ssg10
g11
sg12
(dp571
S'date'
p572
S'tomorrow'
p573
sg18
S'3'
sS'moviename'
p574
S'10 cloverfield lane'
p575
ssa(dp576
g3
(dp577
g5
g6
sg7
g6
sg21
g6
sg9
g6
ssg10
g11
sg12
(dp578
S'critic_rating'
p579
S'good'
p580
sg18
S'1'
sS'other'
p581
S'restaurant'
p582
sS'city'
p583
S'seattle'
p584
ssa(dp585
g3
(dp586
g5
g6
sS'theater'
p587
g6
sg9
g6
ssg10
g11
sg12
(dp588
g18
S'2'
sS'moviename'
p589
S'zootopia'
p590
ssa(dp591
g3
(dp592
sg10
g11
sg12
(dp593
S'city'
p594
S'seattle'
p595
sS'numberofpeople'
p596
S'2'
sS'theater'
p597
S'regal meridian 16'
p598
sS'starttime'
p599
S'9:25 pm'
p600
sS'date'
p601
S'tomorrow'
p602
sS'moviename'
p603
S'zoolander 2'
p604
ssa(dp605
g3
(dp606
S'starttime'
p607
g6
ssg10
g11
sg12
(dp608
S'date'
p609
S'tomorrow'
p610
sS'moviename'
p611
S'risen'
p612
sg18
S'2'
sS'theater'
p613
S'regency commerce 14'
p614
ssa(dp615
g3
(dp616
g7
g6
sg9
g6
ssg10
g11
sg12
(dp617
S'date'
p618
S'this friday'
p619
sg18
S'4'
sS'moviename'
p620
S'star wars'
p621
ssa(dp622
g3
(dp623
g5
g6
sg7
g6
sg9
g6
ssg10
g11
sg12
(dp624
S'city'
p625
S'portland'
p626
sS'state'
p627
S'oregon'
p628
sg18
S'3'
sS'moviename'
p629
S'zootopia'
p630
ssa(dp631
g3
(dp632
g7
g6
sg9
g6
ssg10
g11
sg12
(dp633
S'date'
p634
S'tonight'
p635
sg18
S'5'
sS'moviename'
p636
S'zootopia'
p637
ssa(dp638
g3
(dp639
g5
g6
sg7
g6
sg9
g6
ssg10
g11
sg12
(dp640
S'city'
p641
S'portland'
p642
sS'state'
p643
S'oregon'
p644
sg18
S'5'
sS'moviename'
p645
S'star wars'
p646
ssa(dp647
g3
(dp648
sg10
g11
sg12
(dp649
S'city'
p650
S'seattle'
p651
sS'numberofpeople'
p652
S'2'
sS'theater'
p653
S'regal meridian 16'
p654
sS'starttime'
p655
S'9:10 pm'
p656
sS'date'
p657
S'tomorrow'
p658
sS'moviename'
p659
S'zootopia'
p660
ssa(dp661
g3
(dp662
g7
g6
sg9
g6
ssg10
g11
sg12
(dp663
S'date'
p664
S'tonight'
p665
sg18
S'1'
sS'moviename'
p666
S'zootopia'
p667
ssa(dp668
g3
(dp669
sg10
g11
sg12
(dp670
S'city'
p671
S'seattle'
p672
sS'numberofpeople'
p673
S'2'
sS'theater'
p674
S'regal meridian 16'
p675
sS'starttime'
p676
S'8:45 pm'
p677
sS'date'
p678
S'tomorrow'
p679
sS'moviename'
p680
S'hail caesar'
p681
ssa(dp682
g3
(dp683
g5
g6
sS'theater'
p684
g6
sg9
g6
ssg10
g11
sg12
(dp685
S'distanceconstraints'
p686
S'near me'
p687
sg18
S'4'
sS'moviename'
p688
S'kung fu panda 3'
p689
sS'greeting'
p690
S'hi'
p691
ssa(dp692
g3
(dp693
sg10
g11
sg12
(dp694
S'city'
p695
S'seattle'
p696
sS'numberofpeople'
p697
S'2'
sS'theater'
p698
S'regal meridian 16'
p699
sS'starttime'
p700
S'8:45 pm'
p701
sS'date'
p702
S'tomorrow'
p703
sS'moviename'
p704
S'hail caesar'
p705
ssa(dp706
g3
(dp707
g5
g6
sg7
g6
sS'moviename'
p708
g6
sg9
g6
ssg10
g11
sg12
(dp709
S'genre'
p710
S'action'
p711
sg18
S'4'
ssa(dp712
g3
(dp713
g5
g6
sg7
g6
sg9
g6
ssg10
g11
sg12
(dp714
S'numberofpeople'
p715
S'two'
p716
sS'moviename'
p717
S'london has fallen'
p718
sS'zip'
p719
S'90602'
p720
ssa(dp721
g3
(dp722
g7
g6
sS'moviename'
p723
g6
ssg10
g11
sg12
(dp724
S'genre'
p725
S'romantic comedies'
p726
sS'date'
p727
S'tomorrow'
p728
sg18
S'2'
sS'starttime'
p729
S'afternoon'
p730
ssa(dp731
g3
(dp732
sg10
g11
sg12
(dp733
S'city'
p734
S'seattle'
p735
sS'numberofpeople'
p736
S'2'
sS'theater'
p737
S'regal meridian 16'
p738
sS'starttime'
p739
S'9:10 pm'
p740
sS'date'
p741
S'tomorrow'
p742
sS'moviename'
p743
S'zootopia'
p744
ssa(dp745
g3
(dp746
g7
g6
sg9
g6
ssg10
g11
sg12
(dp747
S'date'
p748
S'tomorrow night'
p749
sS'city'
p750
S'seattle'
p751
sS'numberofpeople'
p752
S'one'
p753
sS'moviename'
p754
S'zootopia'
p755
ssa(dp756
g3
(dp757
g5
g6
sS'theater'
p758
g6
sg9
g6
ssg10
g11
sg12
(dp759
g18
S'2'
sS'moviename'
p760
S'first'
p761
ssa(dp762
g3
(dp763
g7
g6
sg21
g6
sg9
g6
ssg10
g11
sg12
(dp764
S'genre'
p765
S'family friendly'
p766
sS'city'
p767
S'birmingham'
p768
sS'state'
p769
S'al'
p770
sS'numberofpeople'
p771
S'3'
sS'date'
p772
S'saturday'
p773
ssa(dp774
g3
(dp775
g7
g6
ssg10
g11
sg12
(dp776
S'date'
p777
S'saturday'
p778
sg18
S'4'
sS'moviename'
p779
S'zootopia'
p780
sS'starttime'
p781
S'around 2pm'
p782
ssa(dp783
g3
(dp784
S'theater'
p785
g6
sg9
g6
ssg10
g11
sg12
(dp786
S'date'
p787
S'tonight'
p788
sg18
S'3'
sS'moviename'
p789
S'zootopia'
p790
ssa(dp791
g3
(dp792
g5
g6
sg7
g6
sg9
g6
ssg10
g11
sg12
(dp793
g18
S'3'
sS'moviename'
p794
S'whiskey tango foxtrot'
p795
ssa(dp796
g3
(dp797
g7
g6
sS'moviename'
p798
g6
sg9
g6
ssg10
g11
sg12
(dp799
S'date'
p800
S'friday'
p801
sg18
S'4'
ssa(dp802
g3
(dp803
g7
g6
sS'moviename'
p804
g6
ssg10
g11
sg12
(dp805
S'genre'
p806
S'action'
p807
sS'city'
p808
S'la'
p809
sg18
S'4'
sS'date'
p810
S'tomorrow'
p811
sS'starttime'
p812
S'night'
p813
ssa(dp814
g3
(dp815
g5
g6
sg7
g6
sS'price'
p816
g6
sg21
g6
sg9
g6
ssg10
g11
sg12
(dp817
S'distanceconstraints'
p818
S'local theater'
p819
sg18
S'5'
ssa(dp820
g3
(dp821
S'theater'
p822
g6
sg9
g6
ssg10
g11
sg12
(dp823
S'date'
p824
S'tomorrow night'
p825
sg18
S'5'
sS'moviename'
p826
S'zootopia'
p827
ssa(dp828
g3
(dp829
g7
g6
sS'moviename'
p830
g6
sg9
g6
ssg10
g11
sg12
(dp831
S'date'
p832
S'tonight'
p833
sg18
S'2'
sS'other'
p834
S'new release'
p835
ssa(dp836
g3
(dp837
g5
g6
sS'theater'
p838
g6
sg9
g6
ssg10
g11
sg12
(dp839
S'distanceconstraints'
p840
S'near me'
p841
sg18
S'1'
sS'moviename'
p842
S'kung fu panda 3'
p843
ssa(dp844
g3
(dp845
g5
g6
sg7
g6
sS'starttime'
p846
g6
ssg10
g11
sg12
(dp847
g18
S'5'
sS'moviename'
p848
S'london has fallen'
p849
ssa(dp850
g3
(dp851
g7
g6
sg21
g6
sg9
g6
ssg10
g11
sg12
(dp852
S'date'
p853
S'friday'
p854
sS'city'
p855
S'seattle'
p856
sg18
S'4'
sS'other'
p857
S'place that serves seafood'
p858
ssa(dp859
g3
(dp860
g5
g6
sg7
g6
sg9
g6
ssg10
g11
sg12
(dp861
S'city'
p862
S'portland'
p863
sS'state'
p864
S'oregon'
p865
sg18
S'4'
sS'moviename'
p866
S'whiskey tango foxtrot'
p867
ssa(dp868
g3
(dp869
g5
g6
sg7
g6
sg9
g6
ssg10
g11
sg12
(dp870
g18
S'5'
sS'other'
p871
S'favorite part'
p872
sS'moviename'
p873
S'deadpool'
p874
ssa(dp875
g3
(dp876
g5
g6
sg7
g6
sS'moviename'
p877
g6
sg9
g6
ssg10
g11
sg12
(dp878
g18
S'1'
sS'mpaa_rating'
p879
S'pg'
p880
ssa(dp881
g3
(dp882
sg10
g11
sg12
(dp883
S'city'
p884
S'seattle'
p885
sS'numberofpeople'
p886
S'2'
sS'theater'
p887
S'amc lowes oak tree 6'
p888
sS'starttime'
p889
S'4:25 pm'
p890
sS'date'
p891
S'tomorrow'
p892
sS'moviename'
p893
S'risen'
p894
ssa(dp895
g3
(dp896
sg10
g11
sg12
(dp897
S'city'
p898
S'seattle'
p899
sS'numberofpeople'
p900
S'2'
sS'theater'
p901
S'pacific place 11 theater'
p902
sS'date'
p903
S'tomorrow'
p904
sS'starttime'
p905
S'9:30 pm'
p906
sS'theater_chain'
p907
S'amc'
p908
sS'moviename'
p909
S'room'
p910
ssa(dp911
g3
(dp912
g5
g6
sS'theater'
p913
g6
sg9
g6
ssg10
g11
sg12
(dp914
S'city'
p915
S'seattle'
p916
sg18
S'2'
sS'moviename'
p917
S'deadpool'
p918
ssa(dp919
g3
(dp920
g7
g6
sS'moviename'
p921
g6
ssg10
g11
sg12
(dp922
S'city'
p923
S'st louis'
p924
sg18
S'1'
sS'critic_rating'
p925
S'good'
p926
sS'genre'
p927
S'kids'
p928
sS'starttime'
p929
S'afternoon'
p930
sS'date'
p931
S'thursday'
p932
ssa(dp933
g3
(dp934
g5
g6
sg7
g6
sg21
g6
sg9
g6
ssg10
g11
sg12
(dp935
S'city'
p936
S'seattle'
p937
sg18
S'5'
sS'other'
p938
S'Italian restaurant'
p939
ssa(dp940
g3
(dp941
g7
g6
ssg10
g11
sg12
(dp942
S'date'
p943
S'tomorrow'
p944
sS'city'
p945
S'los angeles'
p946
sg18
S'4'
sS'moviename'
p947
S'deadpool'
p948
sS'starttime'
p949
S'8pm'
p950
ssa(dp951
g3
(dp952
g7
g6
sg9
g6
ssg10
g11
sg12
(dp953
S'date'
p954
S'this weekend'
p955
sg18
S'1'
sS'moviename'
p956
S'batman moviename'
p957
ssa(dp958
g3
(dp959
g5
g6
sg7
g6
sS'starttime'
p960
g6
ssg10
g11
sg12
(dp961
S'distanceconstraints'
p962
S'near me'
p963
sg18
S'5'
sS'moviename'
p964
S'zootopia'
p965
ssa(dp966
g3
(dp967
g7
g6
ssg10
g11
sg12
(dp968
S'date'
p969
S'tomorrow'
p970
sS'city'
p971
S'detroit'
p972
sg18
S'3'
sS'moviename'
p973
S'deadpool'
p974
sS'starttime'
p975
S'7pm'
p976
ssa(dp977
g3
(dp978
g7
g6
ssg10
g11
sg12
(dp979
S'date'
p980
S'tomorrow'
p981
sS'city'
p982
S'regency'
p983
sS'numberofpeople'
p984
S'four'
p985
sS'moviename'
p986
S'creed'
p987
sS'starttime'
p988
S'around noon'
p989
ssa(dp990
g3
(dp991
g7
g6
ssg10
g11
sg12
(dp992
S'date'
p993
S'tomorrow'
p994
sS'city'
p995
S'los angeles'
p996
sg18
S'5'
sS'moviename'
p997
S'zootopia'
p998
sS'starttime'
p999
S'8pm'
p1000
ssa(dp1001
g3
(dp1002
g7
g6
ssg10
g11
sg12
(dp1003
S'city'
p1004
S'seattle'
p1005
sS'numberofpeople'
p1006
S'2'
sS'date'
p1007
S'tomorrow'
p1008
sS'starttime'
p1009
S'4:25 pm'
p1010
sS'theater_chain'
p1011
S'amc lowes oak tree 6'
p1012
sS'moviename'
p1013
S'risen'
p1014
ssa(dp1015
g3
(dp1016
sg10
g11
sg12
(dp1017
S'city'
p1018
S'seattle'
p1019
sS'numberofpeople'
p1020
S'2'
sS'theater'
p1021
S'amc pacific place 11 theater'
p1022
sS'starttime'
p1023
S'9:30 pm'
p1024
sS'date'
p1025
S'tomorrow'
p1026
sS'moviename'
p1027
S'room'
p1028
ssa(dp1029
g3
(dp1030
g7
g6
sS'moviename'
p1031
g6
ssg10
g11
sg12
(dp1032
S'date'
p1033
S'tomorrow'
p1034
sS'city'
p1035
S'seattle'
p1036
sg18
S'3'
sS'starttime'
p1037
S'7pm'
p1038
ssa(dp1039
g3
(dp1040
sg10
g11
sg12
(dp1041
S'city'
p1042
S'birmingham'
p1043
sg18
S'2'
sS'theater'
p1044
S'carmike summit 16'
p1045
sS'state'
p1046
S'al'
p1047
sS'starttime'
p1048
S'around 2pm'
p1049
sS'date'
p1050
S'today'
p1051
sS'moviename'
p1052
S'london had fallen'
p1053
ssa(dp1054
g3
(dp1055
sg10
g11
sg12
(dp1056
S'city'
p1057
S'seattle'
p1058
sS'numberofpeople'
p1059
S'2'
sS'theater'
p1060
S'amc lowes oak tree 6'
p1061
sS'starttime'
p1062
S'4:50 pm'
p1063
sS'date'
p1064
S'tomorrow'
p1065
sS'moviename'
p1066
S'room'
p1067
ssa(dp1068
g3
(dp1069
g7
g6
sS'moviename'
p1070
g6
sg9
g6
ssg10
g11
sg12
(dp1071
S'genre'
p1072
S'comedy'
p1073
sS'date'
p1074
S'tonight'
p1075
sg18
S'2'
sS'distanceconstraints'
p1076
S'near my location'
p1077
ssa(dp1078
g3
(dp1079
g7
g6
sg9
g6
ssg10
g11
sg12
(dp1080
S'date'
p1081
S'tomorrow'
p1082
sS'city'
p1083
S'philadelphia'
p1084
sg18
S'3'
sS'moviename'
p1085
S'deadpool'
p1086
sS'zip'
p1087
S'19101'
p1088
ssa(dp1089
g3
(dp1090
g5
g6
sg7
g6
sS'moviename'
p1091
g6
sg9
g6
ssg10
g11
sg12
(dp1092
S'genre'
p1093
S'dramas'
p1094
sS'city'
p1095
S'princeton'
p1096
sS'state'
p1097
S'nj'
p1098
sg18
S'2'
ssa(dp1099
g3
(dp1100
sg10
g11
sg12
(dp1101
S'city'
p1102
S'birmingham'
p1103
sS'numberofpeople'
p1104
S'2'
sS'theater'
p1105
S'carmike summit 16'
p1106
sS'state'
p1107
S'al'
p1108
sS'starttime'
p1109
S'around 5pm'
p1110
sS'date'
p1111
S'tomorrow'
p1112
sS'moviename'
p1113
S'deadpool'
p1114
ssa(dp1115
g3
(dp1116
g7
g6
sS'moviename'
p1117
g6
sg9
g6
ssg10
g11
sg12
(dp1118
S'city'
p1119
S'birmingham'
p1120
sS'numberofpeople'
p1121
S'2'
sS'critic_rating'
p1122
S'good'
p1123
sS'genre'
p1124
S'action'
p1125
sS'state'
p1126
S'alabama'
p1127
sS'date'
p1128
S'this saturday'
p1129
ssa(dp1130
g3
(dp1131
sg10
g11
sg12
(dp1132
S'city'
p1133
S'seattle'
p1134
sS'numberofpeople'
p1135
S'2'
sS'theater'
p1136
S'regal meridian 16'
p1137
sS'starttime'
p1138
S'8:45 pm'
p1139
sS'date'
p1140
S'tomorrow'
p1141
sS'moviename'
p1142
S'The big short'
p1143
ssa(dp1144
g3
(dp1145
g5
g6
sg7
g6
sg21
g6
sg9
g6
ssg10
g11
sg12
(dp1146
S'state'
p1147
S'california'
p1148
sS'numberofpeople'
p1149
S'four'
p1150
ssa(dp1151
g3
(dp1152
g5
g6
sg7
g6
ssg10
g11
sg12
(dp1153
g18
S'4'
sS'moviename'
p1154
S'zootopia'
p1155
sS'greeting'
p1156
S'hi'
p1157
sS'starttime'
p1158
S'matinee'
p1159
ssa(dp1160
g3
(dp1161
g7
g6
ssg10
g11
sg12
(dp1162
S'city'
p1163
S'la'
p1164
sS'numberofpeople'
p1165
S'2'
sS'distanceconstraints'
p1166
S'downtown'
p1167
sS'video_format'
p1168
S'3d'
p1169
sS'starttime'
p1170
S'7pm'
p1171
sS'date'
p1172
S'tomorrow'
p1173
sS'moviename'
p1174
S'creed'
p1175
ssa(dp1176
g3
(dp1177
g5
g6
sg7
g6
sg9
g6
ssg10
g11
sg12
(dp1178
S'city'
p1179
S'birmingham'
p1180
sS'state'
p1181
S'al'
p1182
sS'numberofpeople'
p1183
S'2'
sS'moviename'
p1184
S'zootopia'
p1185
ssa(dp1186
g3
(dp1187
sg10
g11
sg12
(dp1188
S'city'
p1189
S'seattle'
p1190
sS'numberofpeople'
p1191
S'2'
sS'theater'
p1192
S'regal meridian 16'
p1193
sS'starttime'
p1194
S'9:00 pm'
p1195
sS'date'
p1196
S'tomorrow'
p1197
sS'moviename'
p1198
S'spotlight'
p1199
ssa(dp1200
g3
(dp1201
g5
g6
sS'theater'
p1202
g6
sg9
g6
ssg10
g11
sg12
(dp1203
g18
S'5'
sS'moviename'
p1204
S'avengers'
p1205
sS'greeting'
p1206
S'hey'
p1207
ssa(dp1208
g3
(dp1209
sg10
g11
sg12
(dp1210
S'city'
p1211
S'seattle'
p1212
sS'numberofpeople'
p1213
S'2'
sS'theater'
p1214
S'regal meridian 16'
p1215
sS'starttime'
p1216
S'9:00 pm'
p1217
sS'date'
p1218
S'tomorrow'
p1219
sS'moviename'
p1220
S'spotlight'
p1221
ssa(dp1222
g3
(dp1223
sg10
g11
sg12
(dp1224
S'city'
p1225
S'seattle'
p1226
sS'numberofpeople'
p1227
S'2'
sS'theater'
p1228
S'regal meridian 16'
p1229
sS'starttime'
p1230
S'8:45 pm'
p1231
sS'date'
p1232
S'tomorrow'
p1233
sS'moviename'
p1234
S'hail caesar'
p1235
ssa(dp1236
g3
(dp1237
sg10
g11
sg12
(dp1238
S'city'
p1239
S'birmingham'
p1240
sS'numberofpeople'
p1241
S'2'
sS'theater'
p1242
S'carmike 16'
p1243
sS'state'
p1244
S'al'
p1245
sS'starttime'
p1246
S'2pm'
p1247
sS'date'
p1248
S'today'
p1249
sS'moviename'
p1250
S'zootopia'
p1251
ssa(dp1252
g3
(dp1253
S'moviename'
p1254
g6
sg9
g6
ssg10
g11
sg12
(dp1255
S'date'
p1256
S'tomorrow'
p1257
sS'city'
p1258
S'Clear Lake'
p1259
sS'state'
p1260
S'IA'
p1261
sg18
S'3'
sS'theater'
p1262
S'lake theater'
p1263
ssa(dp1264
g3
(dp1265
g5
g6
sS'theater'
p1266
g6
sg9
g6
ssg10
g11
sg12
(dp1267
S'city'
p1268
S'du quoin'
p1269
sS'state'
p1270
S'illinois'
p1271
sg18
S'2'
sS'moviename'
p1272
S'star wars'
p1273
ssa(dp1274
g3
(dp1275
g5
g6
sg7
g6
sg21
g6
sg9
g6
ssg10
g11
sg12
(dp1276
S'city'
p1277
S'san francisco'
p1278
sg18
S'3'
ssa(dp1279
g3
(dp1280
sg10
g11
sg12
(dp1281
S'city'
p1282
S'seattle'
p1283
sS'numberofpeople'
p1284
S'2'
sS'theater'
p1285
S'regal meridian 16'
p1286
sS'starttime'
p1287
S'8:45 pm'
p1288
sS'date'
p1289
S'tomorrow'
p1290
sS'moviename'
p1291
S'hail caesar'
p1292
ssa(dp1293
g3
(dp1294
g5
g6
sg7
g6
sg9
g6
ssg10
g11
sg12
(dp1295
S'city'
p1296
S'portland'
p1297
sS'state'
p1298
S'oregon'
p1299
sg18
S'2'
sS'moviename'
p1300
S'star wars'
p1301
ssa(dp1302
g3
(dp1303
g5
g6
sg7
g6
sg9
g6
ssg10
g11
sg12
(dp1304
S'city'
p1305
S'los angeles'
p1306
sg18
S'1'
sS'moviename'
p1307
S'deadpool'
p1308
ssa(dp1309
g3
(dp1310
g7
g6
sS'moviename'
p1311
g6
sg9
g6
ssg10
g11
sg12
(dp1312
S'date'
p1313
S'weekend'
p1314
sg18
S'1'
ssa(dp1315
g3
(dp1316
g7
g6
ssg10
g11
sg12
(dp1317
S'date'
p1318
S'tomorrow'
p1319
sS'city'
p1320
S'regency academy 6 theater'
p1321
sS'numberofpeople'
p1322
S'four'
p1323
sS'moviename'
p1324
S'creed'
p1325
sS'starttime'
p1326
S'around noon'
p1327
ssa(dp1328
g3
(dp1329
sg10
g11
sg12
(dp1330
S'city'
p1331
S'seattle'
p1332
sS'numberofpeople'
p1333
S'2'
sS'theater'
p1334
S'regal meridian 16'
p1335
sS'starttime'
p1336
S'9:00 pm'
p1337
sS'date'
p1338
S'tomorrow'
p1339
sS'moviename'
p1340
S'spotlight'
p1341
ssa(dp1342
g3
(dp1343
g5
g6
sg7
g6
sS'moviename'
p1344
g6
sg9
g6
ssg10
g11
sg12
(dp1345
S'video_format'
p1346
S'3d'
p1347
sg18
S'1'
ssa(dp1348
g3
(dp1349
g7
g6
sg9
g6
ssg10
g11
sg12
(dp1350
S'date'
p1351
S'tomorrow night'
p1352
sg18
S'1'
sS'moviename'
p1353
S'deadpool'
p1354
ssa(dp1355
g3
(dp1356
g5
g6
sg7
g6
sg9
g6
ssg10
g11
sg12
(dp1357
S'city'
p1358
S'portland'
p1359
sS'state'
p1360
S'oregon'
p1361
sg18
S'4'
sS'moviename'
p1362
S'star wars'
p1363
ssa(dp1364
g3
(dp1365
g5
g6
sg21
g6
sS'theater'
p1366
g6
sg9
g6
ssg10
g11
sg12
(dp1367
g18
S'5'
sS'mpaa_rating'
p1368
S'pg'
p1369
ssa(dp1370
g3
(dp1371
g21
g6
ssg10
g11
sg12
(dp1372
S'date'
p1373
S'tomorrow'
p1374
sS'city'
p1375
S'seattle'
p1376
sS'numberofpeople'
p1377
S'2'
sS'theater'
p1378
S'amc pacific place 11 theater'
p1379
sS'starttime'
p1380
S'9:30 pm'
p1381
ssa(dp1382
g3
(dp1383
g5
g6
sS'starttime'
p1384
g6
ssg10
g11
sg12
(dp1385
S'moviename'
p1386
S'star wars'
p1387
sg18
S'2'
sS'theater'
p1388
S'shelby township'
p1389
ssa(dp1390
g3
(dp1391
g7
g6
sg9
g6
ssg10
g11
sg12
(dp1392
S'date'
p1393
S'tomorrow'
p1394
sS'city'
p1395
S'philadelphia'
p1396
sg18
S'4'
sS'moviename'
p1397
S'deadpool'
p1398
sS'zip'
p1399
S'19101'
p1400
ssa(dp1401
g3
(dp1402
sg10
g11
sg12
(dp1403
S'city'
p1404
S'seattle'
p1405
sS'numberofpeople'
p1406
S'2'
sS'theater'
p1407
S'regal meridian 16'
p1408
sS'starttime'
p1409
S'9:10 pm'
p1410
sS'date'
p1411
S'tomorrow'
p1412
sS'moviename'
p1413
S'zootopia'
p1414
ssa(dp1415
g3
(dp1416
g7
g6
sS'moviename'
p1417
g6
sg9
g6
ssg10
g11
sg12
(dp1418
S'genre'
p1419
S'comedy'
p1420
sS'date'
p1421
S'tonight'
p1422
sg18
S'5'
sS'distanceconstraints'
p1423
S'near my location'
p1424
ssa(dp1425
g3
(dp1426
sg10
g11
sg12
(dp1427
S'city'
p1428
S'seattle'
p1429
sS'numberofpeople'
p1430
S'2'
sS'theater'
p1431
S'amc pacific place 11 theater'
p1432
sS'starttime'
p1433
S'9:00 pm'
p1434
sS'date'
p1435
S'tomorrow'
p1436
sS'moviename'
p1437
S'deadpool'
p1438
ssa(dp1439
g3
(dp1440
g7
g6
sg21
g6
ssg10
g11
sg12
(dp1441
S'date'
p1442
S'tomorrow'
p1443
sS'city'
p1444
S'seattle'
p1445
sg18
S'5'
sS'other'
p1446
S'pizza place'
p1447
sS'starttime'
p1448
S'night'
p1449
ssa(dp1450
g3
(dp1451
g7
g6
ssg10
g11
sg12
(dp1452
S'city'
p1453
S'knoxville'
p1454
sS'numberofpeople'
p1455
S'2'
sS'distanceconstraints'
p1456
S'downtown'
p1457
sS'video_format'
p1458
S'3d'
p1459
sS'state'
p1460
S'tn'
p1461
sS'starttime'
p1462
S'evening around 7'
p1463
sS'date'
p1464
S'tomorrow'
p1465
sS'moviename'
p1466
S'the vvitch'
p1467
ssa(dp1468
g3
(dp1469
sg10
g11
sg12
(dp1470
S'city'
p1471
S'seattle'
p1472
sS'numberofpeople'
p1473
S'2'
sS'theater'
p1474
S'amc pacific place 11 theater'
p1475
sS'starttime'
p1476
S'10:00 pm'
p1477
sS'date'
p1478
S'tomorrow'
p1479
sS'moviename'
p1480
S'race'
p1481
ssa(dp1482
g3
(dp1483
g7
g6
sg21
g6
ssg10
g11
sg12
(dp1484
S'genre'
p1485
S'romantic comedy'
p1486
sS'date'
p1487
S'friday'
p1488
sS'numberofpeople'
p1489
S'2'
sS'starttime'
p1490
S'night'
p1491
ssa(dp1492
g3
(dp1493
g5
g6
sg7
g6
sg21
g6
sg9
g6
ssg10
g11
sg12
(dp1494
S'distanceconstraints'
p1495
S'near safeco field'
p1496
sg18
S'1'
sS'other'
p1497
S'pizza restaurant'
p1498
ssa(dp1499
g3
(dp1500
sg10
g11
sg12
(dp1501
S'city'
p1502
S'seattle'
p1503
sS'numberofpeople'
p1504
S'2'
sS'theater'
p1505
S'regal meridian 16'
p1506
sS'starttime'
p1507
S'9:10 pm'
p1508
sS'date'
p1509
S'tomorrow'
p1510
sS'moviename'
p1511
S'zootopia'
p1512
ssa(dp1513
g3
(dp1514
g5
g6
sg7
g6
sg21
g6
sg9
g6
ssg10
g11
sg12
(dp1515
S'distanceconstraints'
p1516
S'near safeco field'
p1517
sg18
S'1'
sS'other'
p1518
S'restaurant'
p1519
sS'description'
p1520
S'highest rated pizza'
p1521
ssa(dp1522
g3
(dp1523
sg10
g11
sg12
(dp1524
S'city'
p1525
S'birmingham'
p1526
sS'numberofpeople'
p1527
S'2'
sS'theater'
p1528
S'carmike summit 16'
p1529
sS'state'
p1530
S'al'
p1531
sS'starttime'
p1532
S'around 2pm'
p1533
sS'date'
p1534
S'sunday'
p1535
sS'moviename'
p1536
S'deadpool'
p1537
ssa(dp1538
g3
(dp1539
S'moviename'
p1540
g6
sg9
g6
ssg10
g11
sg12
(dp1541
S'date'
p1542
S'weekend'
p1543
sg18
S'1'
sS'theater'
p1544
S'boyou vista la'
p1545
ssa(dp1546
g3
(dp1547
g5
g6
sg7
g6
sg9
g6
ssg10
g11
sg12
(dp1548
g18
S'4'
sS'moviename'
p1549
S'brothers grimsby'
p1550
ssa(dp1551
g3
(dp1552
sg10
g11
sg12
(dp1553
S'city'
p1554
S'seattle'
p1555
sS'numberofpeople'
p1556
S'2'
sS'theater'
p1557
S'regal meridian 16'
p1558
sS'starttime'
p1559
S'8:45 pm'
p1560
sS'date'
p1561
S'tomorrow'
p1562
sS'moviename'
p1563
S'big short'
p1564
ssa(dp1565
g3
(dp1566
g7
g6
sg21
g6
sg9
g6
ssg10
g11
sg12
(dp1567
S'date'
p1568
S'tomorrow night'
p1569
sS'city'
p1570
S'seattle'
p1571
sg18
S'3'
sS'other'
p1572
S'pizza place'
p1573
ssa(dp1574
g3
(dp1575
g5
g6
sS'theater'
p1576
g6
sg9
g6
ssg10
g11
sg12
(dp1577
g18
S'5'
sS'moviename'
p1578
S'zootopia'
p1579
ssa(dp1580
g3
(dp1581
sg10
g11
sg12
(dp1582
S'city'
p1583
S'seattle'
p1584
sS'numberofpeople'
p1585
S'2'
sS'theater'
p1586
S'regal meridian 16'
p1587
sS'starttime'
p1588
S'9:30 pm'
p1589
sS'date'
p1590
S'tomorrow'
p1591
sS'moviename'
p1592
S'the witch'
p1593
ssa(dp1594
g3
(dp1595
sg10
g11
sg12
(dp1596
S'city'
p1597
S'seattle'
p1598
sS'numberofpeople'
p1599
S'2'
sS'theater'
p1600
S'regal meridian 16'
p1601
sS'starttime'
p1602
S'9:10 pm'
p1603
sS'date'
p1604
S'tomorrow'
p1605
sS'moviename'
p1606
S'zootopia'
p1607
ssa(dp1608
g3
(dp1609
g7
g6
sg21
g6
sS'starttime'
p1610
g6
ssg10
g11
sg12
(dp1611
S'genre'
p1612
S'drama'
p1613
sS'date'
p1614
S'tomorrow'
p1615
sg18
S'1'
ssa(dp1616
g3
(dp1617
g5
g6
sS'starttime'
p1618
g6
ssg10
g11
sg12
(dp1619
S'moviename'
p1620
S'10 cloverfield lane'
p1621
sg18
S'3'
sS'theater'
p1622
S'beaver creek stadium 12'
p1623
ssa(dp1624
g3
(dp1625
g5
g6
sg7
g6
sg21
g6
sg9
g6
ssg10
g11
sg12
(dp1626
S'critic_rating'
p1627
S'good'
p1628
sg18
S'2'
sS'other'
p1629
S'good restaurant'
p1630
sS'city'
p1631
S'seattle'
p1632
ssa(dp1633
g3
(dp1634
g5
g6
sg7
g6
sS'moviename'
p1635
g6
sg9
g6
ssg10
g11
sg12
(dp1636
S'genre'
p1637
S'action'
p1638
sg18
S'3'
sS'zip'
p1639
S'90601'
p1640
ssa(dp1641
g3
(dp1642
sg10
g11
sg12
(dp1643
S'city'
p1644
S'seattle'
p1645
sS'numberofpeople'
p1646
S'2'
sS'theater'
p1647
S'regal meridian 16'
p1648
sS'starttime'
p1649
S'9:00 pm'
p1650
sS'date'
p1651
S'tomorrow'
p1652
sS'moviename'
p1653
S'spotlight'
p1654
ssa(dp1655
g3
(dp1656
g5
g6
sg7
g6
sS'moviename'
p1657
g6
sg9
g6
ssg10
g11
sg12
(dp1658
S'critic_rating'
p1659
S'top rated'
p1660
sg18
S'1'
ssa(dp1661
g3
(dp1662
g7
g6
sg21
g6
ssg10
g11
sg12
(dp1663
S'city'
p1664
S'wilmington'
p1665
sS'numberofpeople'
p1666
S'3'
sS'state'
p1667
S'nc'
p1668
sS'other'
p1669
S'george on the riverwak'
p1670
sS'starttime'
p1671
S'8pm'
p1672
sS'date'
p1673
S'saturday'
p1674
ssa(dp1675
g3
(dp1676
g7
g6
sg21
g6
ssg10
g11
sg12
(dp1677
S'city'
p1678
S'seattle'
p1679
sg18
S'5'
sS'distanceconstraints'
p1680
S'downtown'
p1681
sS'other'
p1682
S'japanese restaurant'
p1683
sS'starttime'
p1684
S'midnight'
p1685
sS'date'
p1686
S'tonight'
p1687
ssa(dp1688
g3
(dp1689
sg10
g11
sg12
(dp1690
S'city'
p1691
S'seattle'
p1692
sS'numberofpeople'
p1693
S'2'
sS'theater'
p1694
S'amc lowes oak tree 6'
p1695
sS'starttime'
p1696
S'4:50 pm'
p1697
sS'date'
p1698
S'tomorrow'
p1699
sS'moviename'
p1700
S'race'
p1701
ssa(dp1702
g3
(dp1703
sg10
g11
sg12
(dp1704
S'city'
p1705
S'seattle'
p1706
sS'numberofpeople'
p1707
S'2'
sS'theater'
p1708
S'amc pacific place 11 theater'
p1709
sS'starttime'
p1710
S'10:00 pm'
p1711
sS'date'
p1712
S'tomorrow'
p1713
sS'moviename'
p1714
S'race'
p1715
ssa(dp1716
g3
(dp1717
g7
g6
sS'moviename'
p1718
g6
sg9
g6
ssg10
g11
sg12
(dp1719
S'date'
p1720
S'this weekend'
p1721
sg18
S'3'
ssa(dp1722
g3
(dp1723
sg10
g11
sg12
(dp1724
S'city'
p1725
S'seattle'
p1726
sS'numberofpeople'
p1727
S'2'
sS'theater'
p1728
S'regal meridian 16'
p1729
sS'starttime'
p1730
S'9:30 pm'
p1731
sS'date'
p1732
S'tomorrow'
p1733
sS'moviename'
p1734
S'the witch'
p1735
ssa(dp1736
g3
(dp1737
sg10
g11
sg12
(dp1738
S'city'
p1739
S'seattle'
p1740
sS'numberofpeople'
p1741
S'2'
sS'theater'
p1742
S'regal meridian 16'
p1743
sS'starttime'
p1744
S'9:30 pm'
p1745
sS'date'
p1746
S'tomorrow'
p1747
sS'moviename'
p1748
S'witch'
p1749
ssa(dp1750
g3
(dp1751
sg10
g11
sg12
(dp1752
S'city'
p1753
S'birmingham'
p1754
sg18
S'1'
sS'theater'
p1755
S'carmike summit 16'
p1756
sS'state'
p1757
S'al'
p1758
sS'starttime'
p1759
S'2pm'
p1760
sS'date'
p1761
S'tomorrow'
p1762
sS'moviename'
p1763
S'deadpool'
p1764
ssa(dp1765
g3
(dp1766
g5
g6
sS'theater'
p1767
g6
sg9
g6
ssg10
g11
sg12
(dp1768
S'city'
p1769
S'seattle'
p1770
sg18
S'2'
sS'moviename'
p1771
S'deadpool'
p1772
ssa(dp1773
g3
(dp1774
sg10
g11
sg12
(dp1775
S'city'
p1776
S'birmingham'
p1777
sS'numberofpeople'
p1778
S'2'
sS'theater'
p1779
S'carmike summit 16'
p1780
sS'state'
p1781
S'al'
p1782
sS'starttime'
p1783
S'around 2pm'
p1784
sS'date'
p1785
S'thursday'
p1786
sS'moviename'
p1787
S'deadpool'
p1788
ssa(dp1789
g3
(dp1790
g5
g6
sg7
g6
sg9
g6
ssg10
g11
sg12
(dp1791
S'numberofpeople'
p1792
S'4'
sS'moviename'
p1793
S'eddie the eagle'
p1794
sS'zip'
p1795
S'94952'
p1796
ssa(dp1797
g3
(dp1798
g5
g6
sg7
g6
sg9
g6
ssg10
g11
sg12
(dp1799
S'numberofpeople'
p1800
S'two'
p1801
sS'moviename'
p1802
S'london has fallen'
p1803
sS'zip'
p1804
S'90602'
p1805
ssa(dp1806
g3
(dp1807
g5
g6
sg7
g6
sg21
g6
sg9
g6
ssg10
g11
sg12
(dp1808
S'distanceconstraints'
p1809
S'near the space needle'
p1810
sg18
S'5'
sS'other'
p1811
S'I can bring my cat to'
p1812
ssa(dp1813
g3
(dp1814
g5
g6
sg7
g6
sS'moviename'
p1815
g6
ssg10
g11
sg12
(dp1816
S'genre'
p1817
S'funny'
p1818
sS'city'
p1819
S'seattle'
p1820
sg18
S'3'
sS'starttime'
p1821
S'5pm'
p1822
ssa(dp1823
g3
(dp1824
g7
g6
sS'moviename'
p1825
g6
sg9
g6
ssg10
g11
sg12
(dp1826
S'date'
p1827
S'this weekend'
p1828
sS'city'
p1829
S'bayou vista'
p1830
sS'state'
p1831
S'la'
p1832
sg18
S'2'
ssa(dp1833
g3
(dp1834
g5
g6
sS'theater'
p1835
g6
sg9
g6
ssg10
g11
sg12
(dp1836
S'state'
p1837
S'california'
p1838
sg18
S'4'
sS'moviename'
p1839
S'zootopia'
p1840
ssa(dp1841
g3
(dp1842
g5
g6
sg7
g6
sS'moviename'
p1843
g6
sg9
g6
ssg10
g11
sg12
(dp1844
S'city'
p1845
S'seattle'
p1846
sS'state'
p1847
S'washington'
p1848
sg18
S'5'
ssa(dp1849
g3
(dp1850
g7
g6
sS'moviename'
p1851
g6
sg9
g6
ssg10
g11
sg12
(dp1852
S'date'
p1853
S'this weekend'
p1854
sg18
S'1'
ssa(dp1855
g3
(dp1856
g7
g6
sS'moviename'
p1857
g6
ssg10
g11
sg12
(dp1858
S'genre'
p1859
S'romantic comedies'
p1860
sS'date'
p1861
S'tomorrow'
p1862
sg18
S'4'
sS'starttime'
p1863
S'afternoon'
p1864
ssa(dp1865
g3
(dp1866
sg10
g11
sg12
(dp1867
S'city'
p1868
S'seattle'
p1869
sS'numberofpeople'
p1870
S'2'
sS'theater'
p1871
S'regal meridian 16'
p1872
sS'starttime'
p1873
S'9:25 pm'
p1874
sS'date'
p1875
S'tomorrow'
p1876
sS'moviename'
p1877
S'zoolander 2'
p1878
ssa(dp1879
g3
(dp1880
g5
g6
sg21
g6
sS'theater'
p1881
g6
sg9
g6
ssg10
g11
sg12
(dp1882
S'city'
p1883
S'seattle'
p1884
sg18
S'5'
sS'other'
p1885
S'serve alcohol'
p1886
ssa(dp1887
g3
(dp1888
g21
g6
ssg10
g11
sg12
(dp1889
S'date'
p1890
S'tomorrow'
p1891
sS'city'
p1892
S'seattle'
p1893
sS'numberofpeople'
p1894
S'2'
sS'theater'
p1895
S'amc lowes oak tree 6'
p1896
sS'starttime'
p1897
S'4:50 pm'
p1898
ssa(dp1899
g3
(dp1900
g5
g6
sg9
g6
ssg10
g11
sg12
(dp1901
S'moviename'
p1902
S'the other side of the door'
p1903
sS'numberofpeople'
p1904
S'two'
p1905
sS'theater'
p1906
S'southpoint casino'
p1907
sS'city'
p1908
S'las vegas'
p1909
ssa(dp1910
g3
(dp1911
g5
g6
sg7
g6
sg9
g6
ssg10
g11
sg12
(dp1912
S'city'
p1913
S'du Quoin'
p1914
sS'state'
p1915
S'illinois'
p1916
sg18
S'2'
sS'moviename'
p1917
S'star wars'
p1918
ssa(dp1919
g3
(dp1920
g5
g6
sg7
g6
sg9
g6
ssg10
g11
sg12
(dp1921
S'numberofpeople'
p1922
S'3'
sS'moviename'
p1923
S'gods egypt'
p1924
ssa(dp1925
g3
(dp1926
sg10
g11
sg12
(dp1927
S'city'
p1928
S'seattle'
p1929
sS'numberofpeople'
p1930
S'2'
sS'theater'
p1931
S'regal meridian 16 theater'
p1932
sS'starttime'
p1933
S'8:45 pm'
p1934
sS'date'
p1935
S'tomorrow'
p1936
sS'moviename'
p1937
S'hail caesar'
p1938
ssa(dp1939
g3
(dp1940
g7
g6
ssg10
g11
sg12
(dp1941
S'date'
p1942
S'tomorrow'
p1943
sS'city'
p1944
S'seattle'
p1945
sS'numberofpeople'
p1946
S'one'
p1947
sS'moviename'
p1948
S'zootopia'
p1949
sS'starttime'
p1950
S'night'
p1951
ssa(dp1952
g3
(dp1953
sg10
g11
sg12
(dp1954
S'city'
p1955
S'seattle'
p1956
sS'numberofpeople'
p1957
S'2'
sS'theater'
p1958
S'amc pacific place 11 theater'
p1959
sS'starttime'
p1960
S'10:00 pm'
p1961
sS'date'
p1962
S'tomorrow'
p1963
sS'moviename'
p1964
S'race'
p1965
ssa(dp1966
g3
(dp1967
sg10
g11
sg12
(dp1968
S'city'
p1969
S'seattle'
p1970
sS'numberofpeople'
p1971
S'2'
sS'theater'
p1972
S'amc pacific place 11 theater'
p1973
sS'starttime'
p1974
S'10:00 pm'
p1975
sS'date'
p1976
S'tomorrow'
p1977
sS'moviename'
p1978
S'race'
p1979
ssa(dp1980
g3
(dp1981
g5
g6
sg7
g6
sg21
g6
sg9
g6
ssg10
g11
sg12
(dp1982
S'city'
p1983
S'seattle'
p1984
sg18
S'5'
sS'other'
p1985
S'restaurants'
p1986
ssa(dp1987
g3
(dp1988
g5
g6
sg7
g6
sg21
g6
sg9
g6
ssg10
g11
sg12
(dp1989
S'genre'
p1990
S'sci-fi'
p1991
sS'city'
p1992
S'miami'
p1993
sg18
S'4'
ssa(dp1994
g3
(dp1995
g7
g6
sS'moviename'
p1996
g6
sg9
g6
ssg10
g11
sg12
(dp1997
S'genre'
p1998
S'action'
p1999
sS'date'
p2000
S'this weekend'
p2001
sg18
S'1'
ssa(dp2002
g3
(dp2003
sg10
g11
sg12
(dp2004
S'city'
p2005
S'seattle'
p2006
sS'numberofpeople'
p2007
S'2'
sS'theater'
p2008
S'amc lowes oak tree 6'
p2009
sS'starttime'
p2010
S'7:15 pm'
p2011
sS'date'
p2012
S'tomorrow'
p2013
sS'moviename'
p2014
S'hail caesar'
p2015
ssa(dp2016
g3
(dp2017
sg10
g11
sg12
(dp2018
S'city'
p2019
S'seattle'
p2020
sS'numberofpeople'
p2021
S'6'
sS'theater'
p2022
S'amc lowes oak tree'
p2023
sS'starttime'
p2024
S'7:10 pm'
p2025
sS'date'
p2026
S'tomorrow'
p2027
sS'moviename'
p2028
S'triple 9'
p2029
ssa(dp2030
g3
(dp2031
g5
g6
sg7
g6
sg9
g6
ssg10
g11
sg12
(dp2032
S'numberofpeople'
p2033
S'two'
p2034
sS'moviename'
p2035
S'zootopia'
p2036
ssa(dp2037
g3
(dp2038
sg10
g11
sg12
(dp2039
S'city'
p2040
S'seattle'
p2041
sS'numberofpeople'
p2042
S'2'
sS'theater'
p2043
S'amc pacific place 11 theater'
p2044
sS'starttime'
p2045
S'9:00 pm'
p2046
sS'date'
p2047
S'tomorrow'
p2048
sS'moviename'
p2049
S'deadpool'
p2050
ssa.